; Listing generated by Microsoft (R) Optimizing Compiler Version 13.10.3077 

	TITLE	.\source\Dxerrors.cpp
	.386P
include listing.inc
if @Version gt 510
.model FLAT
else
_TEXT	SEGMENT PARA USE32 PUBLIC 'CODE'
_TEXT	ENDS
_DATA	SEGMENT DWORD USE32 PUBLIC 'DATA'
_DATA	ENDS
CONST	SEGMENT DWORD USE32 PUBLIC 'CONST'
CONST	ENDS
_BSS	SEGMENT DWORD USE32 PUBLIC 'BSS'
_BSS	ENDS
$$SYMBOLS	SEGMENT BYTE USE32 'DEBSYM'
$$SYMBOLS	ENDS
$$TYPES	SEGMENT BYTE USE32 'DEBTYP'
$$TYPES	ENDS
_TLS	SEGMENT DWORD USE32 PUBLIC 'TLS'
_TLS	ENDS
;	COMDAT ??_C@_0BJ@LAEIKKJF@DDERR_ALREADYINITIALIZED?$AA@
CONST	SEGMENT DWORD USE32 PUBLIC 'CONST'
CONST	ENDS
;	COMDAT ??_C@_0BK@LBNPECMI@DDERR_CANNOTATTACHSURFACE?$AA@
CONST	SEGMENT DWORD USE32 PUBLIC 'CONST'
CONST	ENDS
;	COMDAT ??_C@_0BK@FMONFDPK@DDERR_CANNOTDETACHSURFACE?$AA@
CONST	SEGMENT DWORD USE32 PUBLIC 'CONST'
CONST	ENDS
;	COMDAT ??_C@_0BI@CPFFLGJD@DDERR_CURRENTLYNOTAVAIL?$AA@
CONST	SEGMENT DWORD USE32 PUBLIC 'CONST'
CONST	ENDS
;	COMDAT ??_C@_0BA@MEDIIHJ@DDERR_EXCEPTION?$AA@
CONST	SEGMENT DWORD USE32 PUBLIC 'CONST'
CONST	ENDS
;	COMDAT ??_C@_0O@MGEMDJJH@DDERR_GENERIC?$AA@
CONST	SEGMENT DWORD USE32 PUBLIC 'CONST'
CONST	ENDS
;	COMDAT ??_C@_0BC@FNNCOGNH@DDERR_HEIGHTALIGN?$AA@
CONST	SEGMENT DWORD USE32 PUBLIC 'CONST'
CONST	ENDS
;	COMDAT ??_C@_0BK@HJOPGIGH@DDERR_INCOMPATIBLEPRIMARY?$AA@
CONST	SEGMENT DWORD USE32 PUBLIC 'CONST'
CONST	ENDS
;	COMDAT ??_C@_0BC@DDIGIKID@DDERR_INVALIDCAPS?$AA@
CONST	SEGMENT DWORD USE32 PUBLIC 'CONST'
CONST	ENDS
;	COMDAT ??_C@_0BG@OFKCMNHM@DDERR_INVALIDCLIPLIST?$AA@
CONST	SEGMENT DWORD USE32 PUBLIC 'CONST'
CONST	ENDS
;	COMDAT ??_C@_0BC@GLNOPNKK@DDERR_INVALIDMODE?$AA@
CONST	SEGMENT DWORD USE32 PUBLIC 'CONST'
CONST	ENDS
;	COMDAT ??_C@_0BE@KPNOKGED@DDERR_INVALIDOBJECT?$AA@
CONST	SEGMENT DWORD USE32 PUBLIC 'CONST'
CONST	ENDS
;	COMDAT ??_C@_0BE@CCPBMIBD@DDERR_INVALIDPARAMS?$AA@
CONST	SEGMENT DWORD USE32 PUBLIC 'CONST'
CONST	ENDS
;	COMDAT ??_C@_0BJ@PEGADMFO@DDERR_INVALIDPIXELFORMAT?$AA@
CONST	SEGMENT DWORD USE32 PUBLIC 'CONST'
CONST	ENDS
;	COMDAT ??_C@_0BC@LAEFCIAI@DDERR_INVALIDRECT?$AA@
CONST	SEGMENT DWORD USE32 PUBLIC 'CONST'
CONST	ENDS
;	COMDAT ??_C@_0BF@MAGKOGBC@DDERR_LOCKEDSURFACES?$AA@
CONST	SEGMENT DWORD USE32 PUBLIC 'CONST'
CONST	ENDS
;	COMDAT ??_C@_0L@DJKAAMGA@DDERR_NO3D?$AA@
CONST	SEGMENT DWORD USE32 PUBLIC 'CONST'
CONST	ENDS
;	COMDAT ??_C@_0BA@BFFEPDGJ@DDERR_NOALPHAHW?$AA@
CONST	SEGMENT DWORD USE32 PUBLIC 'CONST'
CONST	ENDS
;	COMDAT ??_C@_0BB@JOLMGPDK@DDERR_NOCLIPLIST?$AA@
CONST	SEGMENT DWORD USE32 PUBLIC 'CONST'
CONST	ENDS
;	COMDAT ??_C@_0BE@PDOMLOPD@DDERR_NOCOLORCONVHW?$AA@
CONST	SEGMENT DWORD USE32 PUBLIC 'CONST'
CONST	ENDS
;	COMDAT ??_C@_0BM@PMEMMDPI@DDERR_NOCOOPERATIVELEVELSET?$AA@
CONST	SEGMENT DWORD USE32 PUBLIC 'CONST'
CONST	ENDS
;	COMDAT ??_C@_0BB@GIFHLHNH@DDERR_NOCOLORKEY?$AA@
CONST	SEGMENT DWORD USE32 PUBLIC 'CONST'
CONST	ENDS
;	COMDAT ??_C@_0BD@BAAPAKEL@DDERR_NOCOLORKEYHW?$AA@
CONST	SEGMENT DWORD USE32 PUBLIC 'CONST'
CONST	ENDS
;	COMDAT ??_C@_0BK@BCHEFLBM@DDERR_NODIRECTDRAWSUPPORT?$AA@
CONST	SEGMENT DWORD USE32 PUBLIC 'CONST'
CONST	ENDS
;	COMDAT ??_C@_0BG@DHFIFBBC@DDERR_NOEXCLUSIVEMODE?$AA@
CONST	SEGMENT DWORD USE32 PUBLIC 'CONST'
CONST	ENDS
;	COMDAT ??_C@_0P@IEKAGFBG@DDERR_NOFLIPHW?$AA@
CONST	SEGMENT DWORD USE32 PUBLIC 'CONST'
CONST	ENDS
;	COMDAT ??_C@_0M@IIGNACND@DDERR_NOGDI?$AA@
CONST	SEGMENT DWORD USE32 PUBLIC 'CONST'
CONST	ENDS
;	COMDAT ??_C@_0BB@MNGJGGOP@DDERR_NOMIRRORHW?$AA@
CONST	SEGMENT DWORD USE32 PUBLIC 'CONST'
CONST	ENDS
;	COMDAT ??_C@_0P@IIGPDCF@DDERR_NOTFOUND?$AA@
CONST	SEGMENT DWORD USE32 PUBLIC 'CONST'
CONST	ENDS
;	COMDAT ??_C@_0BC@JKHLHDPI@DDERR_NOOVERLAYHW?$AA@
CONST	SEGMENT DWORD USE32 PUBLIC 'CONST'
CONST	ENDS
;	COMDAT ??_C@_0BD@ICAOCHBG@DDERR_NORASTEROPHW?$AA@
CONST	SEGMENT DWORD USE32 PUBLIC 'CONST'
CONST	ENDS
;	COMDAT ??_C@_0BD@NEIDAAKN@DDERR_NOROTATIONHW?$AA@
CONST	SEGMENT DWORD USE32 PUBLIC 'CONST'
CONST	ENDS
;	COMDAT ??_C@_0BC@CAPIEDAG@DDERR_NOSTRETCHHW?$AA@
CONST	SEGMENT DWORD USE32 PUBLIC 'CONST'
CONST	ENDS
;	COMDAT ??_C@_0BD@ENAKJNOC@DDERR_NOT4BITCOLOR?$AA@
CONST	SEGMENT DWORD USE32 PUBLIC 'CONST'
CONST	ENDS
;	COMDAT ??_C@_0BI@IKKPPDMJ@DDERR_NOT4BITCOLORINDEX?$AA@
CONST	SEGMENT DWORD USE32 PUBLIC 'CONST'
CONST	ENDS
;	COMDAT ??_C@_0BD@FHDGHNGM@DDERR_NOT8BITCOLOR?$AA@
CONST	SEGMENT DWORD USE32 PUBLIC 'CONST'
CONST	ENDS
;	COMDAT ??_C@_0BC@ENEADALF@DDERR_NOTEXTUREHW?$AA@
CONST	SEGMENT DWORD USE32 PUBLIC 'CONST'
CONST	ENDS
;	COMDAT ??_C@_0BA@PAPKELJP@DDERR_NOVSYNCHW?$AA@
CONST	SEGMENT DWORD USE32 PUBLIC 'CONST'
CONST	ENDS
;	COMDAT ??_C@_0BC@MGOAKBHI@DDERR_NOZBUFFERHW?$AA@
CONST	SEGMENT DWORD USE32 PUBLIC 'CONST'
CONST	ENDS
;	COMDAT ??_C@_0BD@IFBPLCFK@DDERR_NOZOVERLAYHW?$AA@
CONST	SEGMENT DWORD USE32 PUBLIC 'CONST'
CONST	ENDS
;	COMDAT ??_C@_0BA@BCMNJCDB@DDERR_OUTOFCAPS?$AA@
CONST	SEGMENT DWORD USE32 PUBLIC 'CONST'
CONST	ENDS
;	COMDAT ??_C@_0BC@JFAMHJIL@DDERR_OUTOFMEMORY?$AA@
CONST	SEGMENT DWORD USE32 PUBLIC 'CONST'
CONST	ENDS
;	COMDAT ??_C@_0BH@IHGJFMGH@DDERR_OUTOFVIDEOMEMORY?$AA@
CONST	SEGMENT DWORD USE32 PUBLIC 'CONST'
CONST	ENDS
;	COMDAT ??_C@_0BG@EDDFCCOG@DDERR_OVERLAYCANTCLIP?$AA@
CONST	SEGMENT DWORD USE32 PUBLIC 'CONST'
CONST	ENDS
;	COMDAT ??_C@_0CD@JNABKIAN@DDERR_OVERLAYCOLORKEYONLYONEACTI@
CONST	SEGMENT DWORD USE32 PUBLIC 'CONST'
CONST	ENDS
;	COMDAT ??_C@_0BC@CEBGFCJL@DDERR_PALETTEBUSY?$AA@
CONST	SEGMENT DWORD USE32 PUBLIC 'CONST'
CONST	ENDS
;	COMDAT ??_C@_0BF@HOAOBBGM@DDERR_COLORKEYNOTSET?$AA@
CONST	SEGMENT DWORD USE32 PUBLIC 'CONST'
CONST	ENDS
;	COMDAT ??_C@_0BN@DLNFLDJF@DDERR_SURFACEALREADYATTACHED?$AA@
CONST	SEGMENT DWORD USE32 PUBLIC 'CONST'
CONST	ENDS
;	COMDAT ??_C@_0BO@HOHOGLO@DDERR_SURFACEALREADYDEPENDENT?$AA@
CONST	SEGMENT DWORD USE32 PUBLIC 'CONST'
CONST	ENDS
;	COMDAT ??_C@_0BC@NLGPCHLD@DDERR_SURFACEBUSY?$AA@
CONST	SEGMENT DWORD USE32 PUBLIC 'CONST'
CONST	ENDS
;	COMDAT ??_C@_0BG@IADNDEGE@DDERR_CANTLOCKSURFACE?$AA@
CONST	SEGMENT DWORD USE32 PUBLIC 'CONST'
CONST	ENDS
;	COMDAT ??_C@_0BI@KAHOANAA@DDERR_SURFACEISOBSCURED?$AA@
CONST	SEGMENT DWORD USE32 PUBLIC 'CONST'
CONST	ENDS
;	COMDAT ??_C@_0BC@OOFFFAGE@DDERR_SURFACELOST?$AA@
CONST	SEGMENT DWORD USE32 PUBLIC 'CONST'
CONST	ENDS
;	COMDAT ??_C@_0BJ@DMNBOKFJ@DDERR_SURFACENOTATTACHED?$AA@
CONST	SEGMENT DWORD USE32 PUBLIC 'CONST'
CONST	ENDS
;	COMDAT ??_C@_0BD@FPHOLBKE@DDERR_TOOBIGHEIGHT?$AA@
CONST	SEGMENT DWORD USE32 PUBLIC 'CONST'
CONST	ENDS
;	COMDAT ??_C@_0BB@IBDADILM@DDERR_TOOBIGSIZE?$AA@
CONST	SEGMENT DWORD USE32 PUBLIC 'CONST'
CONST	ENDS
;	COMDAT ??_C@_0BC@MMEFKBGP@DDERR_TOOBIGWIDTH?$AA@
CONST	SEGMENT DWORD USE32 PUBLIC 'CONST'
CONST	ENDS
;	COMDAT ??_C@_0BC@LLCNADOP@DDERR_UNSUPPORTED?$AA@
CONST	SEGMENT DWORD USE32 PUBLIC 'CONST'
CONST	ENDS
;	COMDAT ??_C@_0BI@GGBGCOID@DDERR_UNSUPPORTEDFORMAT?$AA@
CONST	SEGMENT DWORD USE32 PUBLIC 'CONST'
CONST	ENDS
;	COMDAT ??_C@_0BG@OHPHKFL@DDERR_UNSUPPORTEDMASK?$AA@
CONST	SEGMENT DWORD USE32 PUBLIC 'CONST'
CONST	ENDS
;	COMDAT ??_C@_0BO@CKEGAAHC@DDERR_VERTICALBLANKINPROGRESS?$AA@
CONST	SEGMENT DWORD USE32 PUBLIC 'CONST'
CONST	ENDS
;	COMDAT ??_C@_0BG@PNJKHKJC@DDERR_WASSTILLDRAWING?$AA@
CONST	SEGMENT DWORD USE32 PUBLIC 'CONST'
CONST	ENDS
;	COMDAT ??_C@_0N@MAIIIAKF@DDERR_XALIGN?$AA@
CONST	SEGMENT DWORD USE32 PUBLIC 'CONST'
CONST	ENDS
;	COMDAT ??_C@_0BM@LMDGBJFD@DDERR_INVALIDDIRECTDRAWGUID?$AA@
CONST	SEGMENT DWORD USE32 PUBLIC 'CONST'
CONST	ENDS
;	COMDAT ??_C@_0BP@CFDPGCFK@DDERR_DIRECTDRAWALREADYCREATED?$AA@
CONST	SEGMENT DWORD USE32 PUBLIC 'CONST'
CONST	ENDS
;	COMDAT ??_C@_0BF@NOEHEIDL@DDERR_NODIRECTDRAWHW?$AA@
CONST	SEGMENT DWORD USE32 PUBLIC 'CONST'
CONST	ENDS
;	COMDAT ??_C@_0CC@FKFBEMJC@DDERR_PRIMARYSURFACEALREADYEXIST@
CONST	SEGMENT DWORD USE32 PUBLIC 'CONST'
CONST	ENDS
;	COMDAT ??_C@_0BC@DCFOAKAL@DDERR_NOEMULATION?$AA@
CONST	SEGMENT DWORD USE32 PUBLIC 'CONST'
CONST	ENDS
;	COMDAT ??_C@_0BF@BDDJLJGA@DDERR_REGIONTOOSMALL?$AA@
CONST	SEGMENT DWORD USE32 PUBLIC 'CONST'
CONST	ENDS
;	COMDAT ??_C@_0BJ@BOEHMDDM@DDERR_CLIPPERISUSINGHWND?$AA@
CONST	SEGMENT DWORD USE32 PUBLIC 'CONST'
CONST	ENDS
;	COMDAT ??_C@_0BI@BGMBBEJL@DDERR_NOCLIPPERATTACHED?$AA@
CONST	SEGMENT DWORD USE32 PUBLIC 'CONST'
CONST	ENDS
;	COMDAT ??_C@_0N@EOPEBNEI@DDERR_NOHWND?$AA@
CONST	SEGMENT DWORD USE32 PUBLIC 'CONST'
CONST	ENDS
;	COMDAT ??_C@_0BF@MAFLBECE@DDERR_HWNDSUBCLASSED?$AA@
CONST	SEGMENT DWORD USE32 PUBLIC 'CONST'
CONST	ENDS
;	COMDAT ??_C@_0BF@LGLNHCHJ@DDERR_HWNDALREADYSET?$AA@
CONST	SEGMENT DWORD USE32 PUBLIC 'CONST'
CONST	ENDS
;	COMDAT ??_C@_0BI@KBKHCNLK@DDERR_NOPALETTEATTACHED?$AA@
CONST	SEGMENT DWORD USE32 PUBLIC 'CONST'
CONST	ENDS
;	COMDAT ??_C@_0BC@GEADEPGN@DDERR_NOPALETTEHW?$AA@
CONST	SEGMENT DWORD USE32 PUBLIC 'CONST'
CONST	ENDS
;	COMDAT ??_C@_0BG@HLNKGEOE@DDERR_BLTFASTCANTCLIP?$AA@
CONST	SEGMENT DWORD USE32 PUBLIC 'CONST'
CONST	ENDS
;	COMDAT ??_C@_0O@NKGDNEG@DDERR_NOBLTHW?$AA@
CONST	SEGMENT DWORD USE32 PUBLIC 'CONST'
CONST	ENDS
;	COMDAT ??_C@_0BB@BPILLDBG@DDERR_NODDROPSHW?$AA@
CONST	SEGMENT DWORD USE32 PUBLIC 'CONST'
CONST	ENDS
;	COMDAT ??_C@_0BI@CLLMFLGN@DDERR_OVERLAYNOTVISIBLE?$AA@
CONST	SEGMENT DWORD USE32 PUBLIC 'CONST'
CONST	ENDS
;	COMDAT ??_C@_0BE@JKKEKLOE@DDERR_NOOVERLAYDEST?$AA@
CONST	SEGMENT DWORD USE32 PUBLIC 'CONST'
CONST	ENDS
;	COMDAT ??_C@_0BG@OMJGFIHE@DDERR_INVALIDPOSITION?$AA@
CONST	SEGMENT DWORD USE32 PUBLIC 'CONST'
CONST	ENDS
;	COMDAT ??_C@_0BJ@LGNAEONK@DDERR_NOTAOVERLAYSURFACE?$AA@
CONST	SEGMENT DWORD USE32 PUBLIC 'CONST'
CONST	ENDS
;	COMDAT ??_C@_0BO@GMCKLDPA@DDERR_EXCLUSIVEMODEALREADYSET?$AA@
CONST	SEGMENT DWORD USE32 PUBLIC 'CONST'
CONST	ENDS
;	COMDAT ??_C@_0BD@FOFDLEGO@DDERR_NOTFLIPPABLE?$AA@
CONST	SEGMENT DWORD USE32 PUBLIC 'CONST'
CONST	ENDS
;	COMDAT ??_C@_0BE@LNBDBNLL@DDERR_CANTDUPLICATE?$AA@
CONST	SEGMENT DWORD USE32 PUBLIC 'CONST'
CONST	ENDS
;	COMDAT ??_C@_0BA@KCNFHPNM@DDERR_NOTLOCKED?$AA@
CONST	SEGMENT DWORD USE32 PUBLIC 'CONST'
CONST	ENDS
;	COMDAT ??_C@_0BD@PBNGJMBK@DDERR_CANTCREATEDC?$AA@
CONST	SEGMENT DWORD USE32 PUBLIC 'CONST'
CONST	ENDS
;	COMDAT ??_C@_0L@CHFPOEHC@DDERR_NODC?$AA@
CONST	SEGMENT DWORD USE32 PUBLIC 'CONST'
CONST	ENDS
;	COMDAT ??_C@_0BA@FGHHLMKB@DDERR_WRONGMODE?$AA@
CONST	SEGMENT DWORD USE32 PUBLIC 'CONST'
CONST	ENDS
;	COMDAT ??_C@_0BI@NLHHKHEN@DDERR_IMPLICITLYCREATED?$AA@
CONST	SEGMENT DWORD USE32 PUBLIC 'CONST'
CONST	ENDS
;	COMDAT ??_C@_0BE@FGMGOELL@DDERR_NOTPALETTIZED?$AA@
CONST	SEGMENT DWORD USE32 PUBLIC 'CONST'
CONST	ENDS
;	COMDAT ??_C@_0BG@GJEKJFBD@DDERR_UNSUPPORTEDMODE?$AA@
CONST	SEGMENT DWORD USE32 PUBLIC 'CONST'
CONST	ENDS
;	COMDAT ??_C@_0BB@LNEPLBGC@DDERR_NOMIPMAPHW?$AA@
CONST	SEGMENT DWORD USE32 PUBLIC 'CONST'
CONST	ENDS
;	COMDAT ??_C@_0BJ@HPBNNCIB@DDERR_INVALIDSURFACETYPE?$AA@
CONST	SEGMENT DWORD USE32 PUBLIC 'CONST'
CONST	ENDS
;	COMDAT ??_C@_0BH@BBAKKFGG@DDERR_DCALREADYCREATED?$AA@
CONST	SEGMENT DWORD USE32 PUBLIC 'CONST'
CONST	ENDS
;	COMDAT ??_C@_0BD@GIBKCHPD@DDERR_CANTPAGELOCK?$AA@
CONST	SEGMENT DWORD USE32 PUBLIC 'CONST'
CONST	ENDS
;	COMDAT ??_C@_0BF@MPOCMAGG@DDERR_CANTPAGEUNLOCK?$AA@
CONST	SEGMENT DWORD USE32 PUBLIC 'CONST'
CONST	ENDS
;	COMDAT ??_C@_0BE@ELKGHCMM@DDERR_NOTPAGELOCKED?$AA@
CONST	SEGMENT DWORD USE32 PUBLIC 'CONST'
CONST	ENDS
;	COMDAT ??_C@_0BF@DLEGFOLA@DDERR_NOTINITIALIZED?$AA@
CONST	SEGMENT DWORD USE32 PUBLIC 'CONST'
CONST	ENDS
;	COMDAT ??_C@_0BA@ECKDOBJD@DSERR_BADFORMAT?$AA@
CONST	SEGMENT DWORD USE32 PUBLIC 'CONST'
CONST	ENDS
;	COMDAT ??_C@_0BC@NMCDDLDP@DSERR_INVALIDCALL?$AA@
CONST	SEGMENT DWORD USE32 PUBLIC 'CONST'
CONST	ENDS
;	COMDAT ??_C@_0BD@MODBPMIE@DSERR_INVALIDPARAM?$AA@
CONST	SEGMENT DWORD USE32 PUBLIC 'CONST'
CONST	ENDS
;	COMDAT ??_C@_0BC@KCMPJMLN@DSERR_OUTOFMEMORY?$AA@
CONST	SEGMENT DWORD USE32 PUBLIC 'CONST'
CONST	ENDS
;	COMDAT ??_C@_0BG@FGFOLLAI@DSERR_PRIOLEVELNEEDED?$AA@
CONST	SEGMENT DWORD USE32 PUBLIC 'CONST'
CONST	ENDS
;	COMDAT ??_C@_0BC@IMOOOGNJ@DSERR_UNSUPPORTED?$AA@
CONST	SEGMENT DWORD USE32 PUBLIC 'CONST'
CONST	ENDS
;	COMDAT ??_C@_0BD@CIMLFMCH@DPERR_ACCESSDENIED?$AA@
CONST	SEGMENT DWORD USE32 PUBLIC 'CONST'
CONST	ENDS
;	COMDAT ??_C@_0BE@JLKJJGDM@DPERR_ACTIVEPLAYERS?$AA@
CONST	SEGMENT DWORD USE32 PUBLIC 'CONST'
CONST	ENDS
;	COMDAT ??_C@_0BJ@KGCFELPH@DPERR_ALREADYINITIALIZED?$AA@
CONST	SEGMENT DWORD USE32 PUBLIC 'CONST'
CONST	ENDS
;	COMDAT ??_C@_0BE@IBHIGLAG@DPERR_APPNOTSTARTED?$AA@
CONST	SEGMENT DWORD USE32 PUBLIC 'CONST'
CONST	ENDS
;	COMDAT ??_C@_0BL@BNFGMJL@DPERR_AUTHENTICATIONFAILED?$AA@
CONST	SEGMENT DWORD USE32 PUBLIC 'CONST'
CONST	ENDS
;	COMDAT ??_C@_0BF@EHLGNELP@DPERR_BUFFERTOOLARGE?$AA@
CONST	SEGMENT DWORD USE32 PUBLIC 'CONST'
CONST	ENDS
;	COMDAT ??_C@_0BF@OPPNCFCJ@DPERR_BUFFERTOOSMALL?$AA@
CONST	SEGMENT DWORD USE32 PUBLIC 'CONST'
CONST	ENDS
;	COMDAT ??_C@_0L@FKAKNADE@DPERR_BUSY?$AA@
CONST	SEGMENT DWORD USE32 PUBLIC 'CONST'
CONST	ENDS
;	COMDAT ??_C@_0BD@JBJHCNNC@DPERR_CANCELFAILED?$AA@
CONST	SEGMENT DWORD USE32 PUBLIC 'CONST'
CONST	ENDS
;	COMDAT ??_C@_0BE@OFODIPDM@DPERR_CANTADDPLAYER?$AA@
CONST	SEGMENT DWORD USE32 PUBLIC 'CONST'
CONST	ENDS
;	COMDAT ??_C@_0BG@DCEHLHAP@DPERR_CANTCREATEGROUP?$AA@
CONST	SEGMENT DWORD USE32 PUBLIC 'CONST'
CONST	ENDS
;	COMDAT ??_C@_0BH@GMKOMEBJ@DPERR_CANTCREATEPLAYER?$AA@
CONST	SEGMENT DWORD USE32 PUBLIC 'CONST'
CONST	ENDS
;	COMDAT ??_C@_0BI@NDOIGLGE@DPERR_CANTCREATEPROCESS?$AA@
CONST	SEGMENT DWORD USE32 PUBLIC 'CONST'
CONST	ENDS
;	COMDAT ??_C@_0BI@ELGMBCBF@DPERR_CANTCREATESESSION?$AA@
CONST	SEGMENT DWORD USE32 PUBLIC 'CONST'
CONST	ENDS
;	COMDAT ??_C@_0BD@PEDKHGGM@DPERR_CANTLOADCAPI?$AA@
CONST	SEGMENT DWORD USE32 PUBLIC 'CONST'
CONST	ENDS
;	COMDAT ??_C@_0BO@OABPENJN@DPERR_CANTLOADSECURITYPACKAGE?$AA@
CONST	SEGMENT DWORD USE32 PUBLIC 'CONST'
CONST	ENDS
;	COMDAT ??_C@_0BD@GOMKHOPK@DPERR_CANTLOADSSPI?$AA@
CONST	SEGMENT DWORD USE32 PUBLIC 'CONST'
CONST	ENDS
;	COMDAT ??_C@_0BK@NJEEEGOO@DPERR_CAPSNOTAVAILABLEYET?$AA@
CONST	SEGMENT DWORD USE32 PUBLIC 'CONST'
CONST	ENDS
;	COMDAT ??_C@_0BB@LDDHAHLN@DPERR_CONNECTING?$AA@
CONST	SEGMENT DWORD USE32 PUBLIC 'CONST'
CONST	ENDS
;	COMDAT ??_C@_0BH@NPDAALGG@DPERR_ENCRYPTIONFAILED?$AA@
CONST	SEGMENT DWORD USE32 PUBLIC 'CONST'
CONST	ENDS
;	COMDAT ??_C@_0BA@MCFNHCFF@DPERR_EXCEPTION?$AA@
CONST	SEGMENT DWORD USE32 PUBLIC 'CONST'
CONST	ENDS
;	COMDAT ??_C@_0O@LCPCPFNL@DPERR_GENERIC?$AA@
CONST	SEGMENT DWORD USE32 PUBLIC 'CONST'
CONST	ENDS
;	COMDAT ??_C@_0BD@JLMILPMN@DPERR_INVALIDFLAGS?$AA@
CONST	SEGMENT DWORD USE32 PUBLIC 'CONST'
CONST	ENDS
;	COMDAT ??_C@_0BD@FLBEBGGF@DPERR_INVALIDGROUP?$AA@
CONST	SEGMENT DWORD USE32 PUBLIC 'CONST'
CONST	ENDS
;	COMDAT ??_C@_0BH@JCHHAMNM@DPERR_INVALIDINTERFACE?$AA@
CONST	SEGMENT DWORD USE32 PUBLIC 'CONST'
CONST	ENDS
;	COMDAT ??_C@_0BE@FFPEJAKL@DPERR_INVALIDOBJECT?$AA@
CONST	SEGMENT DWORD USE32 PUBLIC 'CONST'
CONST	ENDS
;	COMDAT ??_C@_0BE@NINLPOPL@DPERR_INVALIDPARAMS?$AA@
CONST	SEGMENT DWORD USE32 PUBLIC 'CONST'
CONST	ENDS
;	COMDAT ??_C@_0BG@IOJGIAEJ@DPERR_INVALIDPASSWORD?$AA@
CONST	SEGMENT DWORD USE32 PUBLIC 'CONST'
CONST	ENDS
;	COMDAT ??_C@_0BE@MBKABPPO@DPERR_INVALIDPLAYER?$AA@
CONST	SEGMENT DWORD USE32 PUBLIC 'CONST'
CONST	ENDS
;	COMDAT ??_C@_0BG@NNHCHHOD@DPERR_INVALIDPRIORITY?$AA@
CONST	SEGMENT DWORD USE32 PUBLIC 'CONST'
CONST	ENDS
;	COMDAT ??_C@_0BC@MELIBBOO@DPERR_LOGONDENIED?$AA@
CONST	SEGMENT DWORD USE32 PUBLIC 'CONST'
CONST	ENDS
;	COMDAT ??_C@_0N@FAHDPIHF@DPERR_NOCAPS?$AA@
CONST	SEGMENT DWORD USE32 PUBLIC 'CONST'
CONST	ENDS
;	COMDAT ??_C@_0BD@KKENPFA@DPERR_NOCONNECTION?$AA@
CONST	SEGMENT DWORD USE32 PUBLIC 'CONST'
CONST	ENDS
;	COMDAT ??_C@_0BC@JMLMJBCI@DPERR_NOINTERFACE?$AA@
CONST	SEGMENT DWORD USE32 PUBLIC 'CONST'
CONST	ENDS
;	COMDAT ??_C@_0BB@HBLIJGDD@DPERR_NOMESSAGES?$AA@
CONST	SEGMENT DWORD USE32 PUBLIC 'CONST'
CONST	ENDS
;	COMDAT ??_C@_0BI@EIACNNBO@DPERR_NONAMESERVERFOUND?$AA@
CONST	SEGMENT DWORD USE32 PUBLIC 'CONST'
CONST	ENDS
;	COMDAT ??_C@_0BD@DOMEBGED@DPERR_NONEWPLAYERS?$AA@
CONST	SEGMENT DWORD USE32 PUBLIC 'CONST'
CONST	ENDS
;	COMDAT ??_C@_0BA@EOOCDAJ@DPERR_NOPLAYERS?$AA@
CONST	SEGMENT DWORD USE32 PUBLIC 'CONST'
CONST	ENDS
;	COMDAT ??_C@_0BB@OMCLIDBP@DPERR_NOSESSIONS?$AA@
CONST	SEGMENT DWORD USE32 PUBLIC 'CONST'
CONST	ENDS
;	COMDAT ??_C@_0BB@KEJMNHMD@DPERR_NOTLOBBIED?$AA@
CONST	SEGMENT DWORD USE32 PUBLIC 'CONST'
CONST	ENDS
;	COMDAT ??_C@_0BC@BLFCMKHF@DPERR_NOTLOGGEDIN?$AA@
CONST	SEGMENT DWORD USE32 PUBLIC 'CONST'
CONST	ENDS
;	COMDAT ??_C@_0BC@PBFFMHDJ@DPERR_OUTOFMEMORY?$AA@
CONST	SEGMENT DWORD USE32 PUBLIC 'CONST'
CONST	ENDS
;	COMDAT ??_C@_0BB@OLDMKIH@DPERR_PLAYERLOST?$AA@
CONST	SEGMENT DWORD USE32 PUBLIC 'CONST'
CONST	ENDS
;	COMDAT ??_C@_0BB@OIDGCPGB@DPERR_SENDTOOBIG?$AA@
CONST	SEGMENT DWORD USE32 PUBLIC 'CONST'
CONST	ENDS
;	COMDAT ??_C@_0BC@FDONMHBP@DPERR_SESSIONLOST?$AA@
CONST	SEGMENT DWORD USE32 PUBLIC 'CONST'
CONST	ENDS
;	COMDAT ??_C@_0BB@EIIKKBNP@DPERR_SIGNFAILED?$AA@
CONST	SEGMENT DWORD USE32 PUBLIC 'CONST'
CONST	ENDS
;	COMDAT ??_C@_0O@LDDOIKAJ@DPERR_TIMEOUT?$AA@
CONST	SEGMENT DWORD USE32 PUBLIC 'CONST'
CONST	ENDS
;	COMDAT ??_C@_0BC@EFJJKFJE@DPERR_UNAVAILABLE?$AA@
CONST	SEGMENT DWORD USE32 PUBLIC 'CONST'
CONST	ENDS
;	COMDAT ??_C@_0BE@LPMEIJMF@DPERR_UNINITIALIZED?$AA@
CONST	SEGMENT DWORD USE32 PUBLIC 'CONST'
CONST	ENDS
;	COMDAT ??_C@_0BJ@HLLJJGFA@DPERR_UNKNOWNAPPLICATION?$AA@
CONST	SEGMENT DWORD USE32 PUBLIC 'CONST'
CONST	ENDS
;	COMDAT ??_C@_0BF@IBEONKCK@DPERR_UNKNOWNMESSAGE?$AA@
CONST	SEGMENT DWORD USE32 PUBLIC 'CONST'
CONST	ENDS
;	COMDAT ??_C@_0BC@NPHELNFN@DPERR_UNSUPPORTED?$AA@
CONST	SEGMENT DWORD USE32 PUBLIC 'CONST'
CONST	ENDS
;	COMDAT ??_C@_0BB@OFPDBPLG@DPERR_USERCANCEL?$AA@
CONST	SEGMENT DWORD USE32 PUBLIC 'CONST'
CONST	ENDS
;	COMDAT ??_C@_05MBDEGLCK@ERROR?$AA@
CONST	SEGMENT DWORD USE32 PUBLIC 'CONST'
CONST	ENDS
;	COMDAT _IsEqualGUID
_TEXT	SEGMENT PARA USE32 PUBLIC 'CODE'
_TEXT	ENDS
;	COMDAT _==
_TEXT	SEGMENT PARA USE32 PUBLIC 'CODE'
_TEXT	ENDS
;	COMDAT _acosl
_TEXT	SEGMENT PARA USE32 PUBLIC 'CODE'
_TEXT	ENDS
;	COMDAT _asinl
_TEXT	SEGMENT PARA USE32 PUBLIC 'CODE'
_TEXT	ENDS
;	COMDAT _atanl
_TEXT	SEGMENT PARA USE32 PUBLIC 'CODE'
_TEXT	ENDS
;	COMDAT _atan2l
_TEXT	SEGMENT PARA USE32 PUBLIC 'CODE'
_TEXT	ENDS
;	COMDAT _ceill
_TEXT	SEGMENT PARA USE32 PUBLIC 'CODE'
_TEXT	ENDS
;	COMDAT _cosl
_TEXT	SEGMENT PARA USE32 PUBLIC 'CODE'
_TEXT	ENDS
;	COMDAT _coshl
_TEXT	SEGMENT PARA USE32 PUBLIC 'CODE'
_TEXT	ENDS
;	COMDAT _expl
_TEXT	SEGMENT PARA USE32 PUBLIC 'CODE'
_TEXT	ENDS
;	COMDAT _fabsl
_TEXT	SEGMENT PARA USE32 PUBLIC 'CODE'
_TEXT	ENDS
;	COMDAT _floorl
_TEXT	SEGMENT PARA USE32 PUBLIC 'CODE'
_TEXT	ENDS
;	COMDAT _fmodl
_TEXT	SEGMENT PARA USE32 PUBLIC 'CODE'
_TEXT	ENDS
;	COMDAT _frexpl
_TEXT	SEGMENT PARA USE32 PUBLIC 'CODE'
_TEXT	ENDS
;	COMDAT _ldexpl
_TEXT	SEGMENT PARA USE32 PUBLIC 'CODE'
_TEXT	ENDS
;	COMDAT _logl
_TEXT	SEGMENT PARA USE32 PUBLIC 'CODE'
_TEXT	ENDS
;	COMDAT _log10l
_TEXT	SEGMENT PARA USE32 PUBLIC 'CODE'
_TEXT	ENDS
;	COMDAT _modfl
_TEXT	SEGMENT PARA USE32 PUBLIC 'CODE'
_TEXT	ENDS
;	COMDAT _powl
_TEXT	SEGMENT PARA USE32 PUBLIC 'CODE'
_TEXT	ENDS
;	COMDAT _sinl
_TEXT	SEGMENT PARA USE32 PUBLIC 'CODE'
_TEXT	ENDS
;	COMDAT _sinhl
_TEXT	SEGMENT PARA USE32 PUBLIC 'CODE'
_TEXT	ENDS
;	COMDAT _sqrtl
_TEXT	SEGMENT PARA USE32 PUBLIC 'CODE'
_TEXT	ENDS
;	COMDAT _tanl
_TEXT	SEGMENT PARA USE32 PUBLIC 'CODE'
_TEXT	ENDS
;	COMDAT _tanhl
_TEXT	SEGMENT PARA USE32 PUBLIC 'CODE'
_TEXT	ENDS
;	COMDAT _frexpf
_TEXT	SEGMENT PARA USE32 PUBLIC 'CODE'
_TEXT	ENDS
;	COMDAT _ldexpf
_TEXT	SEGMENT PARA USE32 PUBLIC 'CODE'
_TEXT	ENDS
;	COMDAT _acosf
_TEXT	SEGMENT PARA USE32 PUBLIC 'CODE'
_TEXT	ENDS
;	COMDAT _asinf
_TEXT	SEGMENT PARA USE32 PUBLIC 'CODE'
_TEXT	ENDS
;	COMDAT _atanf
_TEXT	SEGMENT PARA USE32 PUBLIC 'CODE'
_TEXT	ENDS
;	COMDAT _atan2f
_TEXT	SEGMENT PARA USE32 PUBLIC 'CODE'
_TEXT	ENDS
;	COMDAT _ceilf
_TEXT	SEGMENT PARA USE32 PUBLIC 'CODE'
_TEXT	ENDS
;	COMDAT _cosf
_TEXT	SEGMENT PARA USE32 PUBLIC 'CODE'
_TEXT	ENDS
;	COMDAT _coshf
_TEXT	SEGMENT PARA USE32 PUBLIC 'CODE'
_TEXT	ENDS
;	COMDAT _expf
_TEXT	SEGMENT PARA USE32 PUBLIC 'CODE'
_TEXT	ENDS
;	COMDAT _fabsf
_TEXT	SEGMENT PARA USE32 PUBLIC 'CODE'
_TEXT	ENDS
;	COMDAT _floorf
_TEXT	SEGMENT PARA USE32 PUBLIC 'CODE'
_TEXT	ENDS
;	COMDAT _fmodf
_TEXT	SEGMENT PARA USE32 PUBLIC 'CODE'
_TEXT	ENDS
;	COMDAT _logf
_TEXT	SEGMENT PARA USE32 PUBLIC 'CODE'
_TEXT	ENDS
;	COMDAT _log10f
_TEXT	SEGMENT PARA USE32 PUBLIC 'CODE'
_TEXT	ENDS
;	COMDAT _modff
_TEXT	SEGMENT PARA USE32 PUBLIC 'CODE'
_TEXT	ENDS
;	COMDAT _powf
_TEXT	SEGMENT PARA USE32 PUBLIC 'CODE'
_TEXT	ENDS
;	COMDAT _sinf
_TEXT	SEGMENT PARA USE32 PUBLIC 'CODE'
_TEXT	ENDS
;	COMDAT _sinhf
_TEXT	SEGMENT PARA USE32 PUBLIC 'CODE'
_TEXT	ENDS
;	COMDAT _sqrtf
_TEXT	SEGMENT PARA USE32 PUBLIC 'CODE'
_TEXT	ENDS
;	COMDAT _tanf
_TEXT	SEGMENT PARA USE32 PUBLIC 'CODE'
_TEXT	ENDS
;	COMDAT _tanhf
_TEXT	SEGMENT PARA USE32 PUBLIC 'CODE'
_TEXT	ENDS
;	COMDAT ??$_Pow_int@N@@YANNH@Z
_TEXT	SEGMENT PARA USE32 PUBLIC 'CODE'
_TEXT	ENDS
;	COMDAT ??$_Pow_int@H@@YAHHH@Z
_TEXT	SEGMENT PARA USE32 PUBLIC 'CODE'
_TEXT	ENDS
;	COMDAT ??$_Pow_int@M@@YAMMH@Z
_TEXT	SEGMENT PARA USE32 PUBLIC 'CODE'
_TEXT	ENDS
;	COMDAT ??$_Pow_int@O@@YAOOH@Z
_TEXT	SEGMENT PARA USE32 PUBLIC 'CODE'
_TEXT	ENDS
sxdata	SEGMENT DWORD USE32 'SXDATA'
sxdata	ENDS
FLAT	GROUP _DATA, CONST, _BSS
	ASSUME	CS: FLAT, DS: FLAT, SS: FLAT
endif

INCLUDELIB LIBCD
INCLUDELIB OLDNAMES

PUBLIC	??_C@_0BF@BDDJLJGA@DDERR_REGIONTOOSMALL?$AA@	; `string'
PUBLIC	??_C@_0BJ@BOEHMDDM@DDERR_CLIPPERISUSINGHWND?$AA@ ; `string'
PUBLIC	??_C@_0BI@BGMBBEJL@DDERR_NOCLIPPERATTACHED?$AA@	; `string'
PUBLIC	??_C@_0N@EOPEBNEI@DDERR_NOHWND?$AA@		; `string'
PUBLIC	??_C@_0BF@MAFLBECE@DDERR_HWNDSUBCLASSED?$AA@	; `string'
PUBLIC	??_C@_0BF@LGLNHCHJ@DDERR_HWNDALREADYSET?$AA@	; `string'
PUBLIC	??_C@_0BI@KBKHCNLK@DDERR_NOPALETTEATTACHED?$AA@	; `string'
PUBLIC	??_C@_0BC@GEADEPGN@DDERR_NOPALETTEHW?$AA@	; `string'
PUBLIC	??_C@_0BG@HLNKGEOE@DDERR_BLTFASTCANTCLIP?$AA@	; `string'
PUBLIC	??_C@_0O@NKGDNEG@DDERR_NOBLTHW?$AA@		; `string'
PUBLIC	??_C@_0BB@BPILLDBG@DDERR_NODDROPSHW?$AA@	; `string'
PUBLIC	??_C@_0BI@CLLMFLGN@DDERR_OVERLAYNOTVISIBLE?$AA@	; `string'
PUBLIC	??_C@_0BE@JKKEKLOE@DDERR_NOOVERLAYDEST?$AA@	; `string'
PUBLIC	??_C@_0BG@OMJGFIHE@DDERR_INVALIDPOSITION?$AA@	; `string'
PUBLIC	??_C@_0BJ@LGNAEONK@DDERR_NOTAOVERLAYSURFACE?$AA@ ; `string'
PUBLIC	??_C@_0BO@GMCKLDPA@DDERR_EXCLUSIVEMODEALREADYSET?$AA@ ; `string'
PUBLIC	??_C@_0BD@FOFDLEGO@DDERR_NOTFLIPPABLE?$AA@	; `string'
PUBLIC	??_C@_0BE@LNBDBNLL@DDERR_CANTDUPLICATE?$AA@	; `string'
PUBLIC	??_C@_0BA@KCNFHPNM@DDERR_NOTLOCKED?$AA@		; `string'
PUBLIC	??_C@_0BD@PBNGJMBK@DDERR_CANTCREATEDC?$AA@	; `string'
PUBLIC	??_C@_0L@CHFPOEHC@DDERR_NODC?$AA@		; `string'
PUBLIC	??_C@_0BA@FGHHLMKB@DDERR_WRONGMODE?$AA@		; `string'
PUBLIC	??_C@_0BI@NLHHKHEN@DDERR_IMPLICITLYCREATED?$AA@	; `string'
PUBLIC	??_C@_0BE@FGMGOELL@DDERR_NOTPALETTIZED?$AA@	; `string'
PUBLIC	??_C@_0BG@GJEKJFBD@DDERR_UNSUPPORTEDMODE?$AA@	; `string'
PUBLIC	??_C@_0BB@LNEPLBGC@DDERR_NOMIPMAPHW?$AA@	; `string'
PUBLIC	??_C@_0BJ@HPBNNCIB@DDERR_INVALIDSURFACETYPE?$AA@ ; `string'
PUBLIC	??_C@_0BH@BBAKKFGG@DDERR_DCALREADYCREATED?$AA@	; `string'
PUBLIC	??_C@_0BD@GIBKCHPD@DDERR_CANTPAGELOCK?$AA@	; `string'
PUBLIC	??_C@_0BF@MPOCMAGG@DDERR_CANTPAGEUNLOCK?$AA@	; `string'
PUBLIC	??_C@_0BE@ELKGHCMM@DDERR_NOTPAGELOCKED?$AA@	; `string'
PUBLIC	??_C@_0BF@DLEGFOLA@DDERR_NOTINITIALIZED?$AA@	; `string'
PUBLIC	??_C@_0BA@ECKDOBJD@DSERR_BADFORMAT?$AA@		; `string'
PUBLIC	??_C@_0BC@NMCDDLDP@DSERR_INVALIDCALL?$AA@	; `string'
PUBLIC	??_C@_0BD@MODBPMIE@DSERR_INVALIDPARAM?$AA@	; `string'
PUBLIC	??_C@_0BC@KCMPJMLN@DSERR_OUTOFMEMORY?$AA@	; `string'
PUBLIC	??_C@_0BG@FGFOLLAI@DSERR_PRIOLEVELNEEDED?$AA@	; `string'
PUBLIC	??_C@_0BC@IMOOOGNJ@DSERR_UNSUPPORTED?$AA@	; `string'
PUBLIC	??_C@_0BD@CIMLFMCH@DPERR_ACCESSDENIED?$AA@	; `string'
PUBLIC	??_C@_0BE@JLKJJGDM@DPERR_ACTIVEPLAYERS?$AA@	; `string'
PUBLIC	??_C@_0BJ@KGCFELPH@DPERR_ALREADYINITIALIZED?$AA@ ; `string'
PUBLIC	??_C@_0BE@IBHIGLAG@DPERR_APPNOTSTARTED?$AA@	; `string'
PUBLIC	??_C@_0BL@BNFGMJL@DPERR_AUTHENTICATIONFAILED?$AA@ ; `string'
PUBLIC	??_C@_0BF@EHLGNELP@DPERR_BUFFERTOOLARGE?$AA@	; `string'
PUBLIC	??_C@_0BF@OPPNCFCJ@DPERR_BUFFERTOOSMALL?$AA@	; `string'
PUBLIC	??_C@_0L@FKAKNADE@DPERR_BUSY?$AA@		; `string'
PUBLIC	??_C@_0BD@JBJHCNNC@DPERR_CANCELFAILED?$AA@	; `string'
PUBLIC	??_C@_0BE@OFODIPDM@DPERR_CANTADDPLAYER?$AA@	; `string'
PUBLIC	??_C@_0BG@DCEHLHAP@DPERR_CANTCREATEGROUP?$AA@	; `string'
PUBLIC	??_C@_0BH@GMKOMEBJ@DPERR_CANTCREATEPLAYER?$AA@	; `string'
PUBLIC	??_C@_0BI@NDOIGLGE@DPERR_CANTCREATEPROCESS?$AA@	; `string'
PUBLIC	??_C@_0BI@ELGMBCBF@DPERR_CANTCREATESESSION?$AA@	; `string'
PUBLIC	??_C@_0BD@PEDKHGGM@DPERR_CANTLOADCAPI?$AA@	; `string'
PUBLIC	??_C@_0BO@OABPENJN@DPERR_CANTLOADSECURITYPACKAGE?$AA@ ; `string'
PUBLIC	??_C@_0BD@GOMKHOPK@DPERR_CANTLOADSSPI?$AA@	; `string'
PUBLIC	??_C@_0BK@NJEEEGOO@DPERR_CAPSNOTAVAILABLEYET?$AA@ ; `string'
PUBLIC	??_C@_0BB@LDDHAHLN@DPERR_CONNECTING?$AA@	; `string'
PUBLIC	??_C@_0BH@NPDAALGG@DPERR_ENCRYPTIONFAILED?$AA@	; `string'
PUBLIC	??_C@_0BA@MCFNHCFF@DPERR_EXCEPTION?$AA@		; `string'
PUBLIC	??_C@_0O@LCPCPFNL@DPERR_GENERIC?$AA@		; `string'
PUBLIC	??_C@_0BD@JLMILPMN@DPERR_INVALIDFLAGS?$AA@	; `string'
PUBLIC	??_C@_0BD@FLBEBGGF@DPERR_INVALIDGROUP?$AA@	; `string'
PUBLIC	??_C@_0BH@JCHHAMNM@DPERR_INVALIDINTERFACE?$AA@	; `string'
PUBLIC	??_C@_0BE@FFPEJAKL@DPERR_INVALIDOBJECT?$AA@	; `string'
PUBLIC	??_C@_0BE@NINLPOPL@DPERR_INVALIDPARAMS?$AA@	; `string'
PUBLIC	??_C@_0BG@IOJGIAEJ@DPERR_INVALIDPASSWORD?$AA@	; `string'
PUBLIC	??_C@_0BE@MBKABPPO@DPERR_INVALIDPLAYER?$AA@	; `string'
PUBLIC	??_C@_0BG@NNHCHHOD@DPERR_INVALIDPRIORITY?$AA@	; `string'
PUBLIC	??_C@_0BC@MELIBBOO@DPERR_LOGONDENIED?$AA@	; `string'
PUBLIC	??_C@_0N@FAHDPIHF@DPERR_NOCAPS?$AA@		; `string'
PUBLIC	??_C@_0BD@KKENPFA@DPERR_NOCONNECTION?$AA@	; `string'
PUBLIC	??_C@_0BC@JMLMJBCI@DPERR_NOINTERFACE?$AA@	; `string'
PUBLIC	??_C@_0BB@HBLIJGDD@DPERR_NOMESSAGES?$AA@	; `string'
PUBLIC	??_C@_0BI@EIACNNBO@DPERR_NONAMESERVERFOUND?$AA@	; `string'
PUBLIC	??_C@_0BD@DOMEBGED@DPERR_NONEWPLAYERS?$AA@	; `string'
PUBLIC	??_C@_0BA@EOOCDAJ@DPERR_NOPLAYERS?$AA@		; `string'
PUBLIC	??_C@_0BB@OMCLIDBP@DPERR_NOSESSIONS?$AA@	; `string'
PUBLIC	??_C@_0BB@KEJMNHMD@DPERR_NOTLOBBIED?$AA@	; `string'
PUBLIC	??_C@_0BC@BLFCMKHF@DPERR_NOTLOGGEDIN?$AA@	; `string'
PUBLIC	??_C@_0BC@PBFFMHDJ@DPERR_OUTOFMEMORY?$AA@	; `string'
PUBLIC	??_C@_0BB@OLDMKIH@DPERR_PLAYERLOST?$AA@		; `string'
PUBLIC	??_C@_0BB@OIDGCPGB@DPERR_SENDTOOBIG?$AA@	; `string'
PUBLIC	??_C@_0BC@FDONMHBP@DPERR_SESSIONLOST?$AA@	; `string'
PUBLIC	??_C@_0BB@EIIKKBNP@DPERR_SIGNFAILED?$AA@	; `string'
PUBLIC	??_C@_0O@LDDOIKAJ@DPERR_TIMEOUT?$AA@		; `string'
PUBLIC	??_C@_0BC@EFJJKFJE@DPERR_UNAVAILABLE?$AA@	; `string'
PUBLIC	??_C@_0BE@LPMEIJMF@DPERR_UNINITIALIZED?$AA@	; `string'
PUBLIC	??_C@_0BJ@HLLJJGFA@DPERR_UNKNOWNAPPLICATION?$AA@ ; `string'
PUBLIC	??_C@_0BF@IBEONKCK@DPERR_UNKNOWNMESSAGE?$AA@	; `string'
PUBLIC	??_C@_0BC@NPHELNFN@DPERR_UNSUPPORTED?$AA@	; `string'
PUBLIC	??_C@_0BB@OFPDBPLG@DPERR_USERCANCEL?$AA@	; `string'
PUBLIC	??_C@_05MBDEGLCK@ERROR?$AA@			; `string'
PUBLIC	?ErrorListDX@@3PAUERRORDX@@A			; ErrorListDX
PUBLIC	??_C@_0BJ@LAEIKKJF@DDERR_ALREADYINITIALIZED?$AA@ ; `string'
PUBLIC	??_C@_0BK@LBNPECMI@DDERR_CANNOTATTACHSURFACE?$AA@ ; `string'
PUBLIC	??_C@_0BK@FMONFDPK@DDERR_CANNOTDETACHSURFACE?$AA@ ; `string'
PUBLIC	??_C@_0BI@CPFFLGJD@DDERR_CURRENTLYNOTAVAIL?$AA@	; `string'
PUBLIC	??_C@_0BA@MEDIIHJ@DDERR_EXCEPTION?$AA@		; `string'
PUBLIC	??_C@_0O@MGEMDJJH@DDERR_GENERIC?$AA@		; `string'
PUBLIC	??_C@_0BC@FNNCOGNH@DDERR_HEIGHTALIGN?$AA@	; `string'
PUBLIC	??_C@_0BK@HJOPGIGH@DDERR_INCOMPATIBLEPRIMARY?$AA@ ; `string'
PUBLIC	??_C@_0BC@DDIGIKID@DDERR_INVALIDCAPS?$AA@	; `string'
PUBLIC	??_C@_0BG@OFKCMNHM@DDERR_INVALIDCLIPLIST?$AA@	; `string'
PUBLIC	??_C@_0BC@GLNOPNKK@DDERR_INVALIDMODE?$AA@	; `string'
PUBLIC	??_C@_0BE@KPNOKGED@DDERR_INVALIDOBJECT?$AA@	; `string'
PUBLIC	??_C@_0BE@CCPBMIBD@DDERR_INVALIDPARAMS?$AA@	; `string'
PUBLIC	??_C@_0BJ@PEGADMFO@DDERR_INVALIDPIXELFORMAT?$AA@ ; `string'
PUBLIC	??_C@_0BC@LAEFCIAI@DDERR_INVALIDRECT?$AA@	; `string'
PUBLIC	??_C@_0BF@MAGKOGBC@DDERR_LOCKEDSURFACES?$AA@	; `string'
PUBLIC	??_C@_0L@DJKAAMGA@DDERR_NO3D?$AA@		; `string'
PUBLIC	??_C@_0BA@BFFEPDGJ@DDERR_NOALPHAHW?$AA@		; `string'
PUBLIC	??_C@_0BB@JOLMGPDK@DDERR_NOCLIPLIST?$AA@	; `string'
PUBLIC	??_C@_0BE@PDOMLOPD@DDERR_NOCOLORCONVHW?$AA@	; `string'
PUBLIC	??_C@_0BM@PMEMMDPI@DDERR_NOCOOPERATIVELEVELSET?$AA@ ; `string'
PUBLIC	??_C@_0BB@GIFHLHNH@DDERR_NOCOLORKEY?$AA@	; `string'
PUBLIC	??_C@_0BD@BAAPAKEL@DDERR_NOCOLORKEYHW?$AA@	; `string'
PUBLIC	??_C@_0BK@BCHEFLBM@DDERR_NODIRECTDRAWSUPPORT?$AA@ ; `string'
PUBLIC	??_C@_0BG@DHFIFBBC@DDERR_NOEXCLUSIVEMODE?$AA@	; `string'
PUBLIC	??_C@_0P@IEKAGFBG@DDERR_NOFLIPHW?$AA@		; `string'
PUBLIC	??_C@_0M@IIGNACND@DDERR_NOGDI?$AA@		; `string'
PUBLIC	??_C@_0BB@MNGJGGOP@DDERR_NOMIRRORHW?$AA@	; `string'
PUBLIC	??_C@_0P@IIGPDCF@DDERR_NOTFOUND?$AA@		; `string'
PUBLIC	??_C@_0BC@JKHLHDPI@DDERR_NOOVERLAYHW?$AA@	; `string'
PUBLIC	??_C@_0BD@ICAOCHBG@DDERR_NORASTEROPHW?$AA@	; `string'
PUBLIC	??_C@_0BD@NEIDAAKN@DDERR_NOROTATIONHW?$AA@	; `string'
PUBLIC	??_C@_0BC@CAPIEDAG@DDERR_NOSTRETCHHW?$AA@	; `string'
PUBLIC	??_C@_0BD@ENAKJNOC@DDERR_NOT4BITCOLOR?$AA@	; `string'
PUBLIC	??_C@_0BI@IKKPPDMJ@DDERR_NOT4BITCOLORINDEX?$AA@	; `string'
PUBLIC	??_C@_0BD@FHDGHNGM@DDERR_NOT8BITCOLOR?$AA@	; `string'
PUBLIC	??_C@_0BC@ENEADALF@DDERR_NOTEXTUREHW?$AA@	; `string'
PUBLIC	??_C@_0BA@PAPKELJP@DDERR_NOVSYNCHW?$AA@		; `string'
PUBLIC	??_C@_0BC@MGOAKBHI@DDERR_NOZBUFFERHW?$AA@	; `string'
PUBLIC	??_C@_0BD@IFBPLCFK@DDERR_NOZOVERLAYHW?$AA@	; `string'
PUBLIC	??_C@_0BA@BCMNJCDB@DDERR_OUTOFCAPS?$AA@		; `string'
PUBLIC	??_C@_0BC@JFAMHJIL@DDERR_OUTOFMEMORY?$AA@	; `string'
PUBLIC	??_C@_0BH@IHGJFMGH@DDERR_OUTOFVIDEOMEMORY?$AA@	; `string'
PUBLIC	??_C@_0BG@EDDFCCOG@DDERR_OVERLAYCANTCLIP?$AA@	; `string'
PUBLIC	??_C@_0CD@JNABKIAN@DDERR_OVERLAYCOLORKEYONLYONEACTI@ ; `string'
PUBLIC	??_C@_0BC@CEBGFCJL@DDERR_PALETTEBUSY?$AA@	; `string'
PUBLIC	??_C@_0BF@HOAOBBGM@DDERR_COLORKEYNOTSET?$AA@	; `string'
PUBLIC	??_C@_0BN@DLNFLDJF@DDERR_SURFACEALREADYATTACHED?$AA@ ; `string'
PUBLIC	??_C@_0BO@HOHOGLO@DDERR_SURFACEALREADYDEPENDENT?$AA@ ; `string'
PUBLIC	??_C@_0BC@NLGPCHLD@DDERR_SURFACEBUSY?$AA@	; `string'
PUBLIC	??_C@_0BG@IADNDEGE@DDERR_CANTLOCKSURFACE?$AA@	; `string'
PUBLIC	??_C@_0BI@KAHOANAA@DDERR_SURFACEISOBSCURED?$AA@	; `string'
PUBLIC	??_C@_0BC@OOFFFAGE@DDERR_SURFACELOST?$AA@	; `string'
PUBLIC	??_C@_0BJ@DMNBOKFJ@DDERR_SURFACENOTATTACHED?$AA@ ; `string'
PUBLIC	??_C@_0BD@FPHOLBKE@DDERR_TOOBIGHEIGHT?$AA@	; `string'
PUBLIC	??_C@_0BB@IBDADILM@DDERR_TOOBIGSIZE?$AA@	; `string'
PUBLIC	??_C@_0BC@MMEFKBGP@DDERR_TOOBIGWIDTH?$AA@	; `string'
PUBLIC	??_C@_0BC@LLCNADOP@DDERR_UNSUPPORTED?$AA@	; `string'
PUBLIC	??_C@_0BI@GGBGCOID@DDERR_UNSUPPORTEDFORMAT?$AA@	; `string'
PUBLIC	??_C@_0BG@OHPHKFL@DDERR_UNSUPPORTEDMASK?$AA@	; `string'
PUBLIC	??_C@_0BO@CKEGAAHC@DDERR_VERTICALBLANKINPROGRESS?$AA@ ; `string'
PUBLIC	??_C@_0BG@PNJKHKJC@DDERR_WASSTILLDRAWING?$AA@	; `string'
PUBLIC	??_C@_0N@MAIIIAKF@DDERR_XALIGN?$AA@		; `string'
PUBLIC	??_C@_0BM@LMDGBJFD@DDERR_INVALIDDIRECTDRAWGUID?$AA@ ; `string'
PUBLIC	??_C@_0BP@CFDPGCFK@DDERR_DIRECTDRAWALREADYCREATED?$AA@ ; `string'
PUBLIC	??_C@_0BF@NOEHEIDL@DDERR_NODIRECTDRAWHW?$AA@	; `string'
PUBLIC	??_C@_0CC@FKFBEMJC@DDERR_PRIMARYSURFACEALREADYEXIST@ ; `string'
PUBLIC	??_C@_0BC@DCFOAKAL@DDERR_NOEMULATION?$AA@	; `string'
;	COMDAT ??_C@_0BJ@LAEIKKJF@DDERR_ALREADYINITIALIZED?$AA@
CONST	SEGMENT
??_C@_0BJ@LAEIKKJF@DDERR_ALREADYINITIALIZED?$AA@ DB 'DDERR_ALREADYINITIAL'
	DB	'IZED', 00H					; `string'
CONST	ENDS
;	COMDAT ??_C@_0BK@LBNPECMI@DDERR_CANNOTATTACHSURFACE?$AA@
CONST	SEGMENT
??_C@_0BK@LBNPECMI@DDERR_CANNOTATTACHSURFACE?$AA@ DB 'DDERR_CANNOTATTACHS'
	DB	'URFACE', 00H				; `string'
CONST	ENDS
;	COMDAT ??_C@_0BK@FMONFDPK@DDERR_CANNOTDETACHSURFACE?$AA@
CONST	SEGMENT
??_C@_0BK@FMONFDPK@DDERR_CANNOTDETACHSURFACE?$AA@ DB 'DDERR_CANNOTDETACHS'
	DB	'URFACE', 00H				; `string'
CONST	ENDS
;	COMDAT ??_C@_0BI@CPFFLGJD@DDERR_CURRENTLYNOTAVAIL?$AA@
CONST	SEGMENT
??_C@_0BI@CPFFLGJD@DDERR_CURRENTLYNOTAVAIL?$AA@ DB 'DDERR_CURRENTLYNOTAVA'
	DB	'IL', 00H					; `string'
CONST	ENDS
;	COMDAT ??_C@_0BA@MEDIIHJ@DDERR_EXCEPTION?$AA@
CONST	SEGMENT
??_C@_0BA@MEDIIHJ@DDERR_EXCEPTION?$AA@ DB 'DDERR_EXCEPTION', 00H ; `string'
CONST	ENDS
;	COMDAT ??_C@_0O@MGEMDJJH@DDERR_GENERIC?$AA@
CONST	SEGMENT
??_C@_0O@MGEMDJJH@DDERR_GENERIC?$AA@ DB 'DDERR_GENERIC', 00H ; `string'
CONST	ENDS
;	COMDAT ??_C@_0BC@FNNCOGNH@DDERR_HEIGHTALIGN?$AA@
CONST	SEGMENT
??_C@_0BC@FNNCOGNH@DDERR_HEIGHTALIGN?$AA@ DB 'DDERR_HEIGHTALIGN', 00H ; `string'
CONST	ENDS
;	COMDAT ??_C@_0BK@HJOPGIGH@DDERR_INCOMPATIBLEPRIMARY?$AA@
CONST	SEGMENT
??_C@_0BK@HJOPGIGH@DDERR_INCOMPATIBLEPRIMARY?$AA@ DB 'DDERR_INCOMPATIBLEP'
	DB	'RIMARY', 00H				; `string'
CONST	ENDS
;	COMDAT ??_C@_0BC@DDIGIKID@DDERR_INVALIDCAPS?$AA@
CONST	SEGMENT
??_C@_0BC@DDIGIKID@DDERR_INVALIDCAPS?$AA@ DB 'DDERR_INVALIDCAPS', 00H ; `string'
CONST	ENDS
;	COMDAT ??_C@_0BG@OFKCMNHM@DDERR_INVALIDCLIPLIST?$AA@
CONST	SEGMENT
??_C@_0BG@OFKCMNHM@DDERR_INVALIDCLIPLIST?$AA@ DB 'DDERR_INVALIDCLIPLIST', 00H ; `string'
CONST	ENDS
;	COMDAT ??_C@_0BC@GLNOPNKK@DDERR_INVALIDMODE?$AA@
CONST	SEGMENT
??_C@_0BC@GLNOPNKK@DDERR_INVALIDMODE?$AA@ DB 'DDERR_INVALIDMODE', 00H ; `string'
CONST	ENDS
;	COMDAT ??_C@_0BE@KPNOKGED@DDERR_INVALIDOBJECT?$AA@
CONST	SEGMENT
??_C@_0BE@KPNOKGED@DDERR_INVALIDOBJECT?$AA@ DB 'DDERR_INVALIDOBJECT', 00H ; `string'
CONST	ENDS
;	COMDAT ??_C@_0BE@CCPBMIBD@DDERR_INVALIDPARAMS?$AA@
CONST	SEGMENT
??_C@_0BE@CCPBMIBD@DDERR_INVALIDPARAMS?$AA@ DB 'DDERR_INVALIDPARAMS', 00H ; `string'
CONST	ENDS
;	COMDAT ??_C@_0BJ@PEGADMFO@DDERR_INVALIDPIXELFORMAT?$AA@
CONST	SEGMENT
??_C@_0BJ@PEGADMFO@DDERR_INVALIDPIXELFORMAT?$AA@ DB 'DDERR_INVALIDPIXELFO'
	DB	'RMAT', 00H					; `string'
CONST	ENDS
;	COMDAT ??_C@_0BC@LAEFCIAI@DDERR_INVALIDRECT?$AA@
CONST	SEGMENT
??_C@_0BC@LAEFCIAI@DDERR_INVALIDRECT?$AA@ DB 'DDERR_INVALIDRECT', 00H ; `string'
CONST	ENDS
;	COMDAT ??_C@_0BF@MAGKOGBC@DDERR_LOCKEDSURFACES?$AA@
CONST	SEGMENT
??_C@_0BF@MAGKOGBC@DDERR_LOCKEDSURFACES?$AA@ DB 'DDERR_LOCKEDSURFACES', 00H ; `string'
CONST	ENDS
;	COMDAT ??_C@_0L@DJKAAMGA@DDERR_NO3D?$AA@
CONST	SEGMENT
??_C@_0L@DJKAAMGA@DDERR_NO3D?$AA@ DB 'DDERR_NO3D', 00H	; `string'
CONST	ENDS
;	COMDAT ??_C@_0BA@BFFEPDGJ@DDERR_NOALPHAHW?$AA@
CONST	SEGMENT
??_C@_0BA@BFFEPDGJ@DDERR_NOALPHAHW?$AA@ DB 'DDERR_NOALPHAHW', 00H ; `string'
CONST	ENDS
;	COMDAT ??_C@_0BB@JOLMGPDK@DDERR_NOCLIPLIST?$AA@
CONST	SEGMENT
??_C@_0BB@JOLMGPDK@DDERR_NOCLIPLIST?$AA@ DB 'DDERR_NOCLIPLIST', 00H ; `string'
CONST	ENDS
;	COMDAT ??_C@_0BE@PDOMLOPD@DDERR_NOCOLORCONVHW?$AA@
CONST	SEGMENT
??_C@_0BE@PDOMLOPD@DDERR_NOCOLORCONVHW?$AA@ DB 'DDERR_NOCOLORCONVHW', 00H ; `string'
CONST	ENDS
;	COMDAT ??_C@_0BM@PMEMMDPI@DDERR_NOCOOPERATIVELEVELSET?$AA@
CONST	SEGMENT
??_C@_0BM@PMEMMDPI@DDERR_NOCOOPERATIVELEVELSET?$AA@ DB 'DDERR_NOCOOPERATI'
	DB	'VELEVELSET', 00H				; `string'
CONST	ENDS
;	COMDAT ??_C@_0BB@GIFHLHNH@DDERR_NOCOLORKEY?$AA@
CONST	SEGMENT
??_C@_0BB@GIFHLHNH@DDERR_NOCOLORKEY?$AA@ DB 'DDERR_NOCOLORKEY', 00H ; `string'
CONST	ENDS
;	COMDAT ??_C@_0BD@BAAPAKEL@DDERR_NOCOLORKEYHW?$AA@
CONST	SEGMENT
??_C@_0BD@BAAPAKEL@DDERR_NOCOLORKEYHW?$AA@ DB 'DDERR_NOCOLORKEYHW', 00H ; `string'
CONST	ENDS
;	COMDAT ??_C@_0BK@BCHEFLBM@DDERR_NODIRECTDRAWSUPPORT?$AA@
CONST	SEGMENT
??_C@_0BK@BCHEFLBM@DDERR_NODIRECTDRAWSUPPORT?$AA@ DB 'DDERR_NODIRECTDRAWS'
	DB	'UPPORT', 00H				; `string'
CONST	ENDS
;	COMDAT ??_C@_0BG@DHFIFBBC@DDERR_NOEXCLUSIVEMODE?$AA@
CONST	SEGMENT
??_C@_0BG@DHFIFBBC@DDERR_NOEXCLUSIVEMODE?$AA@ DB 'DDERR_NOEXCLUSIVEMODE', 00H ; `string'
CONST	ENDS
;	COMDAT ??_C@_0P@IEKAGFBG@DDERR_NOFLIPHW?$AA@
CONST	SEGMENT
??_C@_0P@IEKAGFBG@DDERR_NOFLIPHW?$AA@ DB 'DDERR_NOFLIPHW', 00H ; `string'
CONST	ENDS
;	COMDAT ??_C@_0M@IIGNACND@DDERR_NOGDI?$AA@
CONST	SEGMENT
??_C@_0M@IIGNACND@DDERR_NOGDI?$AA@ DB 'DDERR_NOGDI', 00H ; `string'
CONST	ENDS
;	COMDAT ??_C@_0BB@MNGJGGOP@DDERR_NOMIRRORHW?$AA@
CONST	SEGMENT
??_C@_0BB@MNGJGGOP@DDERR_NOMIRRORHW?$AA@ DB 'DDERR_NOMIRRORHW', 00H ; `string'
CONST	ENDS
;	COMDAT ??_C@_0P@IIGPDCF@DDERR_NOTFOUND?$AA@
CONST	SEGMENT
??_C@_0P@IIGPDCF@DDERR_NOTFOUND?$AA@ DB 'DDERR_NOTFOUND', 00H ; `string'
CONST	ENDS
;	COMDAT ??_C@_0BC@JKHLHDPI@DDERR_NOOVERLAYHW?$AA@
CONST	SEGMENT
??_C@_0BC@JKHLHDPI@DDERR_NOOVERLAYHW?$AA@ DB 'DDERR_NOOVERLAYHW', 00H ; `string'
CONST	ENDS
;	COMDAT ??_C@_0BD@ICAOCHBG@DDERR_NORASTEROPHW?$AA@
CONST	SEGMENT
??_C@_0BD@ICAOCHBG@DDERR_NORASTEROPHW?$AA@ DB 'DDERR_NORASTEROPHW', 00H ; `string'
CONST	ENDS
;	COMDAT ??_C@_0BD@NEIDAAKN@DDERR_NOROTATIONHW?$AA@
CONST	SEGMENT
??_C@_0BD@NEIDAAKN@DDERR_NOROTATIONHW?$AA@ DB 'DDERR_NOROTATIONHW', 00H ; `string'
CONST	ENDS
;	COMDAT ??_C@_0BC@CAPIEDAG@DDERR_NOSTRETCHHW?$AA@
CONST	SEGMENT
??_C@_0BC@CAPIEDAG@DDERR_NOSTRETCHHW?$AA@ DB 'DDERR_NOSTRETCHHW', 00H ; `string'
CONST	ENDS
;	COMDAT ??_C@_0BD@ENAKJNOC@DDERR_NOT4BITCOLOR?$AA@
CONST	SEGMENT
??_C@_0BD@ENAKJNOC@DDERR_NOT4BITCOLOR?$AA@ DB 'DDERR_NOT4BITCOLOR', 00H ; `string'
CONST	ENDS
;	COMDAT ??_C@_0BI@IKKPPDMJ@DDERR_NOT4BITCOLORINDEX?$AA@
CONST	SEGMENT
??_C@_0BI@IKKPPDMJ@DDERR_NOT4BITCOLORINDEX?$AA@ DB 'DDERR_NOT4BITCOLORIND'
	DB	'EX', 00H					; `string'
CONST	ENDS
;	COMDAT ??_C@_0BD@FHDGHNGM@DDERR_NOT8BITCOLOR?$AA@
CONST	SEGMENT
??_C@_0BD@FHDGHNGM@DDERR_NOT8BITCOLOR?$AA@ DB 'DDERR_NOT8BITCOLOR', 00H ; `string'
CONST	ENDS
;	COMDAT ??_C@_0BC@ENEADALF@DDERR_NOTEXTUREHW?$AA@
CONST	SEGMENT
??_C@_0BC@ENEADALF@DDERR_NOTEXTUREHW?$AA@ DB 'DDERR_NOTEXTUREHW', 00H ; `string'
CONST	ENDS
;	COMDAT ??_C@_0BA@PAPKELJP@DDERR_NOVSYNCHW?$AA@
CONST	SEGMENT
??_C@_0BA@PAPKELJP@DDERR_NOVSYNCHW?$AA@ DB 'DDERR_NOVSYNCHW', 00H ; `string'
CONST	ENDS
;	COMDAT ??_C@_0BC@MGOAKBHI@DDERR_NOZBUFFERHW?$AA@
CONST	SEGMENT
??_C@_0BC@MGOAKBHI@DDERR_NOZBUFFERHW?$AA@ DB 'DDERR_NOZBUFFERHW', 00H ; `string'
CONST	ENDS
;	COMDAT ??_C@_0BD@IFBPLCFK@DDERR_NOZOVERLAYHW?$AA@
CONST	SEGMENT
??_C@_0BD@IFBPLCFK@DDERR_NOZOVERLAYHW?$AA@ DB 'DDERR_NOZOVERLAYHW', 00H ; `string'
CONST	ENDS
;	COMDAT ??_C@_0BA@BCMNJCDB@DDERR_OUTOFCAPS?$AA@
CONST	SEGMENT
??_C@_0BA@BCMNJCDB@DDERR_OUTOFCAPS?$AA@ DB 'DDERR_OUTOFCAPS', 00H ; `string'
CONST	ENDS
;	COMDAT ??_C@_0BC@JFAMHJIL@DDERR_OUTOFMEMORY?$AA@
CONST	SEGMENT
??_C@_0BC@JFAMHJIL@DDERR_OUTOFMEMORY?$AA@ DB 'DDERR_OUTOFMEMORY', 00H ; `string'
CONST	ENDS
;	COMDAT ??_C@_0BH@IHGJFMGH@DDERR_OUTOFVIDEOMEMORY?$AA@
CONST	SEGMENT
??_C@_0BH@IHGJFMGH@DDERR_OUTOFVIDEOMEMORY?$AA@ DB 'DDERR_OUTOFVIDEOMEMORY'
	DB	00H						; `string'
CONST	ENDS
;	COMDAT ??_C@_0BG@EDDFCCOG@DDERR_OVERLAYCANTCLIP?$AA@
CONST	SEGMENT
??_C@_0BG@EDDFCCOG@DDERR_OVERLAYCANTCLIP?$AA@ DB 'DDERR_OVERLAYCANTCLIP', 00H ; `string'
CONST	ENDS
;	COMDAT ??_C@_0CD@JNABKIAN@DDERR_OVERLAYCOLORKEYONLYONEACTI@
CONST	SEGMENT
??_C@_0CD@JNABKIAN@DDERR_OVERLAYCOLORKEYONLYONEACTI@ DB 'DDERR_OVERLAYCOL'
	DB	'ORKEYONLYONEACTIVE', 00H			; `string'
CONST	ENDS
;	COMDAT ??_C@_0BC@CEBGFCJL@DDERR_PALETTEBUSY?$AA@
CONST	SEGMENT
??_C@_0BC@CEBGFCJL@DDERR_PALETTEBUSY?$AA@ DB 'DDERR_PALETTEBUSY', 00H ; `string'
CONST	ENDS
;	COMDAT ??_C@_0BF@HOAOBBGM@DDERR_COLORKEYNOTSET?$AA@
CONST	SEGMENT
??_C@_0BF@HOAOBBGM@DDERR_COLORKEYNOTSET?$AA@ DB 'DDERR_COLORKEYNOTSET', 00H ; `string'
CONST	ENDS
;	COMDAT ??_C@_0BN@DLNFLDJF@DDERR_SURFACEALREADYATTACHED?$AA@
CONST	SEGMENT
??_C@_0BN@DLNFLDJF@DDERR_SURFACEALREADYATTACHED?$AA@ DB 'DDERR_SURFACEALR'
	DB	'EADYATTACHED', 00H				; `string'
CONST	ENDS
;	COMDAT ??_C@_0BO@HOHOGLO@DDERR_SURFACEALREADYDEPENDENT?$AA@
CONST	SEGMENT
??_C@_0BO@HOHOGLO@DDERR_SURFACEALREADYDEPENDENT?$AA@ DB 'DDERR_SURFACEALR'
	DB	'EADYDEPENDENT', 00H				; `string'
CONST	ENDS
;	COMDAT ??_C@_0BC@NLGPCHLD@DDERR_SURFACEBUSY?$AA@
CONST	SEGMENT
??_C@_0BC@NLGPCHLD@DDERR_SURFACEBUSY?$AA@ DB 'DDERR_SURFACEBUSY', 00H ; `string'
CONST	ENDS
;	COMDAT ??_C@_0BG@IADNDEGE@DDERR_CANTLOCKSURFACE?$AA@
CONST	SEGMENT
??_C@_0BG@IADNDEGE@DDERR_CANTLOCKSURFACE?$AA@ DB 'DDERR_CANTLOCKSURFACE', 00H ; `string'
CONST	ENDS
;	COMDAT ??_C@_0BI@KAHOANAA@DDERR_SURFACEISOBSCURED?$AA@
CONST	SEGMENT
??_C@_0BI@KAHOANAA@DDERR_SURFACEISOBSCURED?$AA@ DB 'DDERR_SURFACEISOBSCUR'
	DB	'ED', 00H					; `string'
CONST	ENDS
;	COMDAT ??_C@_0BC@OOFFFAGE@DDERR_SURFACELOST?$AA@
CONST	SEGMENT
??_C@_0BC@OOFFFAGE@DDERR_SURFACELOST?$AA@ DB 'DDERR_SURFACELOST', 00H ; `string'
CONST	ENDS
;	COMDAT ??_C@_0BJ@DMNBOKFJ@DDERR_SURFACENOTATTACHED?$AA@
CONST	SEGMENT
??_C@_0BJ@DMNBOKFJ@DDERR_SURFACENOTATTACHED?$AA@ DB 'DDERR_SURFACENOTATTA'
	DB	'CHED', 00H					; `string'
CONST	ENDS
;	COMDAT ??_C@_0BD@FPHOLBKE@DDERR_TOOBIGHEIGHT?$AA@
CONST	SEGMENT
??_C@_0BD@FPHOLBKE@DDERR_TOOBIGHEIGHT?$AA@ DB 'DDERR_TOOBIGHEIGHT', 00H ; `string'
CONST	ENDS
;	COMDAT ??_C@_0BB@IBDADILM@DDERR_TOOBIGSIZE?$AA@
CONST	SEGMENT
??_C@_0BB@IBDADILM@DDERR_TOOBIGSIZE?$AA@ DB 'DDERR_TOOBIGSIZE', 00H ; `string'
CONST	ENDS
;	COMDAT ??_C@_0BC@MMEFKBGP@DDERR_TOOBIGWIDTH?$AA@
CONST	SEGMENT
??_C@_0BC@MMEFKBGP@DDERR_TOOBIGWIDTH?$AA@ DB 'DDERR_TOOBIGWIDTH', 00H ; `string'
CONST	ENDS
;	COMDAT ??_C@_0BC@LLCNADOP@DDERR_UNSUPPORTED?$AA@
CONST	SEGMENT
??_C@_0BC@LLCNADOP@DDERR_UNSUPPORTED?$AA@ DB 'DDERR_UNSUPPORTED', 00H ; `string'
CONST	ENDS
;	COMDAT ??_C@_0BI@GGBGCOID@DDERR_UNSUPPORTEDFORMAT?$AA@
CONST	SEGMENT
??_C@_0BI@GGBGCOID@DDERR_UNSUPPORTEDFORMAT?$AA@ DB 'DDERR_UNSUPPORTEDFORM'
	DB	'AT', 00H					; `string'
CONST	ENDS
;	COMDAT ??_C@_0BG@OHPHKFL@DDERR_UNSUPPORTEDMASK?$AA@
CONST	SEGMENT
??_C@_0BG@OHPHKFL@DDERR_UNSUPPORTEDMASK?$AA@ DB 'DDERR_UNSUPPORTEDMASK', 00H ; `string'
CONST	ENDS
;	COMDAT ??_C@_0BO@CKEGAAHC@DDERR_VERTICALBLANKINPROGRESS?$AA@
CONST	SEGMENT
??_C@_0BO@CKEGAAHC@DDERR_VERTICALBLANKINPROGRESS?$AA@ DB 'DDERR_VERTICALB'
	DB	'LANKINPROGRESS', 00H			; `string'
CONST	ENDS
;	COMDAT ??_C@_0BG@PNJKHKJC@DDERR_WASSTILLDRAWING?$AA@
CONST	SEGMENT
??_C@_0BG@PNJKHKJC@DDERR_WASSTILLDRAWING?$AA@ DB 'DDERR_WASSTILLDRAWING', 00H ; `string'
CONST	ENDS
;	COMDAT ??_C@_0N@MAIIIAKF@DDERR_XALIGN?$AA@
CONST	SEGMENT
??_C@_0N@MAIIIAKF@DDERR_XALIGN?$AA@ DB 'DDERR_XALIGN', 00H ; `string'
CONST	ENDS
;	COMDAT ??_C@_0BM@LMDGBJFD@DDERR_INVALIDDIRECTDRAWGUID?$AA@
CONST	SEGMENT
??_C@_0BM@LMDGBJFD@DDERR_INVALIDDIRECTDRAWGUID?$AA@ DB 'DDERR_INVALIDDIRE'
	DB	'CTDRAWGUID', 00H				; `string'
CONST	ENDS
;	COMDAT ??_C@_0BP@CFDPGCFK@DDERR_DIRECTDRAWALREADYCREATED?$AA@
CONST	SEGMENT
??_C@_0BP@CFDPGCFK@DDERR_DIRECTDRAWALREADYCREATED?$AA@ DB 'DDERR_DIRECTDR'
	DB	'AWALREADYCREATED', 00H			; `string'
CONST	ENDS
;	COMDAT ??_C@_0BF@NOEHEIDL@DDERR_NODIRECTDRAWHW?$AA@
CONST	SEGMENT
??_C@_0BF@NOEHEIDL@DDERR_NODIRECTDRAWHW?$AA@ DB 'DDERR_NODIRECTDRAWHW', 00H ; `string'
CONST	ENDS
;	COMDAT ??_C@_0CC@FKFBEMJC@DDERR_PRIMARYSURFACEALREADYEXIST@
CONST	SEGMENT
??_C@_0CC@FKFBEMJC@DDERR_PRIMARYSURFACEALREADYEXIST@ DB 'DDERR_PRIMARYSUR'
	DB	'FACEALREADYEXISTS', 00H			; `string'
CONST	ENDS
;	COMDAT ??_C@_0BC@DCFOAKAL@DDERR_NOEMULATION?$AA@
CONST	SEGMENT
??_C@_0BC@DCFOAKAL@DDERR_NOEMULATION?$AA@ DB 'DDERR_NOEMULATION', 00H ; `string'
CONST	ENDS
;	COMDAT ??_C@_0BF@BDDJLJGA@DDERR_REGIONTOOSMALL?$AA@
CONST	SEGMENT
??_C@_0BF@BDDJLJGA@DDERR_REGIONTOOSMALL?$AA@ DB 'DDERR_REGIONTOOSMALL', 00H ; `string'
CONST	ENDS
;	COMDAT ??_C@_0BJ@BOEHMDDM@DDERR_CLIPPERISUSINGHWND?$AA@
CONST	SEGMENT
??_C@_0BJ@BOEHMDDM@DDERR_CLIPPERISUSINGHWND?$AA@ DB 'DDERR_CLIPPERISUSING'
	DB	'HWND', 00H					; `string'
CONST	ENDS
;	COMDAT ??_C@_0BI@BGMBBEJL@DDERR_NOCLIPPERATTACHED?$AA@
CONST	SEGMENT
??_C@_0BI@BGMBBEJL@DDERR_NOCLIPPERATTACHED?$AA@ DB 'DDERR_NOCLIPPERATTACH'
	DB	'ED', 00H					; `string'
CONST	ENDS
;	COMDAT ??_C@_0N@EOPEBNEI@DDERR_NOHWND?$AA@
CONST	SEGMENT
??_C@_0N@EOPEBNEI@DDERR_NOHWND?$AA@ DB 'DDERR_NOHWND', 00H ; `string'
CONST	ENDS
;	COMDAT ??_C@_0BF@MAFLBECE@DDERR_HWNDSUBCLASSED?$AA@
CONST	SEGMENT
??_C@_0BF@MAFLBECE@DDERR_HWNDSUBCLASSED?$AA@ DB 'DDERR_HWNDSUBCLASSED', 00H ; `string'
CONST	ENDS
;	COMDAT ??_C@_0BF@LGLNHCHJ@DDERR_HWNDALREADYSET?$AA@
CONST	SEGMENT
??_C@_0BF@LGLNHCHJ@DDERR_HWNDALREADYSET?$AA@ DB 'DDERR_HWNDALREADYSET', 00H ; `string'
CONST	ENDS
;	COMDAT ??_C@_0BI@KBKHCNLK@DDERR_NOPALETTEATTACHED?$AA@
CONST	SEGMENT
??_C@_0BI@KBKHCNLK@DDERR_NOPALETTEATTACHED?$AA@ DB 'DDERR_NOPALETTEATTACH'
	DB	'ED', 00H					; `string'
CONST	ENDS
;	COMDAT ??_C@_0BC@GEADEPGN@DDERR_NOPALETTEHW?$AA@
CONST	SEGMENT
??_C@_0BC@GEADEPGN@DDERR_NOPALETTEHW?$AA@ DB 'DDERR_NOPALETTEHW', 00H ; `string'
CONST	ENDS
;	COMDAT ??_C@_0BG@HLNKGEOE@DDERR_BLTFASTCANTCLIP?$AA@
CONST	SEGMENT
??_C@_0BG@HLNKGEOE@DDERR_BLTFASTCANTCLIP?$AA@ DB 'DDERR_BLTFASTCANTCLIP', 00H ; `string'
CONST	ENDS
;	COMDAT ??_C@_0O@NKGDNEG@DDERR_NOBLTHW?$AA@
CONST	SEGMENT
??_C@_0O@NKGDNEG@DDERR_NOBLTHW?$AA@ DB 'DDERR_NOBLTHW', 00H ; `string'
CONST	ENDS
;	COMDAT ??_C@_0BB@BPILLDBG@DDERR_NODDROPSHW?$AA@
CONST	SEGMENT
??_C@_0BB@BPILLDBG@DDERR_NODDROPSHW?$AA@ DB 'DDERR_NODDROPSHW', 00H ; `string'
CONST	ENDS
;	COMDAT ??_C@_0BI@CLLMFLGN@DDERR_OVERLAYNOTVISIBLE?$AA@
CONST	SEGMENT
??_C@_0BI@CLLMFLGN@DDERR_OVERLAYNOTVISIBLE?$AA@ DB 'DDERR_OVERLAYNOTVISIB'
	DB	'LE', 00H					; `string'
CONST	ENDS
;	COMDAT ??_C@_0BE@JKKEKLOE@DDERR_NOOVERLAYDEST?$AA@
CONST	SEGMENT
??_C@_0BE@JKKEKLOE@DDERR_NOOVERLAYDEST?$AA@ DB 'DDERR_NOOVERLAYDEST', 00H ; `string'
CONST	ENDS
;	COMDAT ??_C@_0BG@OMJGFIHE@DDERR_INVALIDPOSITION?$AA@
CONST	SEGMENT
??_C@_0BG@OMJGFIHE@DDERR_INVALIDPOSITION?$AA@ DB 'DDERR_INVALIDPOSITION', 00H ; `string'
CONST	ENDS
;	COMDAT ??_C@_0BJ@LGNAEONK@DDERR_NOTAOVERLAYSURFACE?$AA@
CONST	SEGMENT
??_C@_0BJ@LGNAEONK@DDERR_NOTAOVERLAYSURFACE?$AA@ DB 'DDERR_NOTAOVERLAYSUR'
	DB	'FACE', 00H					; `string'
CONST	ENDS
;	COMDAT ??_C@_0BO@GMCKLDPA@DDERR_EXCLUSIVEMODEALREADYSET?$AA@
CONST	SEGMENT
??_C@_0BO@GMCKLDPA@DDERR_EXCLUSIVEMODEALREADYSET?$AA@ DB 'DDERR_EXCLUSIVE'
	DB	'MODEALREADYSET', 00H			; `string'
CONST	ENDS
;	COMDAT ??_C@_0BD@FOFDLEGO@DDERR_NOTFLIPPABLE?$AA@
CONST	SEGMENT
??_C@_0BD@FOFDLEGO@DDERR_NOTFLIPPABLE?$AA@ DB 'DDERR_NOTFLIPPABLE', 00H ; `string'
CONST	ENDS
;	COMDAT ??_C@_0BE@LNBDBNLL@DDERR_CANTDUPLICATE?$AA@
CONST	SEGMENT
??_C@_0BE@LNBDBNLL@DDERR_CANTDUPLICATE?$AA@ DB 'DDERR_CANTDUPLICATE', 00H ; `string'
CONST	ENDS
;	COMDAT ??_C@_0BA@KCNFHPNM@DDERR_NOTLOCKED?$AA@
CONST	SEGMENT
??_C@_0BA@KCNFHPNM@DDERR_NOTLOCKED?$AA@ DB 'DDERR_NOTLOCKED', 00H ; `string'
CONST	ENDS
;	COMDAT ??_C@_0BD@PBNGJMBK@DDERR_CANTCREATEDC?$AA@
CONST	SEGMENT
??_C@_0BD@PBNGJMBK@DDERR_CANTCREATEDC?$AA@ DB 'DDERR_CANTCREATEDC', 00H ; `string'
CONST	ENDS
;	COMDAT ??_C@_0L@CHFPOEHC@DDERR_NODC?$AA@
CONST	SEGMENT
??_C@_0L@CHFPOEHC@DDERR_NODC?$AA@ DB 'DDERR_NODC', 00H	; `string'
CONST	ENDS
;	COMDAT ??_C@_0BA@FGHHLMKB@DDERR_WRONGMODE?$AA@
CONST	SEGMENT
??_C@_0BA@FGHHLMKB@DDERR_WRONGMODE?$AA@ DB 'DDERR_WRONGMODE', 00H ; `string'
CONST	ENDS
;	COMDAT ??_C@_0BI@NLHHKHEN@DDERR_IMPLICITLYCREATED?$AA@
CONST	SEGMENT
??_C@_0BI@NLHHKHEN@DDERR_IMPLICITLYCREATED?$AA@ DB 'DDERR_IMPLICITLYCREAT'
	DB	'ED', 00H					; `string'
CONST	ENDS
;	COMDAT ??_C@_0BE@FGMGOELL@DDERR_NOTPALETTIZED?$AA@
CONST	SEGMENT
??_C@_0BE@FGMGOELL@DDERR_NOTPALETTIZED?$AA@ DB 'DDERR_NOTPALETTIZED', 00H ; `string'
CONST	ENDS
;	COMDAT ??_C@_0BG@GJEKJFBD@DDERR_UNSUPPORTEDMODE?$AA@
CONST	SEGMENT
??_C@_0BG@GJEKJFBD@DDERR_UNSUPPORTEDMODE?$AA@ DB 'DDERR_UNSUPPORTEDMODE', 00H ; `string'
CONST	ENDS
;	COMDAT ??_C@_0BB@LNEPLBGC@DDERR_NOMIPMAPHW?$AA@
CONST	SEGMENT
??_C@_0BB@LNEPLBGC@DDERR_NOMIPMAPHW?$AA@ DB 'DDERR_NOMIPMAPHW', 00H ; `string'
CONST	ENDS
;	COMDAT ??_C@_0BJ@HPBNNCIB@DDERR_INVALIDSURFACETYPE?$AA@
CONST	SEGMENT
??_C@_0BJ@HPBNNCIB@DDERR_INVALIDSURFACETYPE?$AA@ DB 'DDERR_INVALIDSURFACE'
	DB	'TYPE', 00H					; `string'
CONST	ENDS
;	COMDAT ??_C@_0BH@BBAKKFGG@DDERR_DCALREADYCREATED?$AA@
CONST	SEGMENT
??_C@_0BH@BBAKKFGG@DDERR_DCALREADYCREATED?$AA@ DB 'DDERR_DCALREADYCREATED'
	DB	00H						; `string'
CONST	ENDS
;	COMDAT ??_C@_0BD@GIBKCHPD@DDERR_CANTPAGELOCK?$AA@
CONST	SEGMENT
??_C@_0BD@GIBKCHPD@DDERR_CANTPAGELOCK?$AA@ DB 'DDERR_CANTPAGELOCK', 00H ; `string'
CONST	ENDS
;	COMDAT ??_C@_0BF@MPOCMAGG@DDERR_CANTPAGEUNLOCK?$AA@
CONST	SEGMENT
??_C@_0BF@MPOCMAGG@DDERR_CANTPAGEUNLOCK?$AA@ DB 'DDERR_CANTPAGEUNLOCK', 00H ; `string'
CONST	ENDS
;	COMDAT ??_C@_0BE@ELKGHCMM@DDERR_NOTPAGELOCKED?$AA@
CONST	SEGMENT
??_C@_0BE@ELKGHCMM@DDERR_NOTPAGELOCKED?$AA@ DB 'DDERR_NOTPAGELOCKED', 00H ; `string'
CONST	ENDS
;	COMDAT ??_C@_0BF@DLEGFOLA@DDERR_NOTINITIALIZED?$AA@
CONST	SEGMENT
??_C@_0BF@DLEGFOLA@DDERR_NOTINITIALIZED?$AA@ DB 'DDERR_NOTINITIALIZED', 00H ; `string'
CONST	ENDS
;	COMDAT ??_C@_0BA@ECKDOBJD@DSERR_BADFORMAT?$AA@
CONST	SEGMENT
??_C@_0BA@ECKDOBJD@DSERR_BADFORMAT?$AA@ DB 'DSERR_BADFORMAT', 00H ; `string'
CONST	ENDS
;	COMDAT ??_C@_0BC@NMCDDLDP@DSERR_INVALIDCALL?$AA@
CONST	SEGMENT
??_C@_0BC@NMCDDLDP@DSERR_INVALIDCALL?$AA@ DB 'DSERR_INVALIDCALL', 00H ; `string'
CONST	ENDS
;	COMDAT ??_C@_0BD@MODBPMIE@DSERR_INVALIDPARAM?$AA@
CONST	SEGMENT
??_C@_0BD@MODBPMIE@DSERR_INVALIDPARAM?$AA@ DB 'DSERR_INVALIDPARAM', 00H ; `string'
CONST	ENDS
;	COMDAT ??_C@_0BC@KCMPJMLN@DSERR_OUTOFMEMORY?$AA@
CONST	SEGMENT
??_C@_0BC@KCMPJMLN@DSERR_OUTOFMEMORY?$AA@ DB 'DSERR_OUTOFMEMORY', 00H ; `string'
CONST	ENDS
;	COMDAT ??_C@_0BG@FGFOLLAI@DSERR_PRIOLEVELNEEDED?$AA@
CONST	SEGMENT
??_C@_0BG@FGFOLLAI@DSERR_PRIOLEVELNEEDED?$AA@ DB 'DSERR_PRIOLEVELNEEDED', 00H ; `string'
CONST	ENDS
;	COMDAT ??_C@_0BC@IMOOOGNJ@DSERR_UNSUPPORTED?$AA@
CONST	SEGMENT
??_C@_0BC@IMOOOGNJ@DSERR_UNSUPPORTED?$AA@ DB 'DSERR_UNSUPPORTED', 00H ; `string'
CONST	ENDS
;	COMDAT ??_C@_0BD@CIMLFMCH@DPERR_ACCESSDENIED?$AA@
CONST	SEGMENT
??_C@_0BD@CIMLFMCH@DPERR_ACCESSDENIED?$AA@ DB 'DPERR_ACCESSDENIED', 00H ; `string'
CONST	ENDS
;	COMDAT ??_C@_0BE@JLKJJGDM@DPERR_ACTIVEPLAYERS?$AA@
CONST	SEGMENT
??_C@_0BE@JLKJJGDM@DPERR_ACTIVEPLAYERS?$AA@ DB 'DPERR_ACTIVEPLAYERS', 00H ; `string'
CONST	ENDS
;	COMDAT ??_C@_0BJ@KGCFELPH@DPERR_ALREADYINITIALIZED?$AA@
CONST	SEGMENT
??_C@_0BJ@KGCFELPH@DPERR_ALREADYINITIALIZED?$AA@ DB 'DPERR_ALREADYINITIAL'
	DB	'IZED', 00H					; `string'
CONST	ENDS
;	COMDAT ??_C@_0BE@IBHIGLAG@DPERR_APPNOTSTARTED?$AA@
CONST	SEGMENT
??_C@_0BE@IBHIGLAG@DPERR_APPNOTSTARTED?$AA@ DB 'DPERR_APPNOTSTARTED', 00H ; `string'
CONST	ENDS
;	COMDAT ??_C@_0BL@BNFGMJL@DPERR_AUTHENTICATIONFAILED?$AA@
CONST	SEGMENT
??_C@_0BL@BNFGMJL@DPERR_AUTHENTICATIONFAILED?$AA@ DB 'DPERR_AUTHENTICATIO'
	DB	'NFAILED', 00H				; `string'
CONST	ENDS
;	COMDAT ??_C@_0BF@EHLGNELP@DPERR_BUFFERTOOLARGE?$AA@
CONST	SEGMENT
??_C@_0BF@EHLGNELP@DPERR_BUFFERTOOLARGE?$AA@ DB 'DPERR_BUFFERTOOLARGE', 00H ; `string'
CONST	ENDS
;	COMDAT ??_C@_0BF@OPPNCFCJ@DPERR_BUFFERTOOSMALL?$AA@
CONST	SEGMENT
??_C@_0BF@OPPNCFCJ@DPERR_BUFFERTOOSMALL?$AA@ DB 'DPERR_BUFFERTOOSMALL', 00H ; `string'
CONST	ENDS
;	COMDAT ??_C@_0L@FKAKNADE@DPERR_BUSY?$AA@
CONST	SEGMENT
??_C@_0L@FKAKNADE@DPERR_BUSY?$AA@ DB 'DPERR_BUSY', 00H	; `string'
CONST	ENDS
;	COMDAT ??_C@_0BD@JBJHCNNC@DPERR_CANCELFAILED?$AA@
CONST	SEGMENT
??_C@_0BD@JBJHCNNC@DPERR_CANCELFAILED?$AA@ DB 'DPERR_CANCELFAILED', 00H ; `string'
CONST	ENDS
;	COMDAT ??_C@_0BE@OFODIPDM@DPERR_CANTADDPLAYER?$AA@
CONST	SEGMENT
??_C@_0BE@OFODIPDM@DPERR_CANTADDPLAYER?$AA@ DB 'DPERR_CANTADDPLAYER', 00H ; `string'
CONST	ENDS
;	COMDAT ??_C@_0BG@DCEHLHAP@DPERR_CANTCREATEGROUP?$AA@
CONST	SEGMENT
??_C@_0BG@DCEHLHAP@DPERR_CANTCREATEGROUP?$AA@ DB 'DPERR_CANTCREATEGROUP', 00H ; `string'
CONST	ENDS
;	COMDAT ??_C@_0BH@GMKOMEBJ@DPERR_CANTCREATEPLAYER?$AA@
CONST	SEGMENT
??_C@_0BH@GMKOMEBJ@DPERR_CANTCREATEPLAYER?$AA@ DB 'DPERR_CANTCREATEPLAYER'
	DB	00H						; `string'
CONST	ENDS
;	COMDAT ??_C@_0BI@NDOIGLGE@DPERR_CANTCREATEPROCESS?$AA@
CONST	SEGMENT
??_C@_0BI@NDOIGLGE@DPERR_CANTCREATEPROCESS?$AA@ DB 'DPERR_CANTCREATEPROCE'
	DB	'SS', 00H					; `string'
CONST	ENDS
;	COMDAT ??_C@_0BI@ELGMBCBF@DPERR_CANTCREATESESSION?$AA@
CONST	SEGMENT
??_C@_0BI@ELGMBCBF@DPERR_CANTCREATESESSION?$AA@ DB 'DPERR_CANTCREATESESSI'
	DB	'ON', 00H					; `string'
CONST	ENDS
;	COMDAT ??_C@_0BD@PEDKHGGM@DPERR_CANTLOADCAPI?$AA@
CONST	SEGMENT
??_C@_0BD@PEDKHGGM@DPERR_CANTLOADCAPI?$AA@ DB 'DPERR_CANTLOADCAPI', 00H ; `string'
CONST	ENDS
;	COMDAT ??_C@_0BO@OABPENJN@DPERR_CANTLOADSECURITYPACKAGE?$AA@
CONST	SEGMENT
??_C@_0BO@OABPENJN@DPERR_CANTLOADSECURITYPACKAGE?$AA@ DB 'DPERR_CANTLOADS'
	DB	'ECURITYPACKAGE', 00H			; `string'
CONST	ENDS
;	COMDAT ??_C@_0BD@GOMKHOPK@DPERR_CANTLOADSSPI?$AA@
CONST	SEGMENT
??_C@_0BD@GOMKHOPK@DPERR_CANTLOADSSPI?$AA@ DB 'DPERR_CANTLOADSSPI', 00H ; `string'
CONST	ENDS
;	COMDAT ??_C@_0BK@NJEEEGOO@DPERR_CAPSNOTAVAILABLEYET?$AA@
CONST	SEGMENT
??_C@_0BK@NJEEEGOO@DPERR_CAPSNOTAVAILABLEYET?$AA@ DB 'DPERR_CAPSNOTAVAILA'
	DB	'BLEYET', 00H				; `string'
CONST	ENDS
;	COMDAT ??_C@_0BB@LDDHAHLN@DPERR_CONNECTING?$AA@
CONST	SEGMENT
??_C@_0BB@LDDHAHLN@DPERR_CONNECTING?$AA@ DB 'DPERR_CONNECTING', 00H ; `string'
CONST	ENDS
;	COMDAT ??_C@_0BH@NPDAALGG@DPERR_ENCRYPTIONFAILED?$AA@
CONST	SEGMENT
??_C@_0BH@NPDAALGG@DPERR_ENCRYPTIONFAILED?$AA@ DB 'DPERR_ENCRYPTIONFAILED'
	DB	00H						; `string'
CONST	ENDS
;	COMDAT ??_C@_0BA@MCFNHCFF@DPERR_EXCEPTION?$AA@
CONST	SEGMENT
??_C@_0BA@MCFNHCFF@DPERR_EXCEPTION?$AA@ DB 'DPERR_EXCEPTION', 00H ; `string'
CONST	ENDS
;	COMDAT ??_C@_0O@LCPCPFNL@DPERR_GENERIC?$AA@
CONST	SEGMENT
??_C@_0O@LCPCPFNL@DPERR_GENERIC?$AA@ DB 'DPERR_GENERIC', 00H ; `string'
CONST	ENDS
;	COMDAT ??_C@_0BD@JLMILPMN@DPERR_INVALIDFLAGS?$AA@
CONST	SEGMENT
??_C@_0BD@JLMILPMN@DPERR_INVALIDFLAGS?$AA@ DB 'DPERR_INVALIDFLAGS', 00H ; `string'
CONST	ENDS
;	COMDAT ??_C@_0BD@FLBEBGGF@DPERR_INVALIDGROUP?$AA@
CONST	SEGMENT
??_C@_0BD@FLBEBGGF@DPERR_INVALIDGROUP?$AA@ DB 'DPERR_INVALIDGROUP', 00H ; `string'
CONST	ENDS
;	COMDAT ??_C@_0BH@JCHHAMNM@DPERR_INVALIDINTERFACE?$AA@
CONST	SEGMENT
??_C@_0BH@JCHHAMNM@DPERR_INVALIDINTERFACE?$AA@ DB 'DPERR_INVALIDINTERFACE'
	DB	00H						; `string'
CONST	ENDS
;	COMDAT ??_C@_0BE@FFPEJAKL@DPERR_INVALIDOBJECT?$AA@
CONST	SEGMENT
??_C@_0BE@FFPEJAKL@DPERR_INVALIDOBJECT?$AA@ DB 'DPERR_INVALIDOBJECT', 00H ; `string'
CONST	ENDS
;	COMDAT ??_C@_0BE@NINLPOPL@DPERR_INVALIDPARAMS?$AA@
CONST	SEGMENT
??_C@_0BE@NINLPOPL@DPERR_INVALIDPARAMS?$AA@ DB 'DPERR_INVALIDPARAMS', 00H ; `string'
CONST	ENDS
;	COMDAT ??_C@_0BG@IOJGIAEJ@DPERR_INVALIDPASSWORD?$AA@
CONST	SEGMENT
??_C@_0BG@IOJGIAEJ@DPERR_INVALIDPASSWORD?$AA@ DB 'DPERR_INVALIDPASSWORD', 00H ; `string'
CONST	ENDS
;	COMDAT ??_C@_0BE@MBKABPPO@DPERR_INVALIDPLAYER?$AA@
CONST	SEGMENT
??_C@_0BE@MBKABPPO@DPERR_INVALIDPLAYER?$AA@ DB 'DPERR_INVALIDPLAYER', 00H ; `string'
CONST	ENDS
;	COMDAT ??_C@_0BG@NNHCHHOD@DPERR_INVALIDPRIORITY?$AA@
CONST	SEGMENT
??_C@_0BG@NNHCHHOD@DPERR_INVALIDPRIORITY?$AA@ DB 'DPERR_INVALIDPRIORITY', 00H ; `string'
CONST	ENDS
;	COMDAT ??_C@_0BC@MELIBBOO@DPERR_LOGONDENIED?$AA@
CONST	SEGMENT
??_C@_0BC@MELIBBOO@DPERR_LOGONDENIED?$AA@ DB 'DPERR_LOGONDENIED', 00H ; `string'
CONST	ENDS
;	COMDAT ??_C@_0N@FAHDPIHF@DPERR_NOCAPS?$AA@
CONST	SEGMENT
??_C@_0N@FAHDPIHF@DPERR_NOCAPS?$AA@ DB 'DPERR_NOCAPS', 00H ; `string'
CONST	ENDS
;	COMDAT ??_C@_0BD@KKENPFA@DPERR_NOCONNECTION?$AA@
CONST	SEGMENT
??_C@_0BD@KKENPFA@DPERR_NOCONNECTION?$AA@ DB 'DPERR_NOCONNECTION', 00H ; `string'
CONST	ENDS
;	COMDAT ??_C@_0BC@JMLMJBCI@DPERR_NOINTERFACE?$AA@
CONST	SEGMENT
??_C@_0BC@JMLMJBCI@DPERR_NOINTERFACE?$AA@ DB 'DPERR_NOINTERFACE', 00H ; `string'
CONST	ENDS
;	COMDAT ??_C@_0BB@HBLIJGDD@DPERR_NOMESSAGES?$AA@
CONST	SEGMENT
??_C@_0BB@HBLIJGDD@DPERR_NOMESSAGES?$AA@ DB 'DPERR_NOMESSAGES', 00H ; `string'
CONST	ENDS
;	COMDAT ??_C@_0BI@EIACNNBO@DPERR_NONAMESERVERFOUND?$AA@
CONST	SEGMENT
??_C@_0BI@EIACNNBO@DPERR_NONAMESERVERFOUND?$AA@ DB 'DPERR_NONAMESERVERFOU'
	DB	'ND', 00H					; `string'
CONST	ENDS
;	COMDAT ??_C@_0BD@DOMEBGED@DPERR_NONEWPLAYERS?$AA@
CONST	SEGMENT
??_C@_0BD@DOMEBGED@DPERR_NONEWPLAYERS?$AA@ DB 'DPERR_NONEWPLAYERS', 00H ; `string'
CONST	ENDS
;	COMDAT ??_C@_0BA@EOOCDAJ@DPERR_NOPLAYERS?$AA@
CONST	SEGMENT
??_C@_0BA@EOOCDAJ@DPERR_NOPLAYERS?$AA@ DB 'DPERR_NOPLAYERS', 00H ; `string'
CONST	ENDS
;	COMDAT ??_C@_0BB@OMCLIDBP@DPERR_NOSESSIONS?$AA@
CONST	SEGMENT
??_C@_0BB@OMCLIDBP@DPERR_NOSESSIONS?$AA@ DB 'DPERR_NOSESSIONS', 00H ; `string'
CONST	ENDS
;	COMDAT ??_C@_0BB@KEJMNHMD@DPERR_NOTLOBBIED?$AA@
CONST	SEGMENT
??_C@_0BB@KEJMNHMD@DPERR_NOTLOBBIED?$AA@ DB 'DPERR_NOTLOBBIED', 00H ; `string'
CONST	ENDS
;	COMDAT ??_C@_0BC@BLFCMKHF@DPERR_NOTLOGGEDIN?$AA@
CONST	SEGMENT
??_C@_0BC@BLFCMKHF@DPERR_NOTLOGGEDIN?$AA@ DB 'DPERR_NOTLOGGEDIN', 00H ; `string'
CONST	ENDS
;	COMDAT ??_C@_0BC@PBFFMHDJ@DPERR_OUTOFMEMORY?$AA@
CONST	SEGMENT
??_C@_0BC@PBFFMHDJ@DPERR_OUTOFMEMORY?$AA@ DB 'DPERR_OUTOFMEMORY', 00H ; `string'
CONST	ENDS
;	COMDAT ??_C@_0BB@OLDMKIH@DPERR_PLAYERLOST?$AA@
CONST	SEGMENT
??_C@_0BB@OLDMKIH@DPERR_PLAYERLOST?$AA@ DB 'DPERR_PLAYERLOST', 00H ; `string'
CONST	ENDS
;	COMDAT ??_C@_0BB@OIDGCPGB@DPERR_SENDTOOBIG?$AA@
CONST	SEGMENT
??_C@_0BB@OIDGCPGB@DPERR_SENDTOOBIG?$AA@ DB 'DPERR_SENDTOOBIG', 00H ; `string'
CONST	ENDS
;	COMDAT ??_C@_0BC@FDONMHBP@DPERR_SESSIONLOST?$AA@
CONST	SEGMENT
??_C@_0BC@FDONMHBP@DPERR_SESSIONLOST?$AA@ DB 'DPERR_SESSIONLOST', 00H ; `string'
CONST	ENDS
;	COMDAT ??_C@_0BB@EIIKKBNP@DPERR_SIGNFAILED?$AA@
CONST	SEGMENT
??_C@_0BB@EIIKKBNP@DPERR_SIGNFAILED?$AA@ DB 'DPERR_SIGNFAILED', 00H ; `string'
CONST	ENDS
;	COMDAT ??_C@_0O@LDDOIKAJ@DPERR_TIMEOUT?$AA@
CONST	SEGMENT
??_C@_0O@LDDOIKAJ@DPERR_TIMEOUT?$AA@ DB 'DPERR_TIMEOUT', 00H ; `string'
CONST	ENDS
;	COMDAT ??_C@_0BC@EFJJKFJE@DPERR_UNAVAILABLE?$AA@
CONST	SEGMENT
??_C@_0BC@EFJJKFJE@DPERR_UNAVAILABLE?$AA@ DB 'DPERR_UNAVAILABLE', 00H ; `string'
CONST	ENDS
;	COMDAT ??_C@_0BE@LPMEIJMF@DPERR_UNINITIALIZED?$AA@
CONST	SEGMENT
??_C@_0BE@LPMEIJMF@DPERR_UNINITIALIZED?$AA@ DB 'DPERR_UNINITIALIZED', 00H ; `string'
CONST	ENDS
;	COMDAT ??_C@_0BJ@HLLJJGFA@DPERR_UNKNOWNAPPLICATION?$AA@
CONST	SEGMENT
??_C@_0BJ@HLLJJGFA@DPERR_UNKNOWNAPPLICATION?$AA@ DB 'DPERR_UNKNOWNAPPLICA'
	DB	'TION', 00H					; `string'
CONST	ENDS
;	COMDAT ??_C@_0BF@IBEONKCK@DPERR_UNKNOWNMESSAGE?$AA@
CONST	SEGMENT
??_C@_0BF@IBEONKCK@DPERR_UNKNOWNMESSAGE?$AA@ DB 'DPERR_UNKNOWNMESSAGE', 00H ; `string'
CONST	ENDS
;	COMDAT ??_C@_0BC@NPHELNFN@DPERR_UNSUPPORTED?$AA@
CONST	SEGMENT
??_C@_0BC@NPHELNFN@DPERR_UNSUPPORTED?$AA@ DB 'DPERR_UNSUPPORTED', 00H ; `string'
CONST	ENDS
;	COMDAT ??_C@_0BB@OFPDBPLG@DPERR_USERCANCEL?$AA@
CONST	SEGMENT
??_C@_0BB@OFPDBPLG@DPERR_USERCANCEL?$AA@ DB 'DPERR_USERCANCEL', 00H ; `string'
CONST	ENDS
;	COMDAT ??_C@_05MBDEGLCK@ERROR?$AA@
CONST	SEGMENT
??_C@_05MBDEGLCK@ERROR?$AA@ DB 'ERROR', 00H		; `string'
CONST	ENDS
_DATA	SEGMENT
?ErrorListDX@@3PAUERRORDX@@A DD 088760005H		; ErrorListDX
	DD	FLAT:??_C@_0BJ@LAEIKKJF@DDERR_ALREADYINITIALIZED?$AA@
	DD	08876000aH
	DD	FLAT:??_C@_0BK@LBNPECMI@DDERR_CANNOTATTACHSURFACE?$AA@
	DD	088760014H
	DD	FLAT:??_C@_0BK@FMONFDPK@DDERR_CANNOTDETACHSURFACE?$AA@
	DD	088760028H
	DD	FLAT:??_C@_0BI@CPFFLGJD@DDERR_CURRENTLYNOTAVAIL?$AA@
	DD	088760037H
	DD	FLAT:??_C@_0BA@MEDIIHJ@DDERR_EXCEPTION?$AA@
	DD	080004005H
	DD	FLAT:??_C@_0O@MGEMDJJH@DDERR_GENERIC?$AA@
	DD	08876005aH
	DD	FLAT:??_C@_0BC@FNNCOGNH@DDERR_HEIGHTALIGN?$AA@
	DD	08876005fH
	DD	FLAT:??_C@_0BK@HJOPGIGH@DDERR_INCOMPATIBLEPRIMARY?$AA@
	DD	088760064H
	DD	FLAT:??_C@_0BC@DDIGIKID@DDERR_INVALIDCAPS?$AA@
	DD	08876006eH
	DD	FLAT:??_C@_0BG@OFKCMNHM@DDERR_INVALIDCLIPLIST?$AA@
	DD	088760078H
	DD	FLAT:??_C@_0BC@GLNOPNKK@DDERR_INVALIDMODE?$AA@
	DD	088760082H
	DD	FLAT:??_C@_0BE@KPNOKGED@DDERR_INVALIDOBJECT?$AA@
	DD	080070057H
	DD	FLAT:??_C@_0BE@CCPBMIBD@DDERR_INVALIDPARAMS?$AA@
	DD	088760091H
	DD	FLAT:??_C@_0BJ@PEGADMFO@DDERR_INVALIDPIXELFORMAT?$AA@
	DD	088760096H
	DD	FLAT:??_C@_0BC@LAEFCIAI@DDERR_INVALIDRECT?$AA@
	DD	0887600a0H
	DD	FLAT:??_C@_0BF@MAGKOGBC@DDERR_LOCKEDSURFACES?$AA@
	DD	0887600aaH
	DD	FLAT:??_C@_0L@DJKAAMGA@DDERR_NO3D?$AA@
	DD	0887600b4H
	DD	FLAT:??_C@_0BA@BFFEPDGJ@DDERR_NOALPHAHW?$AA@
	DD	0887600cdH
	DD	FLAT:??_C@_0BB@JOLMGPDK@DDERR_NOCLIPLIST?$AA@
	DD	0887600d2H
	DD	FLAT:??_C@_0BE@PDOMLOPD@DDERR_NOCOLORCONVHW?$AA@
	DD	0887600d4H
	DD	FLAT:??_C@_0BM@PMEMMDPI@DDERR_NOCOOPERATIVELEVELSET?$AA@
	DD	0887600d7H
	DD	FLAT:??_C@_0BB@GIFHLHNH@DDERR_NOCOLORKEY?$AA@
	DD	0887600dcH
	DD	FLAT:??_C@_0BD@BAAPAKEL@DDERR_NOCOLORKEYHW?$AA@
	DD	0887600deH
	DD	FLAT:??_C@_0BK@BCHEFLBM@DDERR_NODIRECTDRAWSUPPORT?$AA@
	DD	0887600e1H
	DD	FLAT:??_C@_0BG@DHFIFBBC@DDERR_NOEXCLUSIVEMODE?$AA@
	DD	0887600e6H
	DD	FLAT:??_C@_0P@IEKAGFBG@DDERR_NOFLIPHW?$AA@
	DD	0887600f0H
	DD	FLAT:??_C@_0M@IIGNACND@DDERR_NOGDI?$AA@
	DD	0887600faH
	DD	FLAT:??_C@_0BB@MNGJGGOP@DDERR_NOMIRRORHW?$AA@
	DD	0887600ffH
	DD	FLAT:??_C@_0P@IIGPDCF@DDERR_NOTFOUND?$AA@
	DD	088760104H
	DD	FLAT:??_C@_0BC@JKHLHDPI@DDERR_NOOVERLAYHW?$AA@
	DD	088760118H
	DD	FLAT:??_C@_0BD@ICAOCHBG@DDERR_NORASTEROPHW?$AA@
	DD	088760122H
	DD	FLAT:??_C@_0BD@NEIDAAKN@DDERR_NOROTATIONHW?$AA@
	DD	088760136H
	DD	FLAT:??_C@_0BC@CAPIEDAG@DDERR_NOSTRETCHHW?$AA@
	DD	08876013cH
	DD	FLAT:??_C@_0BD@ENAKJNOC@DDERR_NOT4BITCOLOR?$AA@
	DD	08876013dH
	DD	FLAT:??_C@_0BI@IKKPPDMJ@DDERR_NOT4BITCOLORINDEX?$AA@
	DD	088760140H
	DD	FLAT:??_C@_0BD@FHDGHNGM@DDERR_NOT8BITCOLOR?$AA@
	DD	08876014aH
	DD	FLAT:??_C@_0BC@ENEADALF@DDERR_NOTEXTUREHW?$AA@
	DD	08876014fH
	DD	FLAT:??_C@_0BA@PAPKELJP@DDERR_NOVSYNCHW?$AA@
	DD	088760154H
	DD	FLAT:??_C@_0BC@MGOAKBHI@DDERR_NOZBUFFERHW?$AA@
	DD	08876015eH
	DD	FLAT:??_C@_0BD@IFBPLCFK@DDERR_NOZOVERLAYHW?$AA@
	DD	088760168H
	DD	FLAT:??_C@_0BA@BCMNJCDB@DDERR_OUTOFCAPS?$AA@
	DD	08007000eH
	DD	FLAT:??_C@_0BC@JFAMHJIL@DDERR_OUTOFMEMORY?$AA@
	DD	08876017cH
	DD	FLAT:??_C@_0BH@IHGJFMGH@DDERR_OUTOFVIDEOMEMORY?$AA@
	DD	08876017eH
	DD	FLAT:??_C@_0BG@EDDFCCOG@DDERR_OVERLAYCANTCLIP?$AA@
	DD	088760180H
	DD	FLAT:??_C@_0CD@JNABKIAN@DDERR_OVERLAYCOLORKEYONLYONEACTI@
	DD	088760183H
	DD	FLAT:??_C@_0BC@CEBGFCJL@DDERR_PALETTEBUSY?$AA@
	DD	088760190H
	DD	FLAT:??_C@_0BF@HOAOBBGM@DDERR_COLORKEYNOTSET?$AA@
	DD	08876019aH
	DD	FLAT:??_C@_0BN@DLNFLDJF@DDERR_SURFACEALREADYATTACHED?$AA@
	DD	0887601a4H
	DD	FLAT:??_C@_0BO@HOHOGLO@DDERR_SURFACEALREADYDEPENDENT?$AA@
	DD	0887601aeH
	DD	FLAT:??_C@_0BC@NLGPCHLD@DDERR_SURFACEBUSY?$AA@
	DD	0887601b3H
	DD	FLAT:??_C@_0BG@IADNDEGE@DDERR_CANTLOCKSURFACE?$AA@
	DD	0887601b8H
	DD	FLAT:??_C@_0BI@KAHOANAA@DDERR_SURFACEISOBSCURED?$AA@
	DD	0887601c2H
	DD	FLAT:??_C@_0BC@OOFFFAGE@DDERR_SURFACELOST?$AA@
	DD	0887601ccH
	DD	FLAT:??_C@_0BJ@DMNBOKFJ@DDERR_SURFACENOTATTACHED?$AA@
	DD	0887601d6H
	DD	FLAT:??_C@_0BD@FPHOLBKE@DDERR_TOOBIGHEIGHT?$AA@
	DD	0887601e0H
	DD	FLAT:??_C@_0BB@IBDADILM@DDERR_TOOBIGSIZE?$AA@
	DD	0887601eaH
	DD	FLAT:??_C@_0BC@MMEFKBGP@DDERR_TOOBIGWIDTH?$AA@
	DD	080004001H
	DD	FLAT:??_C@_0BC@LLCNADOP@DDERR_UNSUPPORTED?$AA@
	DD	0887601feH
	DD	FLAT:??_C@_0BI@GGBGCOID@DDERR_UNSUPPORTEDFORMAT?$AA@
	DD	088760208H
	DD	FLAT:??_C@_0BG@OHPHKFL@DDERR_UNSUPPORTEDMASK?$AA@
	DD	088760219H
	DD	FLAT:??_C@_0BO@CKEGAAHC@DDERR_VERTICALBLANKINPROGRESS?$AA@
	DD	08876021cH
	DD	FLAT:??_C@_0BG@PNJKHKJC@DDERR_WASSTILLDRAWING?$AA@
	DD	088760230H
	DD	FLAT:??_C@_0N@MAIIIAKF@DDERR_XALIGN?$AA@
	DD	088760231H
	DD	FLAT:??_C@_0BM@LMDGBJFD@DDERR_INVALIDDIRECTDRAWGUID?$AA@
	DD	088760232H
	DD	FLAT:??_C@_0BP@CFDPGCFK@DDERR_DIRECTDRAWALREADYCREATED?$AA@
	DD	088760233H
	DD	FLAT:??_C@_0BF@NOEHEIDL@DDERR_NODIRECTDRAWHW?$AA@
	DD	088760234H
	DD	FLAT:??_C@_0CC@FKFBEMJC@DDERR_PRIMARYSURFACEALREADYEXIST@
	DD	088760235H
	DD	FLAT:??_C@_0BC@DCFOAKAL@DDERR_NOEMULATION?$AA@
	DD	088760236H
	DD	FLAT:??_C@_0BF@BDDJLJGA@DDERR_REGIONTOOSMALL?$AA@
	DD	088760237H
	DD	FLAT:??_C@_0BJ@BOEHMDDM@DDERR_CLIPPERISUSINGHWND?$AA@
	DD	088760238H
	DD	FLAT:??_C@_0BI@BGMBBEJL@DDERR_NOCLIPPERATTACHED?$AA@
	DD	088760239H
	DD	FLAT:??_C@_0N@EOPEBNEI@DDERR_NOHWND?$AA@
	DD	08876023aH
	DD	FLAT:??_C@_0BF@MAFLBECE@DDERR_HWNDSUBCLASSED?$AA@
	DD	08876023bH
	DD	FLAT:??_C@_0BF@LGLNHCHJ@DDERR_HWNDALREADYSET?$AA@
	DD	08876023cH
	DD	FLAT:??_C@_0BI@KBKHCNLK@DDERR_NOPALETTEATTACHED?$AA@
	DD	08876023dH
	DD	FLAT:??_C@_0BC@GEADEPGN@DDERR_NOPALETTEHW?$AA@
	DD	08876023eH
	DD	FLAT:??_C@_0BG@HLNKGEOE@DDERR_BLTFASTCANTCLIP?$AA@
	DD	08876023fH
	DD	FLAT:??_C@_0O@NKGDNEG@DDERR_NOBLTHW?$AA@
	DD	088760240H
	DD	FLAT:??_C@_0BB@BPILLDBG@DDERR_NODDROPSHW?$AA@
	DD	088760241H
	DD	FLAT:??_C@_0BI@CLLMFLGN@DDERR_OVERLAYNOTVISIBLE?$AA@
	DD	088760242H
	DD	FLAT:??_C@_0BE@JKKEKLOE@DDERR_NOOVERLAYDEST?$AA@
	DD	088760243H
	DD	FLAT:??_C@_0BG@OMJGFIHE@DDERR_INVALIDPOSITION?$AA@
	DD	088760244H
	DD	FLAT:??_C@_0BJ@LGNAEONK@DDERR_NOTAOVERLAYSURFACE?$AA@
	DD	088760245H
	DD	FLAT:??_C@_0BO@GMCKLDPA@DDERR_EXCLUSIVEMODEALREADYSET?$AA@
	DD	088760246H
	DD	FLAT:??_C@_0BD@FOFDLEGO@DDERR_NOTFLIPPABLE?$AA@
	DD	088760247H
	DD	FLAT:??_C@_0BE@LNBDBNLL@DDERR_CANTDUPLICATE?$AA@
	DD	088760248H
	DD	FLAT:??_C@_0BA@KCNFHPNM@DDERR_NOTLOCKED?$AA@
	DD	088760249H
	DD	FLAT:??_C@_0BD@PBNGJMBK@DDERR_CANTCREATEDC?$AA@
	DD	08876024aH
	DD	FLAT:??_C@_0L@CHFPOEHC@DDERR_NODC?$AA@
	DD	08876024bH
	DD	FLAT:??_C@_0BA@FGHHLMKB@DDERR_WRONGMODE?$AA@
	DD	08876024cH
	DD	FLAT:??_C@_0BI@NLHHKHEN@DDERR_IMPLICITLYCREATED?$AA@
	DD	08876024dH
	DD	FLAT:??_C@_0BE@FGMGOELL@DDERR_NOTPALETTIZED?$AA@
	DD	08876024eH
	DD	FLAT:??_C@_0BG@GJEKJFBD@DDERR_UNSUPPORTEDMODE?$AA@
	DD	08876024fH
	DD	FLAT:??_C@_0BB@LNEPLBGC@DDERR_NOMIPMAPHW?$AA@
	DD	088760250H
	DD	FLAT:??_C@_0BJ@HPBNNCIB@DDERR_INVALIDSURFACETYPE?$AA@
	DD	08876026cH
	DD	FLAT:??_C@_0BH@BBAKKFGG@DDERR_DCALREADYCREATED?$AA@
	DD	088760280H
	DD	FLAT:??_C@_0BD@GIBKCHPD@DDERR_CANTPAGELOCK?$AA@
	DD	088760294H
	DD	FLAT:??_C@_0BF@MPOCMAGG@DDERR_CANTPAGEUNLOCK?$AA@
	DD	0887602a8H
	DD	FLAT:??_C@_0BE@ELKGHCMM@DDERR_NOTPAGELOCKED?$AA@
	DD	0800401f0H
	DD	FLAT:??_C@_0BF@DLEGFOLA@DDERR_NOTINITIALIZED?$AA@
	DD	088780064H
	DD	FLAT:??_C@_0BA@ECKDOBJD@DSERR_BADFORMAT?$AA@
	DD	088780032H
	DD	FLAT:??_C@_0BC@NMCDDLDP@DSERR_INVALIDCALL?$AA@
	DD	080070057H
	DD	FLAT:??_C@_0BD@MODBPMIE@DSERR_INVALIDPARAM?$AA@
	DD	08007000eH
	DD	FLAT:??_C@_0BC@KCMPJMLN@DSERR_OUTOFMEMORY?$AA@
	DD	088780046H
	DD	FLAT:??_C@_0BG@FGFOLLAI@DSERR_PRIOLEVELNEEDED?$AA@
	DD	080004001H
	DD	FLAT:??_C@_0BC@IMOOOGNJ@DSERR_UNSUPPORTED?$AA@
	DD	08877000aH
	DD	FLAT:??_C@_0BD@CIMLFMCH@DPERR_ACCESSDENIED?$AA@
	DD	088770014H
	DD	FLAT:??_C@_0BE@JLKJJGDM@DPERR_ACTIVEPLAYERS?$AA@
	DD	088770005H
	DD	FLAT:??_C@_0BJ@KGCFELPH@DPERR_ALREADYINITIALIZED?$AA@
	DD	0887703fcH
	DD	FLAT:??_C@_0BE@IBHIGLAG@DPERR_APPNOTSTARTED?$AA@
	DD	0887707d0H
	DD	FLAT:??_C@_0BL@BNFGMJL@DPERR_AUTHENTICATIONFAILED?$AA@
	DD	0887703e8H
	DD	FLAT:??_C@_0BF@EHLGNELP@DPERR_BUFFERTOOLARGE?$AA@
	DD	08877001eH
	DD	FLAT:??_C@_0BF@OPPNCFCJ@DPERR_BUFFERTOOSMALL?$AA@
	DD	08877010eH
	DD	FLAT:??_C@_0L@FKAKNADE@DPERR_BUSY?$AA@
	DD	08877017cH
	DD	FLAT:??_C@_0BD@JBJHCNNC@DPERR_CANCELFAILED?$AA@
	DD	088770028H
	DD	FLAT:??_C@_0BE@OFODIPDM@DPERR_CANTADDPLAYER?$AA@
	DD	088770032H
	DD	FLAT:??_C@_0BG@DCEHLHAP@DPERR_CANTCREATEGROUP?$AA@
	DD	08877003cH
	DD	FLAT:??_C@_0BH@GMKOMEBJ@DPERR_CANTCREATEPLAYER?$AA@
	DD	0887703f2H
	DD	FLAT:??_C@_0BI@NDOIGLGE@DPERR_CANTCREATEPROCESS?$AA@
	DD	088770046H
	DD	FLAT:??_C@_0BI@ELGMBCBF@DPERR_CANTCREATESESSION?$AA@
	DD	08877080cH
	DD	FLAT:??_C@_0BD@PEDKHGGM@DPERR_CANTLOADCAPI?$AA@
	DD	0887707f8H
	DD	FLAT:??_C@_0BO@OABPENJN@DPERR_CANTLOADSECURITYPACKAGE?$AA@
	DD	0887707daH
	DD	FLAT:??_C@_0BD@GOMKHOPK@DPERR_CANTLOADSSPI?$AA@
	DD	088770050H
	DD	FLAT:??_C@_0BK@NJEEEGOO@DPERR_CAPSNOTAVAILABLEYET?$AA@
	DD	08877015eH
	DD	FLAT:??_C@_0BB@LDDHAHLN@DPERR_CONNECTING?$AA@
	DD	0887707e4H
	DD	FLAT:??_C@_0BH@NPDAALGG@DPERR_ENCRYPTIONFAILED?$AA@
	DD	08877005aH
	DD	FLAT:??_C@_0BA@MCFNHCFF@DPERR_EXCEPTION?$AA@
	DD	080004005H
	DD	FLAT:??_C@_0O@LCPCPFNL@DPERR_GENERIC?$AA@
	DD	088770078H
	DD	FLAT:??_C@_0BD@JLMILPMN@DPERR_INVALIDFLAGS?$AA@
	DD	08877009bH
	DD	FLAT:??_C@_0BD@FLBEBGGF@DPERR_INVALIDGROUP?$AA@
	DD	088770406H
	DD	FLAT:??_C@_0BH@JCHHAMNM@DPERR_INVALIDINTERFACE?$AA@
	DD	088770082H
	DD	FLAT:??_C@_0BE@FFPEJAKL@DPERR_INVALIDOBJECT?$AA@
	DD	080070057H
	DD	FLAT:??_C@_0BE@NINLPOPL@DPERR_INVALIDPARAMS?$AA@
	DD	088770154H
	DD	FLAT:??_C@_0BG@IOJGIAEJ@DPERR_INVALIDPASSWORD?$AA@
	DD	088770096H
	DD	FLAT:??_C@_0BE@MBKABPPO@DPERR_INVALIDPLAYER?$AA@
	DD	088770186H
	DD	FLAT:??_C@_0BG@NNHCHHOD@DPERR_INVALIDPRIORITY?$AA@
	DD	088770820H
	DD	FLAT:??_C@_0BC@MELIBBOO@DPERR_LOGONDENIED?$AA@
	DD	0887700a0H
	DD	FLAT:??_C@_0N@FAHDPIHF@DPERR_NOCAPS?$AA@
	DD	0887700aaH
	DD	FLAT:??_C@_0BD@KKENPFA@DPERR_NOCONNECTION?$AA@
	DD	080004002H
	DD	FLAT:??_C@_0BC@JMLMJBCI@DPERR_NOINTERFACE?$AA@
	DD	0887700beH
	DD	FLAT:??_C@_0BB@HBLIJGDD@DPERR_NOMESSAGES?$AA@
	DD	0887700c8H
	DD	FLAT:??_C@_0BI@EIACNNBO@DPERR_NONAMESERVERFOUND?$AA@
	DD	08877014aH
	DD	FLAT:??_C@_0BD@DOMEBGED@DPERR_NONEWPLAYERS?$AA@
	DD	0887700d2H
	DD	FLAT:??_C@_0BA@EOOCDAJ@DPERR_NOPLAYERS?$AA@
	DD	0887700dcH
	DD	FLAT:??_C@_0BB@OMCLIDBP@DPERR_NOSESSIONS?$AA@
	DD	08877042eH
	DD	FLAT:??_C@_0BB@KEJMNHMD@DPERR_NOTLOBBIED?$AA@
	DD	088770816H
	DD	FLAT:??_C@_0BC@BLFCMKHF@DPERR_NOTLOGGEDIN?$AA@
	DD	08007000eH
	DD	FLAT:??_C@_0BC@PBFFMHDJ@DPERR_OUTOFMEMORY?$AA@
	DD	08877012cH
	DD	FLAT:??_C@_0BB@OLDMKIH@DPERR_PLAYERLOST?$AA@
	DD	0887700e6H
	DD	FLAT:??_C@_0BB@OIDGCPGB@DPERR_SENDTOOBIG?$AA@
	DD	088770136H
	DD	FLAT:??_C@_0BC@FDONMHBP@DPERR_SESSIONLOST?$AA@
	DD	0887707eeH
	DD	FLAT:??_C@_0BB@EIIKKBNP@DPERR_SIGNFAILED?$AA@
	DD	0887700f0H
	DD	FLAT:??_C@_0O@LDDOIKAJ@DPERR_TIMEOUT?$AA@
	DD	0887700faH
	DD	FLAT:??_C@_0BC@EFJJKFJE@DPERR_UNAVAILABLE?$AA@
	DD	088770140H
	DD	FLAT:??_C@_0BE@LPMEIJMF@DPERR_UNINITIALIZED?$AA@
	DD	08877041aH
	DD	FLAT:??_C@_0BJ@HLLJJGFA@DPERR_UNKNOWNAPPLICATION?$AA@
	DD	088770172H
	DD	FLAT:??_C@_0BF@IBEONKCK@DPERR_UNKNOWNMESSAGE?$AA@
	DD	080004001H
	DD	FLAT:??_C@_0BC@NPHELNFN@DPERR_UNSUPPORTED?$AA@
	DD	088770118H
	DD	FLAT:??_C@_0BB@OFPDBPLG@DPERR_USERCANCEL?$AA@
	DD	00H
	DD	FLAT:??_C@_05MBDEGLCK@ERROR?$AA@
_DATA	ENDS
END
