; Listing generated by Microsoft (R) Optimizing Compiler Version 13.10.3077 

	TITLE	.\source\MenuData.cpp
	.386P
include listing.inc
if @Version gt 510
.model FLAT
else
_TEXT	SEGMENT PARA USE32 PUBLIC 'CODE'
_TEXT	ENDS
_DATA	SEGMENT DWORD USE32 PUBLIC 'DATA'
_DATA	ENDS
CONST	SEGMENT DWORD USE32 PUBLIC 'CONST'
CONST	ENDS
_BSS	SEGMENT DWORD USE32 PUBLIC 'BSS'
_BSS	ENDS
$$SYMBOLS	SEGMENT BYTE USE32 'DEBSYM'
$$SYMBOLS	ENDS
$$TYPES	SEGMENT BYTE USE32 'DEBTYP'
$$TYPES	ENDS
_TLS	SEGMENT DWORD USE32 PUBLIC 'TLS'
_TLS	ENDS
;	COMDAT _IsEqualGUID
_TEXT	SEGMENT PARA USE32 PUBLIC 'CODE'
_TEXT	ENDS
;	COMDAT _==
_TEXT	SEGMENT PARA USE32 PUBLIC 'CODE'
_TEXT	ENDS
;	COMDAT _acosl
_TEXT	SEGMENT PARA USE32 PUBLIC 'CODE'
_TEXT	ENDS
;	COMDAT _asinl
_TEXT	SEGMENT PARA USE32 PUBLIC 'CODE'
_TEXT	ENDS
;	COMDAT _atanl
_TEXT	SEGMENT PARA USE32 PUBLIC 'CODE'
_TEXT	ENDS
;	COMDAT _atan2l
_TEXT	SEGMENT PARA USE32 PUBLIC 'CODE'
_TEXT	ENDS
;	COMDAT _ceill
_TEXT	SEGMENT PARA USE32 PUBLIC 'CODE'
_TEXT	ENDS
;	COMDAT _cosl
_TEXT	SEGMENT PARA USE32 PUBLIC 'CODE'
_TEXT	ENDS
;	COMDAT _coshl
_TEXT	SEGMENT PARA USE32 PUBLIC 'CODE'
_TEXT	ENDS
;	COMDAT _expl
_TEXT	SEGMENT PARA USE32 PUBLIC 'CODE'
_TEXT	ENDS
;	COMDAT _fabsl
_TEXT	SEGMENT PARA USE32 PUBLIC 'CODE'
_TEXT	ENDS
;	COMDAT _floorl
_TEXT	SEGMENT PARA USE32 PUBLIC 'CODE'
_TEXT	ENDS
;	COMDAT _fmodl
_TEXT	SEGMENT PARA USE32 PUBLIC 'CODE'
_TEXT	ENDS
;	COMDAT _frexpl
_TEXT	SEGMENT PARA USE32 PUBLIC 'CODE'
_TEXT	ENDS
;	COMDAT _ldexpl
_TEXT	SEGMENT PARA USE32 PUBLIC 'CODE'
_TEXT	ENDS
;	COMDAT _logl
_TEXT	SEGMENT PARA USE32 PUBLIC 'CODE'
_TEXT	ENDS
;	COMDAT _log10l
_TEXT	SEGMENT PARA USE32 PUBLIC 'CODE'
_TEXT	ENDS
;	COMDAT _modfl
_TEXT	SEGMENT PARA USE32 PUBLIC 'CODE'
_TEXT	ENDS
;	COMDAT _powl
_TEXT	SEGMENT PARA USE32 PUBLIC 'CODE'
_TEXT	ENDS
;	COMDAT _sinl
_TEXT	SEGMENT PARA USE32 PUBLIC 'CODE'
_TEXT	ENDS
;	COMDAT _sinhl
_TEXT	SEGMENT PARA USE32 PUBLIC 'CODE'
_TEXT	ENDS
;	COMDAT _sqrtl
_TEXT	SEGMENT PARA USE32 PUBLIC 'CODE'
_TEXT	ENDS
;	COMDAT _tanl
_TEXT	SEGMENT PARA USE32 PUBLIC 'CODE'
_TEXT	ENDS
;	COMDAT _tanhl
_TEXT	SEGMENT PARA USE32 PUBLIC 'CODE'
_TEXT	ENDS
;	COMDAT _frexpf
_TEXT	SEGMENT PARA USE32 PUBLIC 'CODE'
_TEXT	ENDS
;	COMDAT _ldexpf
_TEXT	SEGMENT PARA USE32 PUBLIC 'CODE'
_TEXT	ENDS
;	COMDAT _acosf
_TEXT	SEGMENT PARA USE32 PUBLIC 'CODE'
_TEXT	ENDS
;	COMDAT _asinf
_TEXT	SEGMENT PARA USE32 PUBLIC 'CODE'
_TEXT	ENDS
;	COMDAT _atanf
_TEXT	SEGMENT PARA USE32 PUBLIC 'CODE'
_TEXT	ENDS
;	COMDAT _atan2f
_TEXT	SEGMENT PARA USE32 PUBLIC 'CODE'
_TEXT	ENDS
;	COMDAT _ceilf
_TEXT	SEGMENT PARA USE32 PUBLIC 'CODE'
_TEXT	ENDS
;	COMDAT _cosf
_TEXT	SEGMENT PARA USE32 PUBLIC 'CODE'
_TEXT	ENDS
;	COMDAT _coshf
_TEXT	SEGMENT PARA USE32 PUBLIC 'CODE'
_TEXT	ENDS
;	COMDAT _expf
_TEXT	SEGMENT PARA USE32 PUBLIC 'CODE'
_TEXT	ENDS
;	COMDAT _fabsf
_TEXT	SEGMENT PARA USE32 PUBLIC 'CODE'
_TEXT	ENDS
;	COMDAT _floorf
_TEXT	SEGMENT PARA USE32 PUBLIC 'CODE'
_TEXT	ENDS
;	COMDAT _fmodf
_TEXT	SEGMENT PARA USE32 PUBLIC 'CODE'
_TEXT	ENDS
;	COMDAT _logf
_TEXT	SEGMENT PARA USE32 PUBLIC 'CODE'
_TEXT	ENDS
;	COMDAT _log10f
_TEXT	SEGMENT PARA USE32 PUBLIC 'CODE'
_TEXT	ENDS
;	COMDAT _modff
_TEXT	SEGMENT PARA USE32 PUBLIC 'CODE'
_TEXT	ENDS
;	COMDAT _powf
_TEXT	SEGMENT PARA USE32 PUBLIC 'CODE'
_TEXT	ENDS
;	COMDAT _sinf
_TEXT	SEGMENT PARA USE32 PUBLIC 'CODE'
_TEXT	ENDS
;	COMDAT _sinhf
_TEXT	SEGMENT PARA USE32 PUBLIC 'CODE'
_TEXT	ENDS
;	COMDAT _sqrtf
_TEXT	SEGMENT PARA USE32 PUBLIC 'CODE'
_TEXT	ENDS
;	COMDAT _tanf
_TEXT	SEGMENT PARA USE32 PUBLIC 'CODE'
_TEXT	ENDS
;	COMDAT _tanhf
_TEXT	SEGMENT PARA USE32 PUBLIC 'CODE'
_TEXT	ENDS
;	COMDAT ?MainOptionsInitFunc@@YAXPAUt_Menu@@@Z
_TEXT	SEGMENT PARA USE32 PUBLIC 'CODE'
_TEXT	ENDS
;	COMDAT ?MainOptionStartLoopFunc@@YAHPAUt_Menu@@@Z
_TEXT	SEGMENT PARA USE32 PUBLIC 'CODE'
_TEXT	ENDS
;	COMDAT ??$_Pow_int@N@@YANNH@Z
_TEXT	SEGMENT PARA USE32 PUBLIC 'CODE'
_TEXT	ENDS
;	COMDAT ??$_Pow_int@H@@YAHHH@Z
_TEXT	SEGMENT PARA USE32 PUBLIC 'CODE'
_TEXT	ENDS
;	COMDAT ??$_Pow_int@M@@YAMMH@Z
_TEXT	SEGMENT PARA USE32 PUBLIC 'CODE'
_TEXT	ENDS
;	COMDAT ??$_Pow_int@O@@YAOOH@Z
_TEXT	SEGMENT PARA USE32 PUBLIC 'CODE'
_TEXT	ENDS
sxdata	SEGMENT DWORD USE32 'SXDATA'
sxdata	ENDS
FLAT	GROUP _DATA, CONST, _BSS
	ASSUME	CS: FLAT, DS: FLAT, SS: FLAT
endif

INCLUDELIB LIBCD
INCLUDELIB OLDNAMES

PUBLIC	?gMainOptions_Menu@@3Ut_Menu@@A			; gMainOptions_Menu
PUBLIC	?gMainOptions_MenuItemList@@3PAPAUt_MenuItem@@A	; gMainOptions_MenuItemList
PUBLIC	?gMainOptions_MenuItem_1@@3Ut_MenuItem@@A	; gMainOptions_MenuItem_1
PUBLIC	?gMainOptions_MenuItem_2@@3Ut_MenuItem@@A	; gMainOptions_MenuItem_2
PUBLIC	?gMainOptions_MenuItem_3@@3Ut_MenuItem@@A	; gMainOptions_MenuItem_3
PUBLIC	?gSubMenu_Menu@@3Ut_Menu@@A			; gSubMenu_Menu
PUBLIC	?gSubMenu_MenuItemList@@3PAPAUt_MenuItem@@A	; gSubMenu_MenuItemList
PUBLIC	?gSubMenu_MenuItem_1@@3Ut_MenuItem@@A		; gSubMenu_MenuItem_1
PUBLIC	?gSubMenu_MenuItem_2@@3Ut_MenuItem@@A		; gSubMenu_MenuItem_2
PUBLIC	?gSubMenu_MenuItem_3@@3Ut_MenuItem@@A		; gSubMenu_MenuItem_3
PUBLIC	?MainOptionsInitFunc@@YAXPAUt_Menu@@@Z		; MainOptionsInitFunc
PUBLIC	?MainOptionStartLoopFunc@@YAHPAUt_Menu@@@Z	; MainOptionStartLoopFunc
EXTRN	?DecLightPower@@YAXPAUt_Menu@@@Z:NEAR		; DecLightPower
EXTRN	?IncLightPower@@YAXPAUt_Menu@@@Z:NEAR		; IncLightPower
EXTRN	?DecLightStrength@@YAXPAUt_Menu@@@Z:NEAR	; DecLightStrength
EXTRN	?IncLightStrength@@YAXPAUt_Menu@@@Z:NEAR	; IncLightStrength
EXTRN	?gMainOptions_MenuItem_1_Text@@3PADA:BYTE	; gMainOptions_MenuItem_1_Text
EXTRN	?gMainOptions_MenuItem_2_Text@@3PADA:BYTE	; gMainOptions_MenuItem_2_Text
EXTRN	?gMainOptions_MenuItem_3_Text@@3PADA:BYTE	; gMainOptions_MenuItem_3_Text
EXTRN	?gSubMenu_MenuItem_1_Text@@3PADA:BYTE		; gSubMenu_MenuItem_1_Text
EXTRN	?gSubMenu_MenuItem_2_Text@@3PADA:BYTE		; gSubMenu_MenuItem_2_Text
EXTRN	?gSubMenu_MenuItem_3_Text@@3PADA:BYTE		; gSubMenu_MenuItem_3_Text
_DATA	SEGMENT
?gMainOptions_MenuItem_3@@3Ut_MenuItem@@A DD 040H	; gMainOptions_MenuItem_3
	DD	060H
	DD	FLAT:?gMainOptions_MenuItem_3_Text@@3PADA
	DD	00H
	DD	FLAT:?gMainOptions_MenuItem_2@@3Ut_MenuItem@@A
	DD	00H
	DD	00H
	DD	00H
	DD	00H
	DD	00H
	DD	00H
	DD	00H
	DD	00H
?gMainOptions_MenuItem_2@@3Ut_MenuItem@@A DD 040H	; gMainOptions_MenuItem_2
	DD	050H
	DD	FLAT:?gMainOptions_MenuItem_2_Text@@3PADA
	DD	00H
	DD	FLAT:?gMainOptions_MenuItem_1@@3Ut_MenuItem@@A
	DD	FLAT:?gMainOptions_MenuItem_3@@3Ut_MenuItem@@A
	DD	00H
	DD	00H
	DD	00H
	DD	00H
	DD	00H
	DD	00H
	DD	00H
?gSubMenu_MenuItem_3@@3Ut_MenuItem@@A DD 040H		; gSubMenu_MenuItem_3
	DD	060H
	DD	FLAT:?gSubMenu_MenuItem_3_Text@@3PADA
	DD	00H
	DD	FLAT:?gSubMenu_MenuItem_2@@3Ut_MenuItem@@A
	DD	00H
	DD	00H
	DD	00H
	DD	00H
	DD	00H
	DD	00H
	DD	00H
	DD	00H
?gSubMenu_MenuItem_2@@3Ut_MenuItem@@A DD 040H		; gSubMenu_MenuItem_2
	DD	050H
	DD	FLAT:?gSubMenu_MenuItem_2_Text@@3PADA
	DD	00H
	DD	FLAT:?gSubMenu_MenuItem_1@@3Ut_MenuItem@@A
	DD	FLAT:?gSubMenu_MenuItem_3@@3Ut_MenuItem@@A
	DD	00H
	DD	00H
	DD	00H
	DD	00H
	DD	00H
	DD	FLAT:?DecLightStrength@@YAXPAUt_Menu@@@Z
	DD	FLAT:?IncLightStrength@@YAXPAUt_Menu@@@Z
?gSubMenu_MenuItem_1@@3Ut_MenuItem@@A DD 040H		; gSubMenu_MenuItem_1
	DD	040H
	DD	FLAT:?gSubMenu_MenuItem_1_Text@@3PADA
	DD	00H
	DD	00H
	DD	FLAT:?gSubMenu_MenuItem_2@@3Ut_MenuItem@@A
	DD	00H
	DD	00H
	DD	00H
	DD	00H
	DD	00H
	DD	FLAT:?DecLightPower@@YAXPAUt_Menu@@@Z
	DD	FLAT:?IncLightPower@@YAXPAUt_Menu@@@Z
?gSubMenu_MenuItemList@@3PAPAUt_MenuItem@@A DD FLAT:?gSubMenu_MenuItem_1@@3Ut_MenuItem@@A ; gSubMenu_MenuItemList
	DD	FLAT:?gSubMenu_MenuItem_2@@3Ut_MenuItem@@A
	DD	FLAT:?gSubMenu_MenuItem_3@@3Ut_MenuItem@@A
	DD	00H
?gSubMenu_Menu@@3Ut_Menu@@A DD FLAT:?gSubMenu_MenuItemList@@3PAPAUt_MenuItem@@A ; gSubMenu_Menu
	DD	00H
	DD	00H
	DD	00H
	DD	00H
	ORG $+4
?gMainOptions_MenuItem_1@@3Ut_MenuItem@@A DD 040H	; gMainOptions_MenuItem_1
	DD	040H
	DD	FLAT:?gMainOptions_MenuItem_1_Text@@3PADA
	DD	00H
	DD	00H
	DD	FLAT:?gMainOptions_MenuItem_2@@3Ut_MenuItem@@A
	DD	00H
	DD	00H
	DD	FLAT:?gSubMenu_Menu@@3Ut_Menu@@A
	DD	00H
	DD	00H
	DD	00H
	DD	00H
?gMainOptions_MenuItemList@@3PAPAUt_MenuItem@@A DD FLAT:?gMainOptions_MenuItem_1@@3Ut_MenuItem@@A ; gMainOptions_MenuItemList
	DD	FLAT:?gMainOptions_MenuItem_2@@3Ut_MenuItem@@A
	DD	FLAT:?gMainOptions_MenuItem_3@@3Ut_MenuItem@@A
	DD	00H
?gMainOptions_Menu@@3Ut_Menu@@A DD FLAT:?gMainOptions_MenuItemList@@3PAPAUt_MenuItem@@A ; gMainOptions_Menu
	DD	00H
	DD	0ffffffffH
	DD	FLAT:?MainOptionsInitFunc@@YAXPAUt_Menu@@@Z
	DD	FLAT:?MainOptionStartLoopFunc@@YAHPAUt_Menu@@@Z
	ORG $+4
; Function compile flags: /Odt /ZI
; File c:\documents and settings\jarhead\desktop\shit to display my love for xbox revolt and fuck you borman-ness\revolt source\source\menudata.cpp
_DATA	ENDS
;	COMDAT ?MainOptionsInitFunc@@YAXPAUt_Menu@@@Z
_TEXT	SEGMENT
_pMenu$ = 8						; size = 4
?MainOptionsInitFunc@@YAXPAUt_Menu@@@Z PROC NEAR	; MainOptionsInitFunc, COMDAT

; 178  : {

	push	ebp
	mov	ebp, esp
	sub	esp, 64					; 00000040H
	push	ebx
	push	esi
	push	edi

; 179  : }

	pop	edi
	pop	esi
	pop	ebx
	mov	esp, ebp
	pop	ebp
	ret	0
?MainOptionsInitFunc@@YAXPAUt_Menu@@@Z ENDP		; MainOptionsInitFunc
; Function compile flags: /Odt /ZI
_TEXT	ENDS
;	COMDAT ?MainOptionStartLoopFunc@@YAHPAUt_Menu@@@Z
_TEXT	SEGMENT
_pMenu$ = 8						; size = 4
?MainOptionStartLoopFunc@@YAHPAUt_Menu@@@Z PROC NEAR	; MainOptionStartLoopFunc, COMDAT

; 182  : {

	push	ebp
	mov	ebp, esp
	sub	esp, 64					; 00000040H
	push	ebx
	push	esi
	push	edi

; 183  : 	return 0;

	xor	eax, eax

; 184  : }

	pop	edi
	pop	esi
	pop	ebx
	mov	esp, ebp
	pop	ebp
	ret	0
?MainOptionStartLoopFunc@@YAHPAUt_Menu@@@Z ENDP		; MainOptionStartLoopFunc
_TEXT	ENDS
END
