; Listing generated by Microsoft (R) Optimizing Compiler Version 13.10.3077 

	TITLE	.\source\objinfo.cpp
	.386P
include listing.inc
if @Version gt 510
.model FLAT
else
_TEXT	SEGMENT PARA USE32 PUBLIC 'CODE'
_TEXT	ENDS
_DATA	SEGMENT DWORD USE32 PUBLIC 'DATA'
_DATA	ENDS
CONST	SEGMENT DWORD USE32 PUBLIC 'CONST'
CONST	ENDS
_BSS	SEGMENT DWORD USE32 PUBLIC 'BSS'
_BSS	ENDS
$$SYMBOLS	SEGMENT BYTE USE32 'DEBSYM'
$$SYMBOLS	ENDS
$$TYPES	SEGMENT BYTE USE32 'DEBTYP'
$$TYPES	ENDS
_TLS	SEGMENT DWORD USE32 PUBLIC 'TLS'
_TLS	ENDS
;	COMDAT ??_C@_0BA@MLIPENIB@models?2barrel?4m?$AA@
CONST	SEGMENT DWORD USE32 PUBLIC 'CONST'
CONST	ENDS
;	COMDAT ??_C@_0BD@IEPIAIOA@models?2beachball?4m?$AA@
CONST	SEGMENT DWORD USE32 PUBLIC 'CONST'
CONST	ENDS
;	COMDAT ??_C@_0BB@NPGJJLBA@models?2mercury?4m?$AA@
CONST	SEGMENT DWORD USE32 PUBLIC 'CONST'
CONST	ENDS
;	COMDAT ??_C@_0P@MKEPFIEM@models?2venus?4m?$AA@
CONST	SEGMENT DWORD USE32 PUBLIC 'CONST'
CONST	ENDS
;	COMDAT ??_C@_0P@CFIHBFJ@models?2earth?4m?$AA@
CONST	SEGMENT DWORD USE32 PUBLIC 'CONST'
CONST	ENDS
;	COMDAT ??_C@_0O@HJKNFEM@models?2mars?4m?$AA@
CONST	SEGMENT DWORD USE32 PUBLIC 'CONST'
CONST	ENDS
;	COMDAT ??_C@_0BB@LJLNIFBN@models?2jupiter?4m?$AA@
CONST	SEGMENT DWORD USE32 PUBLIC 'CONST'
CONST	ENDS
;	COMDAT ??_C@_0BA@HGCIJNCI@models?2saturn?4m?$AA@
CONST	SEGMENT DWORD USE32 PUBLIC 'CONST'
CONST	ENDS
;	COMDAT ??_C@_0BA@LLKCMAAJ@models?2uranus?4m?$AA@
CONST	SEGMENT DWORD USE32 PUBLIC 'CONST'
CONST	ENDS
;	COMDAT ??_C@_0BB@GLNNBHIK@models?2neptune?4m?$AA@
CONST	SEGMENT DWORD USE32 PUBLIC 'CONST'
CONST	ENDS
;	COMDAT ??_C@_0P@NHAGCHNH@models?2pluto?4m?$AA@
CONST	SEGMENT DWORD USE32 PUBLIC 'CONST'
CONST	ENDS
;	COMDAT ??_C@_0O@HJDGIEN@models?2moon?4m?$AA@
CONST	SEGMENT DWORD USE32 PUBLIC 'CONST'
CONST	ENDS
;	COMDAT ??_C@_0P@JDIFPICA@models?2rings?4m?$AA@
CONST	SEGMENT DWORD USE32 PUBLIC 'CONST'
CONST	ENDS
;	COMDAT ??_C@_0P@KKMAIBN@models?2plane?4m?$AA@
CONST	SEGMENT DWORD USE32 PUBLIC 'CONST'
CONST	ENDS
;	COMDAT ??_C@_0BA@DIHOJJGI@models?2copter?4m?$AA@
CONST	SEGMENT DWORD USE32 PUBLIC 'CONST'
CONST	ENDS
;	COMDAT ??_C@_0BB@LEFLKGBF@models?2dragon1?4m?$AA@
CONST	SEGMENT DWORD USE32 PUBLIC 'CONST'
CONST	ENDS
;	COMDAT ??_C@_0P@IILLKNNL@models?2water?4m?$AA@
CONST	SEGMENT DWORD USE32 PUBLIC 'CONST'
CONST	ENDS
;	COMDAT ??_C@_0BB@CLJMFCFI@models?2trolley?4m?$AA@
CONST	SEGMENT DWORD USE32 PUBLIC 'CONST'
CONST	ENDS
;	COMDAT ??_C@_0P@GLOFDDAA@models?2boat1?4m?$AA@
CONST	SEGMENT DWORD USE32 PUBLIC 'CONST'
CONST	ENDS
;	COMDAT ??_C@_0BB@BCFFGCNJ@models?2speedup?4m?$AA@
CONST	SEGMENT DWORD USE32 PUBLIC 'CONST'
CONST	ENDS
;	COMDAT ??_C@_0P@DGANAHOE@models?2radar?4m?$AA@
CONST	SEGMENT DWORD USE32 PUBLIC 'CONST'
CONST	ENDS
;	COMDAT ??_C@_0BB@BLAENPIJ@models?2balloon?4m?$AA@
CONST	SEGMENT DWORD USE32 PUBLIC 'CONST'
CONST	ENDS
;	COMDAT ??_C@_0P@IJCIBLBI@models?2horse?4m?$AA@
CONST	SEGMENT DWORD USE32 PUBLIC 'CONST'
CONST	ENDS
;	COMDAT ??_C@_0P@NMCGLKGF@models?2train?4m?$AA@
CONST	SEGMENT DWORD USE32 PUBLIC 'CONST'
CONST	ENDS
;	COMDAT ??_C@_0BA@CDOEHGHP@models?2light1?4m?$AA@
CONST	SEGMENT DWORD USE32 PUBLIC 'CONST'
CONST	ENDS
;	COMDAT ??_C@_0BA@DBFBNJJB@models?2light2?4m?$AA@
CONST	SEGMENT DWORD USE32 PUBLIC 'CONST'
CONST	ENDS
;	COMDAT ??_C@_0BC@BODDIPCE@models?2football?4m?$AA@
CONST	SEGMENT DWORD USE32 PUBLIC 'CONST'
CONST	ENDS
;	COMDAT ??_C@_0M@JNPPPCPI@edit?2spot?4m?$AA@
CONST	SEGMENT DWORD USE32 PUBLIC 'CONST'
CONST	ENDS
;	COMDAT ??_C@_0BC@EJHHCMKH@models?2spaceman?4m?$AA@
CONST	SEGMENT DWORD USE32 PUBLIC 'CONST'
CONST	ENDS
;	COMDAT ??_C@_0BA@FADIHEP@models?2pickup?4m?$AA@
CONST	SEGMENT DWORD USE32 PUBLIC 'CONST'
CONST	ENDS
;	COMDAT ??_C@_0O@IMPGNANE@models?2flap?4m?$AA@
CONST	SEGMENT DWORD USE32 PUBLIC 'CONST'
CONST	ENDS
;	COMDAT ??_C@_02JINPPBEP@No?$AA@
CONST	SEGMENT DWORD USE32 PUBLIC 'CONST'
CONST	ENDS
;	COMDAT ??_C@_03CCLAEDDF@Yes?$AA@
CONST	SEGMENT DWORD USE32 PUBLIC 'CONST'
CONST	ENDS
;	COMDAT ??_C@_03GCDBBDDL@Off?$AA@
CONST	SEGMENT DWORD USE32 PUBLIC 'CONST'
CONST	ENDS
;	COMDAT ??_C@_02IAAGKKDJ@On?$AA@
CONST	SEGMENT DWORD USE32 PUBLIC 'CONST'
CONST	ENDS
;	COMDAT ??_C@_01MMEEDKFM@X?$AA@
CONST	SEGMENT DWORD USE32 PUBLIC 'CONST'
CONST	ENDS
;	COMDAT ??_C@_01NFFPALBN@Y?$AA@
CONST	SEGMENT DWORD USE32 PUBLIC 'CONST'
CONST	ENDS
;	COMDAT ??_C@_01POHCFINO@Z?$AA@
CONST	SEGMENT DWORD USE32 PUBLIC 'CONST'
CONST	ENDS
;	COMDAT ??_C@_07JMNKBLJA@Mercury?$AA@
CONST	SEGMENT DWORD USE32 PUBLIC 'CONST'
CONST	ENDS
;	COMDAT ??_C@_05EIOJENDF@Venus?$AA@
CONST	SEGMENT DWORD USE32 PUBLIC 'CONST'
CONST	ENDS
;	COMDAT ??_C@_05IKBANCEK@Earth?$AA@
CONST	SEGMENT DWORD USE32 PUBLIC 'CONST'
CONST	ENDS
;	COMDAT ??_C@_04EJEDJCHH@Mars?$AA@
CONST	SEGMENT DWORD USE32 PUBLIC 'CONST'
CONST	ENDS
;	COMDAT ??_C@_07LEJIDMLG@Jupiter?$AA@
CONST	SEGMENT DWORD USE32 PUBLIC 'CONST'
CONST	ENDS
;	COMDAT ??_C@_06EPLOODOC@Saturn?$AA@
CONST	SEGMENT DWORD USE32 PUBLIC 'CONST'
CONST	ENDS
;	COMDAT ??_C@_06HMBHBEBI@Uranus?$AA@
CONST	SEGMENT DWORD USE32 PUBLIC 'CONST'
CONST	ENDS
;	COMDAT ??_C@_07HOBGPBKD@Neptune?$AA@
CONST	SEGMENT DWORD USE32 PUBLIC 'CONST'
CONST	ENDS
;	COMDAT ??_C@_05PDANCLKN@Pluto?$AA@
CONST	SEGMENT DWORD USE32 PUBLIC 'CONST'
CONST	ENDS
;	COMDAT ??_C@_04ECAOLJHL@Moon?$AA@
CONST	SEGMENT DWORD USE32 PUBLIC 'CONST'
CONST	ENDS
;	COMDAT ??_C@_05JCKJFDM@Rings?$AA@
CONST	SEGMENT DWORD USE32 PUBLIC 'CONST'
CONST	ENDS
;	COMDAT ??_C@_03KOEHGMDN@Sun?$AA@
CONST	SEGMENT DWORD USE32 PUBLIC 'CONST'
CONST	ENDS
;	COMDAT ??_C@_04ELLKPJJL@Sail?$AA@
CONST	SEGMENT DWORD USE32 PUBLIC 'CONST'
CONST	ENDS
;	COMDAT ??_C@_03OCFCOPMN@Tug?$AA@
CONST	SEGMENT DWORD USE32 PUBLIC 'CONST'
CONST	ENDS
;	COMDAT ??_C@_09HHEKCPGB@Muse?5Post?$AA@
CONST	SEGMENT DWORD USE32 PUBLIC 'CONST'
CONST	ENDS
;	COMDAT ??_C@_09LANEPIFG@Muse?5Wall?$AA@
CONST	SEGMENT DWORD USE32 PUBLIC 'CONST'
CONST	ENDS
;	COMDAT ??_C@_07BKHKNDOB@Scratch?$AA@
CONST	SEGMENT DWORD USE32 PUBLIC 'CONST'
CONST	ENDS
;	COMDAT ??_C@_04LOGCFOOF@Snow?$AA@
CONST	SEGMENT DWORD USE32 PUBLIC 'CONST'
CONST	ENDS
;	COMDAT ??_C@_07GJDKNNEG@PopCorn?$AA@
CONST	SEGMENT DWORD USE32 PUBLIC 'CONST'
CONST	ENDS
;	COMDAT ??_C@_06MIIHELGB@Gravel?$AA@
CONST	SEGMENT DWORD USE32 PUBLIC 'CONST'
CONST	ENDS
;	COMDAT ??_C@_04IGCMGFBG@Sand?$AA@
CONST	SEGMENT DWORD USE32 PUBLIC 'CONST'
CONST	ENDS
;	COMDAT ??_C@_03OEGOKEBL@Mud?$AA@
CONST	SEGMENT DWORD USE32 PUBLIC 'CONST'
CONST	ENDS
;	COMDAT ??_C@_08JJOLOAII@Electric?$AA@
CONST	SEGMENT DWORD USE32 PUBLIC 'CONST'
CONST	ENDS
;	COMDAT ??_C@_05EMKMBNJK@Water?$AA@
CONST	SEGMENT DWORD USE32 PUBLIC 'CONST'
CONST	ENDS
;	COMDAT ??_C@_04MOKGEOCO@Dirt?$AA@
CONST	SEGMENT DWORD USE32 PUBLIC 'CONST'
CONST	ENDS
;	COMDAT ??_C@_06LLMAFBMI@Smoke1?$AA@
CONST	SEGMENT DWORD USE32 PUBLIC 'CONST'
CONST	ENDS
;	COMDAT ??_C@_06JAONACAL@Smoke2?$AA@
CONST	SEGMENT DWORD USE32 PUBLIC 'CONST'
CONST	ENDS
;	COMDAT ??_C@_06BEOPDEGP@Random?$AA@
CONST	SEGMENT DWORD USE32 PUBLIC 'CONST'
CONST	ENDS
;	COMDAT ??_C@_05KCLFCCEP@Clone?$AA@
CONST	SEGMENT DWORD USE32 PUBLIC 'CONST'
CONST	ENDS
;	COMDAT ??_C@_0BA@BDPLFHDD@Spinning?5Barrel?$AA@
CONST	SEGMENT DWORD USE32 PUBLIC 'CONST'
CONST	ENDS
;	COMDAT ??_C@_05HOIAGEJD@Speed?$AA@
CONST	SEGMENT DWORD USE32 PUBLIC 'CONST'
CONST	ENDS
;	COMDAT ??_C@_09DKJLFNDB@Beachball?$AA@
CONST	SEGMENT DWORD USE32 PUBLIC 'CONST'
CONST	ENDS
;	COMDAT ??_C@_06EEJEGNOD@Planet?$AA@
CONST	SEGMENT DWORD USE32 PUBLIC 'CONST'
CONST	ENDS
;	COMDAT ??_C@_04FABLJDN@Name?$AA@
CONST	SEGMENT DWORD USE32 PUBLIC 'CONST'
CONST	ENDS
;	COMDAT ??_C@_05KOFLCGJP@Orbit?$AA@
CONST	SEGMENT DWORD USE32 PUBLIC 'CONST'
CONST	ENDS
;	COMDAT ??_C@_0M@JCFLIFKI@Orbit?5Speed?$AA@
CONST	SEGMENT DWORD USE32 PUBLIC 'CONST'
CONST	ENDS
;	COMDAT ??_C@_0L@EOGAPDLN@Spin?5speed?$AA@
CONST	SEGMENT DWORD USE32 PUBLIC 'CONST'
CONST	ENDS
;	COMDAT ??_C@_05MHCICFEJ@Plane?$AA@
CONST	SEGMENT DWORD USE32 PUBLIC 'CONST'
CONST	ENDS
;	COMDAT ??_C@_06GJMFONGK@Radius?$AA@
CONST	SEGMENT DWORD USE32 PUBLIC 'CONST'
CONST	ENDS
;	COMDAT ??_C@_04FMDEMHOL@Bank?$AA@
CONST	SEGMENT DWORD USE32 PUBLIC 'CONST'
CONST	ENDS
;	COMDAT ??_C@_06KAEIDHFB@Copter?$AA@
CONST	SEGMENT DWORD USE32 PUBLIC 'CONST'
CONST	ENDS
;	COMDAT ??_C@_07LPPAMBDJ@X?5range?$AA@
CONST	SEGMENT DWORD USE32 PUBLIC 'CONST'
CONST	ENDS
;	COMDAT ??_C@_07HDFKMBKH@Y?5range?$AA@
CONST	SEGMENT DWORD USE32 PUBLIC 'CONST'
CONST	ENDS
;	COMDAT ??_C@_07PNNFMGEE@Z?5range?$AA@
CONST	SEGMENT DWORD USE32 PUBLIC 'CONST'
CONST	ENDS
;	COMDAT ??_C@_08PHJFJGMH@Y?5offset?$AA@
CONST	SEGMENT DWORD USE32 PUBLIC 'CONST'
CONST	ENDS
;	COMDAT ??_C@_06COGLIGFC@Dragon?$AA@
CONST	SEGMENT DWORD USE32 PUBLIC 'CONST'
CONST	ENDS
;	COMDAT ??_C@_07FEDHLIKE@Trolley?$AA@
CONST	SEGMENT DWORD USE32 PUBLIC 'CONST'
CONST	ENDS
;	COMDAT ??_C@_04HKONPJHL@Boat?$AA@
CONST	SEGMENT DWORD USE32 PUBLIC 'CONST'
CONST	ENDS
;	COMDAT ??_C@_04KOACHJEN@Type?$AA@
CONST	SEGMENT DWORD USE32 PUBLIC 'CONST'
CONST	ENDS
;	COMDAT ??_C@_07GNLGNBFF@Speedup?$AA@
CONST	SEGMENT DWORD USE32 PUBLIC 'CONST'
CONST	ENDS
;	COMDAT ??_C@_0O@DNNHDLHG@Width?5?5?5?5?5?5?5?5?$AA@
CONST	SEGMENT DWORD USE32 PUBLIC 'CONST'
CONST	ENDS
;	COMDAT ??_C@_0O@IAIKDIMK@LoSpeed?5?$CImph?$CJ?$AA@
CONST	SEGMENT DWORD USE32 PUBLIC 'CONST'
CONST	ENDS
;	COMDAT ??_C@_0O@DJMDGIAM@HiSpeed?5?$CImph?$CJ?$AA@
CONST	SEGMENT DWORD USE32 PUBLIC 'CONST'
CONST	ENDS
;	COMDAT ??_C@_0O@MLODGLIN@Time?5?$CIs?$CJ?5?5?5?5?5?$AA@
CONST	SEGMENT DWORD USE32 PUBLIC 'CONST'
CONST	ENDS
;	COMDAT ??_C@_05ELHBHDGK@Radar?$AA@
CONST	SEGMENT DWORD USE32 PUBLIC 'CONST'
CONST	ENDS
;	COMDAT ??_C@_07CEOANKFL@Balloon?$AA@
CONST	SEGMENT DWORD USE32 PUBLIC 'CONST'
CONST	ENDS
;	COMDAT ??_C@_05DJFPBHDN@Horse?$AA@
CONST	SEGMENT DWORD USE32 PUBLIC 'CONST'
CONST	ENDS
;	COMDAT ??_C@_05GFNCIBPC@Train?$AA@
CONST	SEGMENT DWORD USE32 PUBLIC 'CONST'
CONST	ENDS
;	COMDAT ??_C@_06FDJDEICK@Strobe?$AA@
CONST	SEGMENT DWORD USE32 PUBLIC 'CONST'
CONST	ENDS
;	COMDAT ??_C@_0N@NCGHDLJN@Sequence?5Num?$AA@
CONST	SEGMENT DWORD USE32 PUBLIC 'CONST'
CONST	ENDS
;	COMDAT ??_C@_0P@HPJNHGEB@Sequence?5Count?$AA@
CONST	SEGMENT DWORD USE32 PUBLIC 'CONST'
CONST	ENDS
;	COMDAT ??_C@_08LIBFPCLE@Football?$AA@
CONST	SEGMENT DWORD USE32 PUBLIC 'CONST'
CONST	ENDS
;	COMDAT ??_C@_0BA@MOLFKJLN@Spark?5Generator?$AA@
CONST	SEGMENT DWORD USE32 PUBLIC 'CONST'
CONST	ENDS
;	COMDAT ??_C@_09PNEIDCHP@Av?4?5Speed?$AA@
CONST	SEGMENT DWORD USE32 PUBLIC 'CONST'
CONST	ENDS
;	COMDAT ??_C@_0L@PHPPKOFO@Var?4?5Speed?$AA@
CONST	SEGMENT DWORD USE32 PUBLIC 'CONST'
CONST	ENDS
;	COMDAT ??_C@_09OGDICNME@Frequency?$AA@
CONST	SEGMENT DWORD USE32 PUBLIC 'CONST'
CONST	ENDS
;	COMDAT ??_C@_09FKAHEJHJ@Space?5Man?$AA@
CONST	SEGMENT DWORD USE32 PUBLIC 'CONST'
CONST	ENDS
;	COMDAT ??_C@_0BB@CDIMHABE@Pickup?5Generator?$AA@
CONST	SEGMENT DWORD USE32 PUBLIC 'CONST'
CONST	ENDS
;	COMDAT ??_C@_08DKIDFMFG@Flappage?$AA@
CONST	SEGMENT DWORD USE32 PUBLIC 'CONST'
CONST	ENDS
;	COMDAT ??_C@_05LIGKNHHL@Laser?$AA@
CONST	SEGMENT DWORD USE32 PUBLIC 'CONST'
CONST	ENDS
;	COMDAT ??_C@_05IBAMDCFI@Width?$AA@
CONST	SEGMENT DWORD USE32 PUBLIC 'CONST'
CONST	ENDS
;	COMDAT ??_C@_04LLEMEMKG@Rand?$AA@
CONST	SEGMENT DWORD USE32 PUBLIC 'CONST'
CONST	ENDS
;	COMDAT ??_C@_06ELFECKBG@Object?$AA@
CONST	SEGMENT DWORD USE32 PUBLIC 'CONST'
CONST	ENDS
;	COMDAT _IsEqualGUID
_TEXT	SEGMENT PARA USE32 PUBLIC 'CODE'
_TEXT	ENDS
;	COMDAT _==
_TEXT	SEGMENT PARA USE32 PUBLIC 'CODE'
_TEXT	ENDS
;	COMDAT _acosl
_TEXT	SEGMENT PARA USE32 PUBLIC 'CODE'
_TEXT	ENDS
;	COMDAT _asinl
_TEXT	SEGMENT PARA USE32 PUBLIC 'CODE'
_TEXT	ENDS
;	COMDAT _atanl
_TEXT	SEGMENT PARA USE32 PUBLIC 'CODE'
_TEXT	ENDS
;	COMDAT _atan2l
_TEXT	SEGMENT PARA USE32 PUBLIC 'CODE'
_TEXT	ENDS
;	COMDAT _ceill
_TEXT	SEGMENT PARA USE32 PUBLIC 'CODE'
_TEXT	ENDS
;	COMDAT _cosl
_TEXT	SEGMENT PARA USE32 PUBLIC 'CODE'
_TEXT	ENDS
;	COMDAT _coshl
_TEXT	SEGMENT PARA USE32 PUBLIC 'CODE'
_TEXT	ENDS
;	COMDAT _expl
_TEXT	SEGMENT PARA USE32 PUBLIC 'CODE'
_TEXT	ENDS
;	COMDAT _fabsl
_TEXT	SEGMENT PARA USE32 PUBLIC 'CODE'
_TEXT	ENDS
;	COMDAT _floorl
_TEXT	SEGMENT PARA USE32 PUBLIC 'CODE'
_TEXT	ENDS
;	COMDAT _fmodl
_TEXT	SEGMENT PARA USE32 PUBLIC 'CODE'
_TEXT	ENDS
;	COMDAT _frexpl
_TEXT	SEGMENT PARA USE32 PUBLIC 'CODE'
_TEXT	ENDS
;	COMDAT _ldexpl
_TEXT	SEGMENT PARA USE32 PUBLIC 'CODE'
_TEXT	ENDS
;	COMDAT _logl
_TEXT	SEGMENT PARA USE32 PUBLIC 'CODE'
_TEXT	ENDS
;	COMDAT _log10l
_TEXT	SEGMENT PARA USE32 PUBLIC 'CODE'
_TEXT	ENDS
;	COMDAT _modfl
_TEXT	SEGMENT PARA USE32 PUBLIC 'CODE'
_TEXT	ENDS
;	COMDAT _powl
_TEXT	SEGMENT PARA USE32 PUBLIC 'CODE'
_TEXT	ENDS
;	COMDAT _sinl
_TEXT	SEGMENT PARA USE32 PUBLIC 'CODE'
_TEXT	ENDS
;	COMDAT _sinhl
_TEXT	SEGMENT PARA USE32 PUBLIC 'CODE'
_TEXT	ENDS
;	COMDAT _sqrtl
_TEXT	SEGMENT PARA USE32 PUBLIC 'CODE'
_TEXT	ENDS
;	COMDAT _tanl
_TEXT	SEGMENT PARA USE32 PUBLIC 'CODE'
_TEXT	ENDS
;	COMDAT _tanhl
_TEXT	SEGMENT PARA USE32 PUBLIC 'CODE'
_TEXT	ENDS
;	COMDAT _frexpf
_TEXT	SEGMENT PARA USE32 PUBLIC 'CODE'
_TEXT	ENDS
;	COMDAT _ldexpf
_TEXT	SEGMENT PARA USE32 PUBLIC 'CODE'
_TEXT	ENDS
;	COMDAT _acosf
_TEXT	SEGMENT PARA USE32 PUBLIC 'CODE'
_TEXT	ENDS
;	COMDAT _asinf
_TEXT	SEGMENT PARA USE32 PUBLIC 'CODE'
_TEXT	ENDS
;	COMDAT _atanf
_TEXT	SEGMENT PARA USE32 PUBLIC 'CODE'
_TEXT	ENDS
;	COMDAT _atan2f
_TEXT	SEGMENT PARA USE32 PUBLIC 'CODE'
_TEXT	ENDS
;	COMDAT _ceilf
_TEXT	SEGMENT PARA USE32 PUBLIC 'CODE'
_TEXT	ENDS
;	COMDAT _cosf
_TEXT	SEGMENT PARA USE32 PUBLIC 'CODE'
_TEXT	ENDS
;	COMDAT _coshf
_TEXT	SEGMENT PARA USE32 PUBLIC 'CODE'
_TEXT	ENDS
;	COMDAT _expf
_TEXT	SEGMENT PARA USE32 PUBLIC 'CODE'
_TEXT	ENDS
;	COMDAT _fabsf
_TEXT	SEGMENT PARA USE32 PUBLIC 'CODE'
_TEXT	ENDS
;	COMDAT _floorf
_TEXT	SEGMENT PARA USE32 PUBLIC 'CODE'
_TEXT	ENDS
;	COMDAT _fmodf
_TEXT	SEGMENT PARA USE32 PUBLIC 'CODE'
_TEXT	ENDS
;	COMDAT _logf
_TEXT	SEGMENT PARA USE32 PUBLIC 'CODE'
_TEXT	ENDS
;	COMDAT _log10f
_TEXT	SEGMENT PARA USE32 PUBLIC 'CODE'
_TEXT	ENDS
;	COMDAT _modff
_TEXT	SEGMENT PARA USE32 PUBLIC 'CODE'
_TEXT	ENDS
;	COMDAT _powf
_TEXT	SEGMENT PARA USE32 PUBLIC 'CODE'
_TEXT	ENDS
;	COMDAT _sinf
_TEXT	SEGMENT PARA USE32 PUBLIC 'CODE'
_TEXT	ENDS
;	COMDAT _sinhf
_TEXT	SEGMENT PARA USE32 PUBLIC 'CODE'
_TEXT	ENDS
;	COMDAT _sqrtf
_TEXT	SEGMENT PARA USE32 PUBLIC 'CODE'
_TEXT	ENDS
;	COMDAT _tanf
_TEXT	SEGMENT PARA USE32 PUBLIC 'CODE'
_TEXT	ENDS
;	COMDAT _tanhf
_TEXT	SEGMENT PARA USE32 PUBLIC 'CODE'
_TEXT	ENDS
;	COMDAT ??$_Pow_int@N@@YANNH@Z
_TEXT	SEGMENT PARA USE32 PUBLIC 'CODE'
_TEXT	ENDS
;	COMDAT ??$_Pow_int@H@@YAHHH@Z
_TEXT	SEGMENT PARA USE32 PUBLIC 'CODE'
_TEXT	ENDS
;	COMDAT ??$_Pow_int@M@@YAMMH@Z
_TEXT	SEGMENT PARA USE32 PUBLIC 'CODE'
_TEXT	ENDS
;	COMDAT ??$_Pow_int@O@@YAOOH@Z
_TEXT	SEGMENT PARA USE32 PUBLIC 'CODE'
_TEXT	ENDS
sxdata	SEGMENT DWORD USE32 'SXDATA'
sxdata	ENDS
FLAT	GROUP _DATA, CONST, _BSS
	ASSUME	CS: FLAT, DS: FLAT, SS: FLAT
endif

INCLUDELIB LIBCD
INCLUDELIB OLDNAMES

PUBLIC	?FileObjectModelList@@3PAPADA			; FileObjectModelList
PUBLIC	?FileObjectInfo@@3PAUFILE_OBJECT_INFO@@A	; FileObjectInfo
PUBLIC	??_C@_0BA@MLIPENIB@models?2barrel?4m?$AA@	; `string'
PUBLIC	??_C@_0BD@IEPIAIOA@models?2beachball?4m?$AA@	; `string'
PUBLIC	??_C@_0BB@NPGJJLBA@models?2mercury?4m?$AA@	; `string'
PUBLIC	??_C@_0P@MKEPFIEM@models?2venus?4m?$AA@		; `string'
PUBLIC	??_C@_0P@CFIHBFJ@models?2earth?4m?$AA@		; `string'
PUBLIC	??_C@_0O@HJKNFEM@models?2mars?4m?$AA@		; `string'
PUBLIC	??_C@_0BB@LJLNIFBN@models?2jupiter?4m?$AA@	; `string'
PUBLIC	??_C@_0BA@HGCIJNCI@models?2saturn?4m?$AA@	; `string'
PUBLIC	??_C@_0BA@LLKCMAAJ@models?2uranus?4m?$AA@	; `string'
PUBLIC	??_C@_0BB@GLNNBHIK@models?2neptune?4m?$AA@	; `string'
PUBLIC	??_C@_0P@NHAGCHNH@models?2pluto?4m?$AA@		; `string'
PUBLIC	??_C@_0O@HJDGIEN@models?2moon?4m?$AA@		; `string'
PUBLIC	??_C@_0P@JDIFPICA@models?2rings?4m?$AA@		; `string'
PUBLIC	??_C@_0P@KKMAIBN@models?2plane?4m?$AA@		; `string'
PUBLIC	??_C@_0BA@DIHOJJGI@models?2copter?4m?$AA@	; `string'
PUBLIC	??_C@_0BB@LEFLKGBF@models?2dragon1?4m?$AA@	; `string'
PUBLIC	??_C@_0P@IILLKNNL@models?2water?4m?$AA@		; `string'
PUBLIC	??_C@_0BB@CLJMFCFI@models?2trolley?4m?$AA@	; `string'
PUBLIC	??_C@_0P@GLOFDDAA@models?2boat1?4m?$AA@		; `string'
PUBLIC	??_C@_0BB@BCFFGCNJ@models?2speedup?4m?$AA@	; `string'
PUBLIC	??_C@_0P@DGANAHOE@models?2radar?4m?$AA@		; `string'
PUBLIC	??_C@_0BB@BLAENPIJ@models?2balloon?4m?$AA@	; `string'
PUBLIC	??_C@_0P@IJCIBLBI@models?2horse?4m?$AA@		; `string'
PUBLIC	??_C@_0P@NMCGLKGF@models?2train?4m?$AA@		; `string'
PUBLIC	??_C@_0BA@CDOEHGHP@models?2light1?4m?$AA@	; `string'
PUBLIC	??_C@_0BA@DBFBNJJB@models?2light2?4m?$AA@	; `string'
PUBLIC	??_C@_0BC@BODDIPCE@models?2football?4m?$AA@	; `string'
PUBLIC	??_C@_0M@JNPPPCPI@edit?2spot?4m?$AA@		; `string'
PUBLIC	??_C@_0BC@EJHHCMKH@models?2spaceman?4m?$AA@	; `string'
PUBLIC	??_C@_0BA@FADIHEP@models?2pickup?4m?$AA@	; `string'
PUBLIC	??_C@_0O@IMPGNANE@models?2flap?4m?$AA@		; `string'
PUBLIC	??_C@_02JINPPBEP@No?$AA@			; `string'
PUBLIC	??_C@_03CCLAEDDF@Yes?$AA@			; `string'
PUBLIC	??_C@_03GCDBBDDL@Off?$AA@			; `string'
PUBLIC	??_C@_02IAAGKKDJ@On?$AA@			; `string'
PUBLIC	??_C@_01MMEEDKFM@X?$AA@				; `string'
PUBLIC	??_C@_01NFFPALBN@Y?$AA@				; `string'
PUBLIC	??_C@_01POHCFINO@Z?$AA@				; `string'
PUBLIC	??_C@_07JMNKBLJA@Mercury?$AA@			; `string'
PUBLIC	??_C@_05EIOJENDF@Venus?$AA@			; `string'
PUBLIC	??_C@_05IKBANCEK@Earth?$AA@			; `string'
PUBLIC	??_C@_04EJEDJCHH@Mars?$AA@			; `string'
PUBLIC	??_C@_07LEJIDMLG@Jupiter?$AA@			; `string'
PUBLIC	??_C@_06EPLOODOC@Saturn?$AA@			; `string'
PUBLIC	??_C@_06HMBHBEBI@Uranus?$AA@			; `string'
PUBLIC	??_C@_07HOBGPBKD@Neptune?$AA@			; `string'
PUBLIC	??_C@_05PDANCLKN@Pluto?$AA@			; `string'
PUBLIC	??_C@_04ECAOLJHL@Moon?$AA@			; `string'
PUBLIC	??_C@_05JCKJFDM@Rings?$AA@			; `string'
PUBLIC	??_C@_03KOEHGMDN@Sun?$AA@			; `string'
PUBLIC	??_C@_04ELLKPJJL@Sail?$AA@			; `string'
PUBLIC	??_C@_03OCFCOPMN@Tug?$AA@			; `string'
PUBLIC	??_C@_09HHEKCPGB@Muse?5Post?$AA@		; `string'
PUBLIC	??_C@_09LANEPIFG@Muse?5Wall?$AA@		; `string'
PUBLIC	??_C@_07BKHKNDOB@Scratch?$AA@			; `string'
PUBLIC	??_C@_04LOGCFOOF@Snow?$AA@			; `string'
PUBLIC	??_C@_07GJDKNNEG@PopCorn?$AA@			; `string'
PUBLIC	??_C@_06MIIHELGB@Gravel?$AA@			; `string'
PUBLIC	??_C@_04IGCMGFBG@Sand?$AA@			; `string'
PUBLIC	??_C@_03OEGOKEBL@Mud?$AA@			; `string'
PUBLIC	??_C@_08JJOLOAII@Electric?$AA@			; `string'
PUBLIC	??_C@_05EMKMBNJK@Water?$AA@			; `string'
PUBLIC	??_C@_04MOKGEOCO@Dirt?$AA@			; `string'
PUBLIC	??_C@_06LLMAFBMI@Smoke1?$AA@			; `string'
PUBLIC	??_C@_06JAONACAL@Smoke2?$AA@			; `string'
PUBLIC	??_C@_06BEOPDEGP@Random?$AA@			; `string'
PUBLIC	??_C@_05KCLFCCEP@Clone?$AA@			; `string'
PUBLIC	??_C@_0BA@BDPLFHDD@Spinning?5Barrel?$AA@	; `string'
PUBLIC	??_C@_05HOIAGEJD@Speed?$AA@			; `string'
PUBLIC	??_C@_09DKJLFNDB@Beachball?$AA@			; `string'
PUBLIC	??_C@_06EEJEGNOD@Planet?$AA@			; `string'
PUBLIC	??_C@_04FABLJDN@Name?$AA@			; `string'
PUBLIC	??_C@_05KOFLCGJP@Orbit?$AA@			; `string'
PUBLIC	??_C@_0M@JCFLIFKI@Orbit?5Speed?$AA@		; `string'
PUBLIC	??_C@_0L@EOGAPDLN@Spin?5speed?$AA@		; `string'
PUBLIC	??_C@_05MHCICFEJ@Plane?$AA@			; `string'
PUBLIC	??_C@_06GJMFONGK@Radius?$AA@			; `string'
PUBLIC	??_C@_04FMDEMHOL@Bank?$AA@			; `string'
PUBLIC	??_C@_06KAEIDHFB@Copter?$AA@			; `string'
PUBLIC	??_C@_07LPPAMBDJ@X?5range?$AA@			; `string'
PUBLIC	??_C@_07HDFKMBKH@Y?5range?$AA@			; `string'
PUBLIC	??_C@_07PNNFMGEE@Z?5range?$AA@			; `string'
PUBLIC	??_C@_08PHJFJGMH@Y?5offset?$AA@			; `string'
PUBLIC	??_C@_06COGLIGFC@Dragon?$AA@			; `string'
PUBLIC	??_C@_07FEDHLIKE@Trolley?$AA@			; `string'
PUBLIC	??_C@_04HKONPJHL@Boat?$AA@			; `string'
PUBLIC	??_C@_04KOACHJEN@Type?$AA@			; `string'
PUBLIC	??_C@_07GNLGNBFF@Speedup?$AA@			; `string'
PUBLIC	??_C@_0O@DNNHDLHG@Width?5?5?5?5?5?5?5?5?$AA@	; `string'
PUBLIC	??_C@_0O@IAIKDIMK@LoSpeed?5?$CImph?$CJ?$AA@	; `string'
PUBLIC	??_C@_0O@DJMDGIAM@HiSpeed?5?$CImph?$CJ?$AA@	; `string'
PUBLIC	??_C@_0O@MLODGLIN@Time?5?$CIs?$CJ?5?5?5?5?5?$AA@ ; `string'
PUBLIC	??_C@_05ELHBHDGK@Radar?$AA@			; `string'
PUBLIC	??_C@_07CEOANKFL@Balloon?$AA@			; `string'
PUBLIC	??_C@_05DJFPBHDN@Horse?$AA@			; `string'
PUBLIC	??_C@_05GFNCIBPC@Train?$AA@			; `string'
PUBLIC	??_C@_06FDJDEICK@Strobe?$AA@			; `string'
PUBLIC	??_C@_0N@NCGHDLJN@Sequence?5Num?$AA@		; `string'
PUBLIC	??_C@_0P@HPJNHGEB@Sequence?5Count?$AA@		; `string'
PUBLIC	??_C@_08LIBFPCLE@Football?$AA@			; `string'
PUBLIC	??_C@_0BA@MOLFKJLN@Spark?5Generator?$AA@	; `string'
PUBLIC	??_C@_09PNEIDCHP@Av?4?5Speed?$AA@		; `string'
PUBLIC	??_C@_0L@PHPPKOFO@Var?4?5Speed?$AA@		; `string'
PUBLIC	??_C@_09OGDICNME@Frequency?$AA@			; `string'
PUBLIC	??_C@_09FKAHEJHJ@Space?5Man?$AA@		; `string'
PUBLIC	??_C@_0BB@CDIMHABE@Pickup?5Generator?$AA@	; `string'
PUBLIC	??_C@_08DKIDFMFG@Flappage?$AA@			; `string'
PUBLIC	??_C@_05LIGKNHHL@Laser?$AA@			; `string'
PUBLIC	??_C@_05IBAMDCFI@Width?$AA@			; `string'
PUBLIC	??_C@_04LLEMEMKG@Rand?$AA@			; `string'
PUBLIC	??_C@_06ELFECKBG@Object?$AA@			; `string'
;	COMDAT ??_C@_0BA@MLIPENIB@models?2barrel?4m?$AA@
CONST	SEGMENT
??_C@_0BA@MLIPENIB@models?2barrel?4m?$AA@ DB 'models\barrel.m', 00H ; `string'
CONST	ENDS
;	COMDAT ??_C@_0BD@IEPIAIOA@models?2beachball?4m?$AA@
CONST	SEGMENT
??_C@_0BD@IEPIAIOA@models?2beachball?4m?$AA@ DB 'models\beachball.m', 00H ; `string'
CONST	ENDS
;	COMDAT ??_C@_0BB@NPGJJLBA@models?2mercury?4m?$AA@
CONST	SEGMENT
??_C@_0BB@NPGJJLBA@models?2mercury?4m?$AA@ DB 'models\mercury.m', 00H ; `string'
CONST	ENDS
;	COMDAT ??_C@_0P@MKEPFIEM@models?2venus?4m?$AA@
CONST	SEGMENT
??_C@_0P@MKEPFIEM@models?2venus?4m?$AA@ DB 'models\venus.m', 00H ; `string'
CONST	ENDS
;	COMDAT ??_C@_0P@CFIHBFJ@models?2earth?4m?$AA@
CONST	SEGMENT
??_C@_0P@CFIHBFJ@models?2earth?4m?$AA@ DB 'models\earth.m', 00H ; `string'
CONST	ENDS
;	COMDAT ??_C@_0O@HJKNFEM@models?2mars?4m?$AA@
CONST	SEGMENT
??_C@_0O@HJKNFEM@models?2mars?4m?$AA@ DB 'models\mars.m', 00H ; `string'
CONST	ENDS
;	COMDAT ??_C@_0BB@LJLNIFBN@models?2jupiter?4m?$AA@
CONST	SEGMENT
??_C@_0BB@LJLNIFBN@models?2jupiter?4m?$AA@ DB 'models\jupiter.m', 00H ; `string'
CONST	ENDS
;	COMDAT ??_C@_0BA@HGCIJNCI@models?2saturn?4m?$AA@
CONST	SEGMENT
??_C@_0BA@HGCIJNCI@models?2saturn?4m?$AA@ DB 'models\saturn.m', 00H ; `string'
CONST	ENDS
;	COMDAT ??_C@_0BA@LLKCMAAJ@models?2uranus?4m?$AA@
CONST	SEGMENT
??_C@_0BA@LLKCMAAJ@models?2uranus?4m?$AA@ DB 'models\uranus.m', 00H ; `string'
CONST	ENDS
;	COMDAT ??_C@_0BB@GLNNBHIK@models?2neptune?4m?$AA@
CONST	SEGMENT
??_C@_0BB@GLNNBHIK@models?2neptune?4m?$AA@ DB 'models\neptune.m', 00H ; `string'
CONST	ENDS
;	COMDAT ??_C@_0P@NHAGCHNH@models?2pluto?4m?$AA@
CONST	SEGMENT
??_C@_0P@NHAGCHNH@models?2pluto?4m?$AA@ DB 'models\pluto.m', 00H ; `string'
CONST	ENDS
;	COMDAT ??_C@_0O@HJDGIEN@models?2moon?4m?$AA@
CONST	SEGMENT
??_C@_0O@HJDGIEN@models?2moon?4m?$AA@ DB 'models\moon.m', 00H ; `string'
CONST	ENDS
;	COMDAT ??_C@_0P@JDIFPICA@models?2rings?4m?$AA@
CONST	SEGMENT
??_C@_0P@JDIFPICA@models?2rings?4m?$AA@ DB 'models\rings.m', 00H ; `string'
CONST	ENDS
;	COMDAT ??_C@_0P@KKMAIBN@models?2plane?4m?$AA@
CONST	SEGMENT
??_C@_0P@KKMAIBN@models?2plane?4m?$AA@ DB 'models\plane.m', 00H ; `string'
CONST	ENDS
;	COMDAT ??_C@_0BA@DIHOJJGI@models?2copter?4m?$AA@
CONST	SEGMENT
??_C@_0BA@DIHOJJGI@models?2copter?4m?$AA@ DB 'models\copter.m', 00H ; `string'
CONST	ENDS
;	COMDAT ??_C@_0BB@LEFLKGBF@models?2dragon1?4m?$AA@
CONST	SEGMENT
??_C@_0BB@LEFLKGBF@models?2dragon1?4m?$AA@ DB 'models\dragon1.m', 00H ; `string'
CONST	ENDS
;	COMDAT ??_C@_0P@IILLKNNL@models?2water?4m?$AA@
CONST	SEGMENT
??_C@_0P@IILLKNNL@models?2water?4m?$AA@ DB 'models\water.m', 00H ; `string'
CONST	ENDS
;	COMDAT ??_C@_0BB@CLJMFCFI@models?2trolley?4m?$AA@
CONST	SEGMENT
??_C@_0BB@CLJMFCFI@models?2trolley?4m?$AA@ DB 'models\trolley.m', 00H ; `string'
CONST	ENDS
;	COMDAT ??_C@_0P@GLOFDDAA@models?2boat1?4m?$AA@
CONST	SEGMENT
??_C@_0P@GLOFDDAA@models?2boat1?4m?$AA@ DB 'models\boat1.m', 00H ; `string'
CONST	ENDS
;	COMDAT ??_C@_0BB@BCFFGCNJ@models?2speedup?4m?$AA@
CONST	SEGMENT
??_C@_0BB@BCFFGCNJ@models?2speedup?4m?$AA@ DB 'models\speedup.m', 00H ; `string'
CONST	ENDS
;	COMDAT ??_C@_0P@DGANAHOE@models?2radar?4m?$AA@
CONST	SEGMENT
??_C@_0P@DGANAHOE@models?2radar?4m?$AA@ DB 'models\radar.m', 00H ; `string'
CONST	ENDS
;	COMDAT ??_C@_0BB@BLAENPIJ@models?2balloon?4m?$AA@
CONST	SEGMENT
??_C@_0BB@BLAENPIJ@models?2balloon?4m?$AA@ DB 'models\balloon.m', 00H ; `string'
CONST	ENDS
;	COMDAT ??_C@_0P@IJCIBLBI@models?2horse?4m?$AA@
CONST	SEGMENT
??_C@_0P@IJCIBLBI@models?2horse?4m?$AA@ DB 'models\horse.m', 00H ; `string'
CONST	ENDS
;	COMDAT ??_C@_0P@NMCGLKGF@models?2train?4m?$AA@
CONST	SEGMENT
??_C@_0P@NMCGLKGF@models?2train?4m?$AA@ DB 'models\train.m', 00H ; `string'
CONST	ENDS
;	COMDAT ??_C@_0BA@CDOEHGHP@models?2light1?4m?$AA@
CONST	SEGMENT
??_C@_0BA@CDOEHGHP@models?2light1?4m?$AA@ DB 'models\light1.m', 00H ; `string'
CONST	ENDS
;	COMDAT ??_C@_0BA@DBFBNJJB@models?2light2?4m?$AA@
CONST	SEGMENT
??_C@_0BA@DBFBNJJB@models?2light2?4m?$AA@ DB 'models\light2.m', 00H ; `string'
CONST	ENDS
;	COMDAT ??_C@_0BC@BODDIPCE@models?2football?4m?$AA@
CONST	SEGMENT
??_C@_0BC@BODDIPCE@models?2football?4m?$AA@ DB 'models\football.m', 00H ; `string'
CONST	ENDS
;	COMDAT ??_C@_0M@JNPPPCPI@edit?2spot?4m?$AA@
CONST	SEGMENT
??_C@_0M@JNPPPCPI@edit?2spot?4m?$AA@ DB 'edit\spot.m', 00H ; `string'
CONST	ENDS
;	COMDAT ??_C@_0BC@EJHHCMKH@models?2spaceman?4m?$AA@
CONST	SEGMENT
??_C@_0BC@EJHHCMKH@models?2spaceman?4m?$AA@ DB 'models\spaceman.m', 00H ; `string'
CONST	ENDS
;	COMDAT ??_C@_0BA@FADIHEP@models?2pickup?4m?$AA@
CONST	SEGMENT
??_C@_0BA@FADIHEP@models?2pickup?4m?$AA@ DB 'models\pickup.m', 00H ; `string'
CONST	ENDS
;	COMDAT ??_C@_0O@IMPGNANE@models?2flap?4m?$AA@
CONST	SEGMENT
??_C@_0O@IMPGNANE@models?2flap?4m?$AA@ DB 'models\flap.m', 00H ; `string'
CONST	ENDS
_DATA	SEGMENT
?FileObjectModelList@@3PAPADA DD FLAT:??_C@_0BA@MLIPENIB@models?2barrel?4m?$AA@ ; FileObjectModelList
	DD	FLAT:??_C@_0BD@IEPIAIOA@models?2beachball?4m?$AA@
	DD	FLAT:??_C@_0BB@NPGJJLBA@models?2mercury?4m?$AA@
	DD	FLAT:??_C@_0P@MKEPFIEM@models?2venus?4m?$AA@
	DD	FLAT:??_C@_0P@CFIHBFJ@models?2earth?4m?$AA@
	DD	FLAT:??_C@_0O@HJKNFEM@models?2mars?4m?$AA@
	DD	FLAT:??_C@_0BB@LJLNIFBN@models?2jupiter?4m?$AA@
	DD	FLAT:??_C@_0BA@HGCIJNCI@models?2saturn?4m?$AA@
	DD	FLAT:??_C@_0BA@LLKCMAAJ@models?2uranus?4m?$AA@
	DD	FLAT:??_C@_0BB@GLNNBHIK@models?2neptune?4m?$AA@
	DD	FLAT:??_C@_0P@NHAGCHNH@models?2pluto?4m?$AA@
	DD	FLAT:??_C@_0O@HJDGIEN@models?2moon?4m?$AA@
	DD	FLAT:??_C@_0P@JDIFPICA@models?2rings?4m?$AA@
	DD	FLAT:??_C@_0P@KKMAIBN@models?2plane?4m?$AA@
	DD	FLAT:??_C@_0BA@DIHOJJGI@models?2copter?4m?$AA@
	DD	FLAT:??_C@_0BB@LEFLKGBF@models?2dragon1?4m?$AA@
	DD	FLAT:??_C@_0P@IILLKNNL@models?2water?4m?$AA@
	DD	FLAT:??_C@_0BB@CLJMFCFI@models?2trolley?4m?$AA@
	DD	FLAT:??_C@_0P@GLOFDDAA@models?2boat1?4m?$AA@
	DD	FLAT:??_C@_0BB@BCFFGCNJ@models?2speedup?4m?$AA@
	DD	FLAT:??_C@_0P@DGANAHOE@models?2radar?4m?$AA@
	DD	FLAT:??_C@_0BB@BLAENPIJ@models?2balloon?4m?$AA@
	DD	FLAT:??_C@_0P@IJCIBLBI@models?2horse?4m?$AA@
	DD	FLAT:??_C@_0P@NMCGLKGF@models?2train?4m?$AA@
	DD	FLAT:??_C@_0BA@CDOEHGHP@models?2light1?4m?$AA@
	DD	FLAT:??_C@_0BA@DBFBNJJB@models?2light2?4m?$AA@
	DD	FLAT:??_C@_0BC@BODDIPCE@models?2football?4m?$AA@
	DD	FLAT:??_C@_0M@JNPPPCPI@edit?2spot?4m?$AA@
	DD	FLAT:??_C@_0BC@EJHHCMKH@models?2spaceman?4m?$AA@
	DD	FLAT:??_C@_0BA@FADIHEP@models?2pickup?4m?$AA@
	DD	FLAT:??_C@_0O@IMPGNANE@models?2flap?4m?$AA@
	DD	FLAT:??_C@_0M@JNPPPCPI@edit?2spot?4m?$AA@
	DD	00H
_DATA	ENDS
;	COMDAT ??_C@_02JINPPBEP@No?$AA@
CONST	SEGMENT
??_C@_02JINPPBEP@No?$AA@ DB 'No', 00H			; `string'
CONST	ENDS
;	COMDAT ??_C@_03CCLAEDDF@Yes?$AA@
CONST	SEGMENT
??_C@_03CCLAEDDF@Yes?$AA@ DB 'Yes', 00H			; `string'
CONST	ENDS
_DATA	SEGMENT
_TypeYesNo DD	FLAT:??_C@_02JINPPBEP@No?$AA@
	DD	FLAT:??_C@_03CCLAEDDF@Yes?$AA@
_DATA	ENDS
;	COMDAT ??_C@_03GCDBBDDL@Off?$AA@
CONST	SEGMENT
??_C@_03GCDBBDDL@Off?$AA@ DB 'Off', 00H			; `string'
CONST	ENDS
;	COMDAT ??_C@_02IAAGKKDJ@On?$AA@
CONST	SEGMENT
??_C@_02IAAGKKDJ@On?$AA@ DB 'On', 00H			; `string'
CONST	ENDS
_DATA	SEGMENT
_TypeOnOff DD	FLAT:??_C@_03GCDBBDDL@Off?$AA@
	DD	FLAT:??_C@_02IAAGKKDJ@On?$AA@
_DATA	ENDS
;	COMDAT ??_C@_01MMEEDKFM@X?$AA@
CONST	SEGMENT
??_C@_01MMEEDKFM@X?$AA@ DB 'X', 00H			; `string'
CONST	ENDS
;	COMDAT ??_C@_01NFFPALBN@Y?$AA@
CONST	SEGMENT
??_C@_01NFFPALBN@Y?$AA@ DB 'Y', 00H			; `string'
CONST	ENDS
;	COMDAT ??_C@_01POHCFINO@Z?$AA@
CONST	SEGMENT
??_C@_01POHCFINO@Z?$AA@ DB 'Z', 00H			; `string'
CONST	ENDS
_DATA	SEGMENT
_TypeAxis DD	FLAT:??_C@_01MMEEDKFM@X?$AA@
	DD	FLAT:??_C@_01NFFPALBN@Y?$AA@
	DD	FLAT:??_C@_01POHCFINO@Z?$AA@
_DATA	ENDS
;	COMDAT ??_C@_07JMNKBLJA@Mercury?$AA@
CONST	SEGMENT
??_C@_07JMNKBLJA@Mercury?$AA@ DB 'Mercury', 00H		; `string'
CONST	ENDS
;	COMDAT ??_C@_05EIOJENDF@Venus?$AA@
CONST	SEGMENT
??_C@_05EIOJENDF@Venus?$AA@ DB 'Venus', 00H		; `string'
CONST	ENDS
;	COMDAT ??_C@_05IKBANCEK@Earth?$AA@
CONST	SEGMENT
??_C@_05IKBANCEK@Earth?$AA@ DB 'Earth', 00H		; `string'
CONST	ENDS
;	COMDAT ??_C@_04EJEDJCHH@Mars?$AA@
CONST	SEGMENT
??_C@_04EJEDJCHH@Mars?$AA@ DB 'Mars', 00H		; `string'
CONST	ENDS
;	COMDAT ??_C@_07LEJIDMLG@Jupiter?$AA@
CONST	SEGMENT
??_C@_07LEJIDMLG@Jupiter?$AA@ DB 'Jupiter', 00H		; `string'
CONST	ENDS
;	COMDAT ??_C@_06EPLOODOC@Saturn?$AA@
CONST	SEGMENT
??_C@_06EPLOODOC@Saturn?$AA@ DB 'Saturn', 00H		; `string'
CONST	ENDS
;	COMDAT ??_C@_06HMBHBEBI@Uranus?$AA@
CONST	SEGMENT
??_C@_06HMBHBEBI@Uranus?$AA@ DB 'Uranus', 00H		; `string'
CONST	ENDS
;	COMDAT ??_C@_07HOBGPBKD@Neptune?$AA@
CONST	SEGMENT
??_C@_07HOBGPBKD@Neptune?$AA@ DB 'Neptune', 00H		; `string'
CONST	ENDS
;	COMDAT ??_C@_05PDANCLKN@Pluto?$AA@
CONST	SEGMENT
??_C@_05PDANCLKN@Pluto?$AA@ DB 'Pluto', 00H		; `string'
CONST	ENDS
;	COMDAT ??_C@_04ECAOLJHL@Moon?$AA@
CONST	SEGMENT
??_C@_04ECAOLJHL@Moon?$AA@ DB 'Moon', 00H		; `string'
CONST	ENDS
;	COMDAT ??_C@_05JCKJFDM@Rings?$AA@
CONST	SEGMENT
??_C@_05JCKJFDM@Rings?$AA@ DB 'Rings', 00H		; `string'
CONST	ENDS
;	COMDAT ??_C@_03KOEHGMDN@Sun?$AA@
CONST	SEGMENT
??_C@_03KOEHGMDN@Sun?$AA@ DB 'Sun', 00H			; `string'
CONST	ENDS
_DATA	SEGMENT
_TypePlanet DD	FLAT:??_C@_07JMNKBLJA@Mercury?$AA@
	DD	FLAT:??_C@_05EIOJENDF@Venus?$AA@
	DD	FLAT:??_C@_05IKBANCEK@Earth?$AA@
	DD	FLAT:??_C@_04EJEDJCHH@Mars?$AA@
	DD	FLAT:??_C@_07LEJIDMLG@Jupiter?$AA@
	DD	FLAT:??_C@_06EPLOODOC@Saturn?$AA@
	DD	FLAT:??_C@_06HMBHBEBI@Uranus?$AA@
	DD	FLAT:??_C@_07HOBGPBKD@Neptune?$AA@
	DD	FLAT:??_C@_05PDANCLKN@Pluto?$AA@
	DD	FLAT:??_C@_04ECAOLJHL@Moon?$AA@
	DD	FLAT:??_C@_05JCKJFDM@Rings?$AA@
	DD	FLAT:??_C@_03KOEHGMDN@Sun?$AA@
_DATA	ENDS
;	COMDAT ??_C@_04ELLKPJJL@Sail?$AA@
CONST	SEGMENT
??_C@_04ELLKPJJL@Sail?$AA@ DB 'Sail', 00H		; `string'
CONST	ENDS
;	COMDAT ??_C@_03OCFCOPMN@Tug?$AA@
CONST	SEGMENT
??_C@_03OCFCOPMN@Tug?$AA@ DB 'Tug', 00H			; `string'
CONST	ENDS
_DATA	SEGMENT
_TypeBoat DD	FLAT:??_C@_04ELLKPJJL@Sail?$AA@
	DD	FLAT:??_C@_03OCFCOPMN@Tug?$AA@
_DATA	ENDS
;	COMDAT ??_C@_09HHEKCPGB@Muse?5Post?$AA@
CONST	SEGMENT
??_C@_09HHEKCPGB@Muse?5Post?$AA@ DB 'Muse Post', 00H	; `string'
CONST	ENDS
;	COMDAT ??_C@_09LANEPIFG@Muse?5Wall?$AA@
CONST	SEGMENT
??_C@_09LANEPIFG@Muse?5Wall?$AA@ DB 'Muse Wall', 00H	; `string'
CONST	ENDS
_DATA	SEGMENT
_TypeStrobe DD	FLAT:??_C@_09HHEKCPGB@Muse?5Post?$AA@
	DD	FLAT:??_C@_09LANEPIFG@Muse?5Wall?$AA@
_DATA	ENDS
;	COMDAT ??_C@_07BKHKNDOB@Scratch?$AA@
CONST	SEGMENT
??_C@_07BKHKNDOB@Scratch?$AA@ DB 'Scratch', 00H		; `string'
CONST	ENDS
;	COMDAT ??_C@_04LOGCFOOF@Snow?$AA@
CONST	SEGMENT
??_C@_04LOGCFOOF@Snow?$AA@ DB 'Snow', 00H		; `string'
CONST	ENDS
;	COMDAT ??_C@_07GJDKNNEG@PopCorn?$AA@
CONST	SEGMENT
??_C@_07GJDKNNEG@PopCorn?$AA@ DB 'PopCorn', 00H		; `string'
CONST	ENDS
;	COMDAT ??_C@_06MIIHELGB@Gravel?$AA@
CONST	SEGMENT
??_C@_06MIIHELGB@Gravel?$AA@ DB 'Gravel', 00H		; `string'
CONST	ENDS
;	COMDAT ??_C@_04IGCMGFBG@Sand?$AA@
CONST	SEGMENT
??_C@_04IGCMGFBG@Sand?$AA@ DB 'Sand', 00H		; `string'
CONST	ENDS
;	COMDAT ??_C@_03OEGOKEBL@Mud?$AA@
CONST	SEGMENT
??_C@_03OEGOKEBL@Mud?$AA@ DB 'Mud', 00H			; `string'
CONST	ENDS
;	COMDAT ??_C@_08JJOLOAII@Electric?$AA@
CONST	SEGMENT
??_C@_08JJOLOAII@Electric?$AA@ DB 'Electric', 00H	; `string'
CONST	ENDS
;	COMDAT ??_C@_05EMKMBNJK@Water?$AA@
CONST	SEGMENT
??_C@_05EMKMBNJK@Water?$AA@ DB 'Water', 00H		; `string'
CONST	ENDS
;	COMDAT ??_C@_04MOKGEOCO@Dirt?$AA@
CONST	SEGMENT
??_C@_04MOKGEOCO@Dirt?$AA@ DB 'Dirt', 00H		; `string'
CONST	ENDS
;	COMDAT ??_C@_06LLMAFBMI@Smoke1?$AA@
CONST	SEGMENT
??_C@_06LLMAFBMI@Smoke1?$AA@ DB 'Smoke1', 00H		; `string'
CONST	ENDS
;	COMDAT ??_C@_06JAONACAL@Smoke2?$AA@
CONST	SEGMENT
??_C@_06JAONACAL@Smoke2?$AA@ DB 'Smoke2', 00H		; `string'
CONST	ENDS
_DATA	SEGMENT
_TypeSparkGen DD FLAT:??_C@_07BKHKNDOB@Scratch?$AA@
	DD	FLAT:??_C@_04LOGCFOOF@Snow?$AA@
	DD	FLAT:??_C@_07GJDKNNEG@PopCorn?$AA@
	DD	FLAT:??_C@_06MIIHELGB@Gravel?$AA@
	DD	FLAT:??_C@_04IGCMGFBG@Sand?$AA@
	DD	FLAT:??_C@_03OEGOKEBL@Mud?$AA@
	DD	FLAT:??_C@_08JJOLOAII@Electric?$AA@
	DD	FLAT:??_C@_05EMKMBNJK@Water?$AA@
	DD	FLAT:??_C@_04MOKGEOCO@Dirt?$AA@
	DD	FLAT:??_C@_06LLMAFBMI@Smoke1?$AA@
	DD	FLAT:??_C@_06JAONACAL@Smoke2?$AA@
_DATA	ENDS
;	COMDAT ??_C@_06BEOPDEGP@Random?$AA@
CONST	SEGMENT
??_C@_06BEOPDEGP@Random?$AA@ DB 'Random', 00H		; `string'
CONST	ENDS
;	COMDAT ??_C@_05KCLFCCEP@Clone?$AA@
CONST	SEGMENT
??_C@_05KCLFCCEP@Clone?$AA@ DB 'Clone', 00H		; `string'
CONST	ENDS
_DATA	SEGMENT
_TypePickup DD	FLAT:??_C@_06BEOPDEGP@Random?$AA@
	DD	FLAT:??_C@_05KCLFCCEP@Clone?$AA@
_DATA	ENDS
;	COMDAT ??_C@_0BA@BDPLFHDD@Spinning?5Barrel?$AA@
CONST	SEGMENT
??_C@_0BA@BDPLFHDD@Spinning?5Barrel?$AA@ DB 'Spinning Barrel', 00H ; `string'
CONST	ENDS
;	COMDAT ??_C@_05HOIAGEJD@Speed?$AA@
CONST	SEGMENT
??_C@_05HOIAGEJD@Speed?$AA@ DB 'Speed', 00H		; `string'
CONST	ENDS
;	COMDAT ??_C@_09DKJLFNDB@Beachball?$AA@
CONST	SEGMENT
??_C@_09DKJLFNDB@Beachball?$AA@ DB 'Beachball', 00H	; `string'
CONST	ENDS
;	COMDAT ??_C@_06EEJEGNOD@Planet?$AA@
CONST	SEGMENT
??_C@_06EEJEGNOD@Planet?$AA@ DB 'Planet', 00H		; `string'
CONST	ENDS
;	COMDAT ??_C@_04FABLJDN@Name?$AA@
CONST	SEGMENT
??_C@_04FABLJDN@Name?$AA@ DB 'Name', 00H		; `string'
CONST	ENDS
;	COMDAT ??_C@_05KOFLCGJP@Orbit?$AA@
CONST	SEGMENT
??_C@_05KOFLCGJP@Orbit?$AA@ DB 'Orbit', 00H		; `string'
CONST	ENDS
;	COMDAT ??_C@_0M@JCFLIFKI@Orbit?5Speed?$AA@
CONST	SEGMENT
??_C@_0M@JCFLIFKI@Orbit?5Speed?$AA@ DB 'Orbit Speed', 00H ; `string'
CONST	ENDS
;	COMDAT ??_C@_0L@EOGAPDLN@Spin?5speed?$AA@
CONST	SEGMENT
??_C@_0L@EOGAPDLN@Spin?5speed?$AA@ DB 'Spin speed', 00H	; `string'
CONST	ENDS
;	COMDAT ??_C@_05MHCICFEJ@Plane?$AA@
CONST	SEGMENT
??_C@_05MHCICFEJ@Plane?$AA@ DB 'Plane', 00H		; `string'
CONST	ENDS
;	COMDAT ??_C@_06GJMFONGK@Radius?$AA@
CONST	SEGMENT
??_C@_06GJMFONGK@Radius?$AA@ DB 'Radius', 00H		; `string'
CONST	ENDS
;	COMDAT ??_C@_04FMDEMHOL@Bank?$AA@
CONST	SEGMENT
??_C@_04FMDEMHOL@Bank?$AA@ DB 'Bank', 00H		; `string'
CONST	ENDS
;	COMDAT ??_C@_06KAEIDHFB@Copter?$AA@
CONST	SEGMENT
??_C@_06KAEIDHFB@Copter?$AA@ DB 'Copter', 00H		; `string'
CONST	ENDS
;	COMDAT ??_C@_07LPPAMBDJ@X?5range?$AA@
CONST	SEGMENT
??_C@_07LPPAMBDJ@X?5range?$AA@ DB 'X range', 00H	; `string'
CONST	ENDS
;	COMDAT ??_C@_07HDFKMBKH@Y?5range?$AA@
CONST	SEGMENT
??_C@_07HDFKMBKH@Y?5range?$AA@ DB 'Y range', 00H	; `string'
CONST	ENDS
;	COMDAT ??_C@_07PNNFMGEE@Z?5range?$AA@
CONST	SEGMENT
??_C@_07PNNFMGEE@Z?5range?$AA@ DB 'Z range', 00H	; `string'
CONST	ENDS
;	COMDAT ??_C@_08PHJFJGMH@Y?5offset?$AA@
CONST	SEGMENT
??_C@_08PHJFJGMH@Y?5offset?$AA@ DB 'Y offset', 00H	; `string'
CONST	ENDS
;	COMDAT ??_C@_06COGLIGFC@Dragon?$AA@
CONST	SEGMENT
??_C@_06COGLIGFC@Dragon?$AA@ DB 'Dragon', 00H		; `string'
CONST	ENDS
;	COMDAT ??_C@_07FEDHLIKE@Trolley?$AA@
CONST	SEGMENT
??_C@_07FEDHLIKE@Trolley?$AA@ DB 'Trolley', 00H		; `string'
CONST	ENDS
;	COMDAT ??_C@_04HKONPJHL@Boat?$AA@
CONST	SEGMENT
??_C@_04HKONPJHL@Boat?$AA@ DB 'Boat', 00H		; `string'
CONST	ENDS
;	COMDAT ??_C@_04KOACHJEN@Type?$AA@
CONST	SEGMENT
??_C@_04KOACHJEN@Type?$AA@ DB 'Type', 00H		; `string'
CONST	ENDS
;	COMDAT ??_C@_07GNLGNBFF@Speedup?$AA@
CONST	SEGMENT
??_C@_07GNLGNBFF@Speedup?$AA@ DB 'Speedup', 00H		; `string'
CONST	ENDS
;	COMDAT ??_C@_0O@DNNHDLHG@Width?5?5?5?5?5?5?5?5?$AA@
CONST	SEGMENT
??_C@_0O@DNNHDLHG@Width?5?5?5?5?5?5?5?5?$AA@ DB 'Width        ', 00H ; `string'
CONST	ENDS
;	COMDAT ??_C@_0O@IAIKDIMK@LoSpeed?5?$CImph?$CJ?$AA@
CONST	SEGMENT
??_C@_0O@IAIKDIMK@LoSpeed?5?$CImph?$CJ?$AA@ DB 'LoSpeed (mph)', 00H ; `string'
CONST	ENDS
;	COMDAT ??_C@_0O@DJMDGIAM@HiSpeed?5?$CImph?$CJ?$AA@
CONST	SEGMENT
??_C@_0O@DJMDGIAM@HiSpeed?5?$CImph?$CJ?$AA@ DB 'HiSpeed (mph)', 00H ; `string'
CONST	ENDS
;	COMDAT ??_C@_0O@MLODGLIN@Time?5?$CIs?$CJ?5?5?5?5?5?$AA@
CONST	SEGMENT
??_C@_0O@MLODGLIN@Time?5?$CIs?$CJ?5?5?5?5?5?$AA@ DB 'Time (s)     ', 00H ; `string'
CONST	ENDS
;	COMDAT ??_C@_05ELHBHDGK@Radar?$AA@
CONST	SEGMENT
??_C@_05ELHBHDGK@Radar?$AA@ DB 'Radar', 00H		; `string'
CONST	ENDS
;	COMDAT ??_C@_07CEOANKFL@Balloon?$AA@
CONST	SEGMENT
??_C@_07CEOANKFL@Balloon?$AA@ DB 'Balloon', 00H		; `string'
CONST	ENDS
;	COMDAT ??_C@_05DJFPBHDN@Horse?$AA@
CONST	SEGMENT
??_C@_05DJFPBHDN@Horse?$AA@ DB 'Horse', 00H		; `string'
CONST	ENDS
;	COMDAT ??_C@_05GFNCIBPC@Train?$AA@
CONST	SEGMENT
??_C@_05GFNCIBPC@Train?$AA@ DB 'Train', 00H		; `string'
CONST	ENDS
;	COMDAT ??_C@_06FDJDEICK@Strobe?$AA@
CONST	SEGMENT
??_C@_06FDJDEICK@Strobe?$AA@ DB 'Strobe', 00H		; `string'
CONST	ENDS
;	COMDAT ??_C@_0N@NCGHDLJN@Sequence?5Num?$AA@
CONST	SEGMENT
??_C@_0N@NCGHDLJN@Sequence?5Num?$AA@ DB 'Sequence Num', 00H ; `string'
CONST	ENDS
;	COMDAT ??_C@_0P@HPJNHGEB@Sequence?5Count?$AA@
CONST	SEGMENT
??_C@_0P@HPJNHGEB@Sequence?5Count?$AA@ DB 'Sequence Count', 00H ; `string'
CONST	ENDS
;	COMDAT ??_C@_08LIBFPCLE@Football?$AA@
CONST	SEGMENT
??_C@_08LIBFPCLE@Football?$AA@ DB 'Football', 00H	; `string'
CONST	ENDS
;	COMDAT ??_C@_0BA@MOLFKJLN@Spark?5Generator?$AA@
CONST	SEGMENT
??_C@_0BA@MOLFKJLN@Spark?5Generator?$AA@ DB 'Spark Generator', 00H ; `string'
CONST	ENDS
;	COMDAT ??_C@_09PNEIDCHP@Av?4?5Speed?$AA@
CONST	SEGMENT
??_C@_09PNEIDCHP@Av?4?5Speed?$AA@ DB 'Av. Speed', 00H	; `string'
CONST	ENDS
;	COMDAT ??_C@_0L@PHPPKOFO@Var?4?5Speed?$AA@
CONST	SEGMENT
??_C@_0L@PHPPKOFO@Var?4?5Speed?$AA@ DB 'Var. Speed', 00H ; `string'
CONST	ENDS
;	COMDAT ??_C@_09OGDICNME@Frequency?$AA@
CONST	SEGMENT
??_C@_09OGDICNME@Frequency?$AA@ DB 'Frequency', 00H	; `string'
CONST	ENDS
;	COMDAT ??_C@_09FKAHEJHJ@Space?5Man?$AA@
CONST	SEGMENT
??_C@_09FKAHEJHJ@Space?5Man?$AA@ DB 'Space Man', 00H	; `string'
CONST	ENDS
;	COMDAT ??_C@_0BB@CDIMHABE@Pickup?5Generator?$AA@
CONST	SEGMENT
??_C@_0BB@CDIMHABE@Pickup?5Generator?$AA@ DB 'Pickup Generator', 00H ; `string'
CONST	ENDS
;	COMDAT ??_C@_08DKIDFMFG@Flappage?$AA@
CONST	SEGMENT
??_C@_08DKIDFMFG@Flappage?$AA@ DB 'Flappage', 00H	; `string'
CONST	ENDS
;	COMDAT ??_C@_05LIGKNHHL@Laser?$AA@
CONST	SEGMENT
??_C@_05LIGKNHHL@Laser?$AA@ DB 'Laser', 00H		; `string'
CONST	ENDS
;	COMDAT ??_C@_05IBAMDCFI@Width?$AA@
CONST	SEGMENT
??_C@_05IBAMDCFI@Width?$AA@ DB 'Width', 00H		; `string'
CONST	ENDS
;	COMDAT ??_C@_04LLEMEMKG@Rand?$AA@
CONST	SEGMENT
??_C@_04LLEMEMKG@Rand?$AA@ DB 'Rand', 00H		; `string'
CONST	ENDS
;	COMDAT ??_C@_06ELFECKBG@Object?$AA@
CONST	SEGMENT
??_C@_06ELFECKBG@Object?$AA@ DB 'Object', 00H		; `string'
CONST	ENDS
_DATA	SEGMENT
	ORG $+4
?FileObjectInfo@@3PAUFILE_OBJECT_INFO@@A DD 00H		; FileObjectInfo
	DD	FLAT:??_C@_0BA@BDPLFHDD@Spinning?5Barrel?$AA@
	DD	FLAT:??_C@_05HOIAGEJD@Speed?$AA@
	DD	00H
	DD	0ffffff01H
	DD	0ffH
	DD	00H
	DD	00H
	DD	00H
	DD	00H
	DD	00H
	DD	00H
	DD	00H
	DD	00H
	DD	00H
	DD	00H
	DD	00H
	DD	00H
	DD	01H
	DD	FLAT:??_C@_09DKJLFNDB@Beachball?$AA@
	DD	00H
	DD	00H
	DD	00H
	DD	00H
	DD	00H
	DD	00H
	DD	00H
	DD	00H
	DD	00H
	DD	00H
	DD	00H
	DD	00H
	DD	00H
	DD	00H
	DD	00H
	DD	00H
	DD	02H
	DD	FLAT:??_C@_06EEJEGNOD@Planet?$AA@
	DD	FLAT:??_C@_04FABLJDN@Name?$AA@
	DD	FLAT:_TypePlanet
	DD	00H
	DD	0bH
	DD	FLAT:??_C@_05KOFLCGJP@Orbit?$AA@
	DD	FLAT:_TypePlanet
	DD	00H
	DD	0bH
	DD	FLAT:??_C@_0M@JCFLIFKI@Orbit?5Speed?$AA@
	DD	00H
	DD	0ffffff01H
	DD	0ffH
	DD	FLAT:??_C@_0L@EOGAPDLN@Spin?5speed?$AA@
	DD	00H
	DD	0ffffff01H
	DD	0ffH
	DD	0dH
	DD	FLAT:??_C@_05MHCICFEJ@Plane?$AA@
	DD	FLAT:??_C@_05HOIAGEJD@Speed?$AA@
	DD	00H
	DD	0ffffff00H
	DD	0100H
	DD	FLAT:??_C@_06GJMFONGK@Radius?$AA@
	DD	00H
	DD	00H
	DD	0400H
	DD	FLAT:??_C@_04FMDEMHOL@Bank?$AA@
	DD	00H
	DD	0ffffff00H
	DD	0100H
	DD	00H
	DD	00H
	DD	00H
	DD	00H
	DD	0eH
	DD	FLAT:??_C@_06KAEIDHFB@Copter?$AA@
	DD	FLAT:??_C@_07LPPAMBDJ@X?5range?$AA@
	DD	00H
	DD	00H
	DD	0100H
	DD	FLAT:??_C@_07HDFKMBKH@Y?5range?$AA@
	DD	00H
	DD	00H
	DD	0100H
	DD	FLAT:??_C@_07PNNFMGEE@Z?5range?$AA@
	DD	00H
	DD	00H
	DD	0100H
	DD	FLAT:??_C@_08PHJFJGMH@Y?5offset?$AA@
	DD	00H
	DD	0ffffff00H
	DD	0100H
	DD	0fH
	DD	FLAT:??_C@_06COGLIGFC@Dragon?$AA@
	DD	00H
	DD	00H
	DD	00H
	DD	00H
	DD	00H
	DD	00H
	DD	00H
	DD	00H
	DD	00H
	DD	00H
	DD	00H
	DD	00H
	DD	00H
	DD	00H
	DD	00H
	DD	00H
	DD	010H
	DD	FLAT:??_C@_05EMKMBNJK@Water?$AA@
	DD	00H
	DD	00H
	DD	00H
	DD	00H
	DD	00H
	DD	00H
	DD	00H
	DD	00H
	DD	00H
	DD	00H
	DD	00H
	DD	00H
	DD	00H
	DD	00H
	DD	00H
	DD	00H
	DD	011H
	DD	FLAT:??_C@_07FEDHLIKE@Trolley?$AA@
	DD	00H
	DD	00H
	DD	00H
	DD	00H
	DD	00H
	DD	00H
	DD	00H
	DD	00H
	DD	00H
	DD	00H
	DD	00H
	DD	00H
	DD	00H
	DD	00H
	DD	00H
	DD	00H
	DD	012H
	DD	FLAT:??_C@_04HKONPJHL@Boat?$AA@
	DD	FLAT:??_C@_04KOACHJEN@Type?$AA@
	DD	FLAT:_TypeBoat
	DD	00H
	DD	01H
	DD	00H
	DD	00H
	DD	00H
	DD	00H
	DD	00H
	DD	00H
	DD	00H
	DD	00H
	DD	00H
	DD	00H
	DD	00H
	DD	00H
	DD	013H
	DD	FLAT:??_C@_07GNLGNBFF@Speedup?$AA@
	DD	FLAT:??_C@_0O@DNNHDLHG@Width?5?5?5?5?5?5?5?5?$AA@
	DD	00H
	DD	0aH
	DD	064H
	DD	FLAT:??_C@_0O@IAIKDIMK@LoSpeed?5?$CImph?$CJ?$AA@
	DD	00H
	DD	00H
	DD	064H
	DD	FLAT:??_C@_0O@DJMDGIAM@HiSpeed?5?$CImph?$CJ?$AA@
	DD	00H
	DD	00H
	DD	064H
	DD	FLAT:??_C@_0O@MLODGLIN@Time?5?$CIs?$CJ?5?5?5?5?5?$AA@
	DD	00H
	DD	00H
	DD	032H
	DD	014H
	DD	FLAT:??_C@_05ELHBHDGK@Radar?$AA@
	DD	00H
	DD	00H
	DD	00H
	DD	00H
	DD	00H
	DD	00H
	DD	00H
	DD	00H
	DD	00H
	DD	00H
	DD	00H
	DD	00H
	DD	00H
	DD	00H
	DD	00H
	DD	00H
	DD	015H
	DD	FLAT:??_C@_07CEOANKFL@Balloon?$AA@
	DD	00H
	DD	00H
	DD	00H
	DD	00H
	DD	00H
	DD	00H
	DD	00H
	DD	00H
	DD	00H
	DD	00H
	DD	00H
	DD	00H
	DD	00H
	DD	00H
	DD	00H
	DD	00H
	DD	016H
	DD	FLAT:??_C@_05DJFPBHDN@Horse?$AA@
	DD	00H
	DD	00H
	DD	00H
	DD	00H
	DD	00H
	DD	00H
	DD	00H
	DD	00H
	DD	00H
	DD	00H
	DD	00H
	DD	00H
	DD	00H
	DD	00H
	DD	00H
	DD	00H
	DD	017H
	DD	FLAT:??_C@_05GFNCIBPC@Train?$AA@
	DD	00H
	DD	00H
	DD	00H
	DD	00H
	DD	00H
	DD	00H
	DD	00H
	DD	00H
	DD	00H
	DD	00H
	DD	00H
	DD	00H
	DD	00H
	DD	00H
	DD	00H
	DD	00H
	DD	018H
	DD	FLAT:??_C@_06FDJDEICK@Strobe?$AA@
	DD	FLAT:??_C@_04KOACHJEN@Type?$AA@
	DD	FLAT:_TypeStrobe
	DD	00H
	DD	01H
	DD	FLAT:??_C@_0N@NCGHDLJN@Sequence?5Num?$AA@
	DD	00H
	DD	00H
	DD	01f4H
	DD	FLAT:??_C@_0P@HPJNHGEB@Sequence?5Count?$AA@
	DD	00H
	DD	00H
	DD	01f4H
	DD	00H
	DD	00H
	DD	00H
	DD	00H
	DD	01aH
	DD	FLAT:??_C@_08LIBFPCLE@Football?$AA@
	DD	00H
	DD	00H
	DD	00H
	DD	00H
	DD	00H
	DD	00H
	DD	00H
	DD	00H
	DD	00H
	DD	00H
	DD	00H
	DD	00H
	DD	00H
	DD	00H
	DD	00H
	DD	00H
	DD	01bH
	DD	FLAT:??_C@_0BA@MOLFKJLN@Spark?5Generator?$AA@
	DD	FLAT:??_C@_04KOACHJEN@Type?$AA@
	DD	FLAT:_TypeSparkGen
	DD	00H
	DD	0aH
	DD	FLAT:??_C@_09PNEIDCHP@Av?4?5Speed?$AA@
	DD	00H
	DD	00H
	DD	0c8H
	DD	FLAT:??_C@_0L@PHPPKOFO@Var?4?5Speed?$AA@
	DD	00H
	DD	00H
	DD	0c8H
	DD	FLAT:??_C@_09OGDICNME@Frequency?$AA@
	DD	00H
	DD	01H
	DD	0c8H
	DD	01cH
	DD	FLAT:??_C@_09FKAHEJHJ@Space?5Man?$AA@
	DD	00H
	DD	00H
	DD	00H
	DD	00H
	DD	00H
	DD	00H
	DD	00H
	DD	00H
	DD	00H
	DD	00H
	DD	00H
	DD	00H
	DD	00H
	DD	00H
	DD	00H
	DD	00H
	DD	0fffffffeH
	ORG $+68
	DD	0fffffffeH
	ORG $+68
	DD	0fffffffeH
	ORG $+68
	DD	0fffffffeH
	ORG $+68
	DD	0fffffffeH
	ORG $+68
	DD	0fffffffeH
	ORG $+68
	DD	0fffffffeH
	ORG $+68
	DD	0fffffffeH
	ORG $+68
	DD	0fffffffeH
	ORG $+68
	DD	0fffffffeH
	ORG $+68
	DD	0fffffffeH
	ORG $+68
	DD	0fffffffeH
	ORG $+68
	DD	01dH
	DD	FLAT:??_C@_0BB@CDIMHABE@Pickup?5Generator?$AA@
	DD	00H
	DD	00H
	DD	00H
	DD	00H
	DD	00H
	DD	00H
	DD	00H
	DD	00H
	DD	00H
	DD	00H
	DD	00H
	DD	00H
	DD	00H
	DD	00H
	DD	00H
	DD	00H
	DD	0fffffffeH
	ORG $+68
	DD	01eH
	DD	FLAT:??_C@_08DKIDFMFG@Flappage?$AA@
	DD	00H
	DD	00H
	DD	00H
	DD	00H
	DD	00H
	DD	00H
	DD	00H
	DD	00H
	DD	00H
	DD	00H
	DD	00H
	DD	00H
	DD	00H
	DD	00H
	DD	00H
	DD	00H
	DD	01fH
	DD	FLAT:??_C@_05LIGKNHHL@Laser?$AA@
	DD	FLAT:??_C@_05IBAMDCFI@Width?$AA@
	DD	00H
	DD	01H
	DD	0aH
	DD	FLAT:??_C@_04LLEMEMKG@Rand?$AA@
	DD	00H
	DD	01H
	DD	0aH
	DD	FLAT:??_C@_06ELFECKBG@Object?$AA@
	DD	FLAT:_TypeYesNo
	DD	00H
	DD	01H
	DD	00H
	DD	00H
	DD	00H
	DD	00H
	DD	0fffffffeH
	ORG $+68
	DD	0fffffffeH
	ORG $+68
	DD	0ffffffffH
	ORG $+68
_DATA	ENDS
END
