; Listing generated by Microsoft (R) Optimizing Compiler Version 13.10.3077 

	TITLE	.\source\weapon.cpp
	.386P
include listing.inc
if @Version gt 510
.model FLAT
else
_TEXT	SEGMENT PARA USE32 PUBLIC 'CODE'
_TEXT	ENDS
_DATA	SEGMENT DWORD USE32 PUBLIC 'DATA'
_DATA	ENDS
CONST	SEGMENT DWORD USE32 PUBLIC 'CONST'
CONST	ENDS
_BSS	SEGMENT PARA USE32 PUBLIC 'BSS'
_BSS	ENDS
$$SYMBOLS	SEGMENT BYTE USE32 'DEBSYM'
$$SYMBOLS	ENDS
$$TYPES	SEGMENT BYTE USE32 'DEBTYP'
$$TYPES	ENDS
_TLS	SEGMENT DWORD USE32 PUBLIC 'TLS'
_TLS	ENDS
;	COMDAT ??_C@_0IL@GBHCIHE@c?3?2documents?5and?5settings?2jarhea@
CONST	SEGMENT DWORD USE32 PUBLIC 'CONST'
CONST	ENDS
;	COMDAT _IsEqualGUID
_TEXT	SEGMENT PARA USE32 PUBLIC 'CODE'
_TEXT	ENDS
;	COMDAT _==
_TEXT	SEGMENT PARA USE32 PUBLIC 'CODE'
_TEXT	ENDS
;	COMDAT _acosl
_TEXT	SEGMENT PARA USE32 PUBLIC 'CODE'
_TEXT	ENDS
;	COMDAT _asinl
_TEXT	SEGMENT PARA USE32 PUBLIC 'CODE'
_TEXT	ENDS
;	COMDAT _atanl
_TEXT	SEGMENT PARA USE32 PUBLIC 'CODE'
_TEXT	ENDS
;	COMDAT _atan2l
_TEXT	SEGMENT PARA USE32 PUBLIC 'CODE'
_TEXT	ENDS
;	COMDAT _ceill
_TEXT	SEGMENT PARA USE32 PUBLIC 'CODE'
_TEXT	ENDS
;	COMDAT _cosl
_TEXT	SEGMENT PARA USE32 PUBLIC 'CODE'
_TEXT	ENDS
;	COMDAT _coshl
_TEXT	SEGMENT PARA USE32 PUBLIC 'CODE'
_TEXT	ENDS
;	COMDAT _expl
_TEXT	SEGMENT PARA USE32 PUBLIC 'CODE'
_TEXT	ENDS
;	COMDAT _fabsl
_TEXT	SEGMENT PARA USE32 PUBLIC 'CODE'
_TEXT	ENDS
;	COMDAT _floorl
_TEXT	SEGMENT PARA USE32 PUBLIC 'CODE'
_TEXT	ENDS
;	COMDAT _fmodl
_TEXT	SEGMENT PARA USE32 PUBLIC 'CODE'
_TEXT	ENDS
;	COMDAT _frexpl
_TEXT	SEGMENT PARA USE32 PUBLIC 'CODE'
_TEXT	ENDS
;	COMDAT _ldexpl
_TEXT	SEGMENT PARA USE32 PUBLIC 'CODE'
_TEXT	ENDS
;	COMDAT _logl
_TEXT	SEGMENT PARA USE32 PUBLIC 'CODE'
_TEXT	ENDS
;	COMDAT _log10l
_TEXT	SEGMENT PARA USE32 PUBLIC 'CODE'
_TEXT	ENDS
;	COMDAT _modfl
_TEXT	SEGMENT PARA USE32 PUBLIC 'CODE'
_TEXT	ENDS
;	COMDAT _powl
_TEXT	SEGMENT PARA USE32 PUBLIC 'CODE'
_TEXT	ENDS
;	COMDAT _sinl
_TEXT	SEGMENT PARA USE32 PUBLIC 'CODE'
_TEXT	ENDS
;	COMDAT _sinhl
_TEXT	SEGMENT PARA USE32 PUBLIC 'CODE'
_TEXT	ENDS
;	COMDAT _sqrtl
_TEXT	SEGMENT PARA USE32 PUBLIC 'CODE'
_TEXT	ENDS
;	COMDAT _tanl
_TEXT	SEGMENT PARA USE32 PUBLIC 'CODE'
_TEXT	ENDS
;	COMDAT _tanhl
_TEXT	SEGMENT PARA USE32 PUBLIC 'CODE'
_TEXT	ENDS
;	COMDAT _frexpf
_TEXT	SEGMENT PARA USE32 PUBLIC 'CODE'
_TEXT	ENDS
;	COMDAT _ldexpf
_TEXT	SEGMENT PARA USE32 PUBLIC 'CODE'
_TEXT	ENDS
;	COMDAT _acosf
_TEXT	SEGMENT PARA USE32 PUBLIC 'CODE'
_TEXT	ENDS
;	COMDAT _asinf
_TEXT	SEGMENT PARA USE32 PUBLIC 'CODE'
_TEXT	ENDS
;	COMDAT _atanf
_TEXT	SEGMENT PARA USE32 PUBLIC 'CODE'
_TEXT	ENDS
;	COMDAT _atan2f
_TEXT	SEGMENT PARA USE32 PUBLIC 'CODE'
_TEXT	ENDS
;	COMDAT _ceilf
_TEXT	SEGMENT PARA USE32 PUBLIC 'CODE'
_TEXT	ENDS
;	COMDAT _cosf
_TEXT	SEGMENT PARA USE32 PUBLIC 'CODE'
_TEXT	ENDS
;	COMDAT _coshf
_TEXT	SEGMENT PARA USE32 PUBLIC 'CODE'
_TEXT	ENDS
;	COMDAT _expf
_TEXT	SEGMENT PARA USE32 PUBLIC 'CODE'
_TEXT	ENDS
;	COMDAT _fabsf
_TEXT	SEGMENT PARA USE32 PUBLIC 'CODE'
_TEXT	ENDS
;	COMDAT _floorf
_TEXT	SEGMENT PARA USE32 PUBLIC 'CODE'
_TEXT	ENDS
;	COMDAT _fmodf
_TEXT	SEGMENT PARA USE32 PUBLIC 'CODE'
_TEXT	ENDS
;	COMDAT _logf
_TEXT	SEGMENT PARA USE32 PUBLIC 'CODE'
_TEXT	ENDS
;	COMDAT _log10f
_TEXT	SEGMENT PARA USE32 PUBLIC 'CODE'
_TEXT	ENDS
;	COMDAT _modff
_TEXT	SEGMENT PARA USE32 PUBLIC 'CODE'
_TEXT	ENDS
;	COMDAT _powf
_TEXT	SEGMENT PARA USE32 PUBLIC 'CODE'
_TEXT	ENDS
;	COMDAT _sinf
_TEXT	SEGMENT PARA USE32 PUBLIC 'CODE'
_TEXT	ENDS
;	COMDAT _sinhf
_TEXT	SEGMENT PARA USE32 PUBLIC 'CODE'
_TEXT	ENDS
;	COMDAT _sqrtf
_TEXT	SEGMENT PARA USE32 PUBLIC 'CODE'
_TEXT	ENDS
;	COMDAT _tanf
_TEXT	SEGMENT PARA USE32 PUBLIC 'CODE'
_TEXT	ENDS
;	COMDAT _tanhf
_TEXT	SEGMENT PARA USE32 PUBLIC 'CODE'
_TEXT	ENDS
;	COMDAT ?cos@@YAMM@Z
_TEXT	SEGMENT PARA USE32 PUBLIC 'CODE'
_TEXT	ENDS
;	COMDAT ?sin@@YAMM@Z
_TEXT	SEGMENT PARA USE32 PUBLIC 'CODE'
_TEXT	ENDS
;	COMDAT ?sqrt@@YAMM@Z
_TEXT	SEGMENT PARA USE32 PUBLIC 'CODE'
_TEXT	ENDS
;	COMDAT ?ResetOilSlickList@@YAXXZ
_TEXT	SEGMENT PARA USE32 PUBLIC 'CODE'
_TEXT	ENDS
;	COMDAT ?InitShockwave@@YAJPAUobject_def@@PAJ@Z
_TEXT	SEGMENT PARA USE32 PUBLIC 'CODE'
_TEXT	ENDS
;	COMDAT ?InitFirework@@YAJPAUobject_def@@PAJ@Z
_TEXT	SEGMENT PARA USE32 PUBLIC 'CODE'
_TEXT	ENDS
;	COMDAT ?InitPuttyBomb@@YAJPAUobject_def@@PAJ@Z
_TEXT	SEGMENT PARA USE32 PUBLIC 'CODE'
_TEXT	ENDS
;	COMDAT ?InitWaterBomb@@YAJPAUobject_def@@PAJ@Z
_TEXT	SEGMENT PARA USE32 PUBLIC 'CODE'
_TEXT	ENDS
;	COMDAT ?InitElectroPulse@@YAJPAUobject_def@@PAJ@Z
_TEXT	SEGMENT PARA USE32 PUBLIC 'CODE'
_TEXT	ENDS
;	COMDAT ?InitOilSlick@@YAJPAUobject_def@@PAJ@Z
_TEXT	SEGMENT PARA USE32 PUBLIC 'CODE'
_TEXT	ENDS
;	COMDAT ?InitOilSlickDropper@@YAJPAUobject_def@@PAJ@Z
_TEXT	SEGMENT PARA USE32 PUBLIC 'CODE'
_TEXT	ENDS
;	COMDAT ?InitChromeBall@@YAJPAUobject_def@@PAJ@Z
_TEXT	SEGMENT PARA USE32 PUBLIC 'CODE'
_TEXT	ENDS
;	COMDAT ?InitClone@@YAJPAUobject_def@@PAJ@Z
_TEXT	SEGMENT PARA USE32 PUBLIC 'CODE'
_TEXT	ENDS
;	COMDAT ?InitTurbo@@YAJPAUobject_def@@PAJ@Z
_TEXT	SEGMENT PARA USE32 PUBLIC 'CODE'
_TEXT	ENDS
;	COMDAT ?InitTurbo2@@YAJPAUobject_def@@PAJ@Z
_TEXT	SEGMENT PARA USE32 PUBLIC 'CODE'
_TEXT	ENDS
;	COMDAT ?InitSpring@@YAJPAUobject_def@@PAJ@Z
_TEXT	SEGMENT PARA USE32 PUBLIC 'CODE'
_TEXT	ENDS
;	COMDAT ?InitElectroZapped@@YAJPAUobject_def@@PAJ@Z
_TEXT	SEGMENT PARA USE32 PUBLIC 'CODE'
_TEXT	ENDS
;	COMDAT ?InitBombGlow@@YAJPAUobject_def@@PAJ@Z
_TEXT	SEGMENT PARA USE32 PUBLIC 'CODE'
_TEXT	ENDS
;	COMDAT ?ShockwaveHandler@@YAXPAUobject_def@@@Z
_TEXT	SEGMENT PARA USE32 PUBLIC 'CODE'
_TEXT	ENDS
;	COMDAT ?FireworkHandler@@YAXPAUobject_def@@@Z
_TEXT	SEGMENT PARA USE32 PUBLIC 'CODE'
_TEXT	ENDS
;	COMDAT ?FireWorkMove@@YAXPAUobject_def@@@Z
_TEXT	SEGMENT PARA USE32 PUBLIC 'CODE'
_TEXT	ENDS
;	COMDAT ?FireworkExplode@@YAXPAUobject_def@@@Z
_TEXT	SEGMENT PARA USE32 PUBLIC 'CODE'
_TEXT	ENDS
;	COMDAT ?PuttyBombHandler@@YAXPAUobject_def@@@Z
_TEXT	SEGMENT PARA USE32 PUBLIC 'CODE'
_TEXT	ENDS
;	COMDAT ?PuttyBombBang@@YAXPAUobject_def@@@Z
_TEXT	SEGMENT PARA USE32 PUBLIC 'CODE'
_TEXT	ENDS
;	COMDAT ?PuttyBombMove@@YAXPAUobject_def@@@Z
_TEXT	SEGMENT PARA USE32 PUBLIC 'CODE'
_TEXT	ENDS
;	COMDAT ?WaterBombHandler@@YAXPAUobject_def@@@Z
_TEXT	SEGMENT PARA USE32 PUBLIC 'CODE'
_TEXT	ENDS
;	COMDAT ?ElectroPulseHandler@@YAXPAUobject_def@@@Z
_TEXT	SEGMENT PARA USE32 PUBLIC 'CODE'
_TEXT	ENDS
;	COMDAT ?OilSlickHandler@@YAXPAUobject_def@@@Z
_TEXT	SEGMENT PARA USE32 PUBLIC 'CODE'
_TEXT	ENDS
;	COMDAT ?OilSlickDropperHandler@@YAXPAUobject_def@@@Z
_TEXT	SEGMENT PARA USE32 PUBLIC 'CODE'
_TEXT	ENDS
;	COMDAT ?ChromeBallHandler@@YAXPAUobject_def@@@Z
_TEXT	SEGMENT PARA USE32 PUBLIC 'CODE'
_TEXT	ENDS
;	COMDAT ?CloneHandler@@YAXPAUobject_def@@@Z
_TEXT	SEGMENT PARA USE32 PUBLIC 'CODE'
_TEXT	ENDS
;	COMDAT ?TurboAIHandler@@YAXPAUobject_def@@@Z
_TEXT	SEGMENT PARA USE32 PUBLIC 'CODE'
_TEXT	ENDS
;	COMDAT ?TurboMoveHandler@@YAXPAUobject_def@@@Z
_TEXT	SEGMENT PARA USE32 PUBLIC 'CODE'
_TEXT	ENDS
;	COMDAT ?Turbo2Handler@@YAXPAUobject_def@@@Z
_TEXT	SEGMENT PARA USE32 PUBLIC 'CODE'
_TEXT	ENDS
;	COMDAT ?SpringHandler@@YAXPAUobject_def@@@Z
_TEXT	SEGMENT PARA USE32 PUBLIC 'CODE'
_TEXT	ENDS
;	COMDAT ?ElectroZappedHandler@@YAXPAUobject_def@@@Z
_TEXT	SEGMENT PARA USE32 PUBLIC 'CODE'
_TEXT	ENDS
;	COMDAT ?BombGlowHandler@@YAXPAUobject_def@@@Z
_TEXT	SEGMENT PARA USE32 PUBLIC 'CODE'
_TEXT	ENDS
;	COMDAT ?RenderShockwave@@YAXPAUobject_def@@@Z
_TEXT	SEGMENT PARA USE32 PUBLIC 'CODE'
_TEXT	ENDS
;	COMDAT ?ShockwaveWorldMeshFxChecker@@YAXPAX@Z
_TEXT	SEGMENT PARA USE32 PUBLIC 'CODE'
_TEXT	ENDS
;	COMDAT ?ShockwaveModelMeshFxChecker@@YAXPAX@Z
_TEXT	SEGMENT PARA USE32 PUBLIC 'CODE'
_TEXT	ENDS
;	COMDAT ?PuttyBombWorldMeshFxChecker@@YAXPAX@Z
_TEXT	SEGMENT PARA USE32 PUBLIC 'CODE'
_TEXT	ENDS
;	COMDAT ?PuttyBombModelMeshFxChecker@@YAXPAX@Z
_TEXT	SEGMENT PARA USE32 PUBLIC 'CODE'
_TEXT	ENDS
;	COMDAT ?RenderElectroPulse@@YAXPAUobject_def@@@Z
_TEXT	SEGMENT PARA USE32 PUBLIC 'CODE'
_TEXT	ENDS
;	COMDAT ?RenderOilSlick@@YAXPAUobject_def@@@Z
_TEXT	SEGMENT PARA USE32 PUBLIC 'CODE'
_TEXT	ENDS
;	COMDAT ?RenderChromeBall@@YAXPAUobject_def@@@Z
_TEXT	SEGMENT PARA USE32 PUBLIC 'CODE'
_TEXT	ENDS
;	COMDAT ?RenderElectroZapped@@YAXPAUobject_def@@@Z
_TEXT	SEGMENT PARA USE32 PUBLIC 'CODE'
_TEXT	ENDS
;	COMDAT ?RenderBombGlow@@YAXPAUobject_def@@@Z
_TEXT	SEGMENT PARA USE32 PUBLIC 'CODE'
_TEXT	ENDS
;	COMDAT ?RenderWaterBomb@@YAXPAUobject_def@@@Z
_TEXT	SEGMENT PARA USE32 PUBLIC 'CODE'
_TEXT	ENDS
;	COMDAT ?RenderPuttyBombBang@@YAXPAUobject_def@@@Z
_TEXT	SEGMENT PARA USE32 PUBLIC 'CODE'
_TEXT	ENDS
;	COMDAT ?WeaponTarget@@YAPAUobject_def@@PAU1@@Z
_TEXT	SEGMENT PARA USE32 PUBLIC 'CODE'
_TEXT	ENDS
;	COMDAT ??$_Pow_int@N@@YANNH@Z
_TEXT	SEGMENT PARA USE32 PUBLIC 'CODE'
_TEXT	ENDS
;	COMDAT ??$_Pow_int@H@@YAHHH@Z
_TEXT	SEGMENT PARA USE32 PUBLIC 'CODE'
_TEXT	ENDS
;	COMDAT ??$_Pow_int@M@@YAMMH@Z
_TEXT	SEGMENT PARA USE32 PUBLIC 'CODE'
_TEXT	ENDS
;	COMDAT ??$_Pow_int@O@@YAOOH@Z
_TEXT	SEGMENT PARA USE32 PUBLIC 'CODE'
_TEXT	ENDS
;	COMDAT ?__LINE__Var@?1??WeaponTarget@@YAPAUobject_def@@PAU2@@Z@4JA
_DATA	SEGMENT DWORD USE32 PUBLIC 'DATA'
_DATA	ENDS
;	COMDAT ?__LINE__Var@?1??InitBombGlow@@YAJPAUobject_def@@PAJ@Z@4JA
_DATA	SEGMENT DWORD USE32 PUBLIC 'DATA'
_DATA	ENDS
;	COMDAT ?__LINE__Var@?1??InitElectroZapped@@YAJPAUobject_def@@PAJ@Z@4JA
_DATA	SEGMENT DWORD USE32 PUBLIC 'DATA'
_DATA	ENDS
;	COMDAT ?__LINE__Var@?1??InitChromeBall@@YAJPAUobject_def@@PAJ@Z@4JA
_DATA	SEGMENT DWORD USE32 PUBLIC 'DATA'
_DATA	ENDS
;	COMDAT ?__LINE__Var@?1??InitElectroPulse@@YAJPAUobject_def@@PAJ@Z@4JA
_DATA	SEGMENT DWORD USE32 PUBLIC 'DATA'
_DATA	ENDS
;	COMDAT ?__LINE__Var@?1??InitWaterBomb@@YAJPAUobject_def@@PAJ@Z@4JA
_DATA	SEGMENT DWORD USE32 PUBLIC 'DATA'
_DATA	ENDS
;	COMDAT ?__LINE__Var@?1??InitPuttyBomb@@YAJPAUobject_def@@PAJ@Z@4JA
_DATA	SEGMENT DWORD USE32 PUBLIC 'DATA'
_DATA	ENDS
;	COMDAT ?__LINE__Var@?1??InitShockwave@@YAJPAUobject_def@@PAJ@Z@4JA
_DATA	SEGMENT DWORD USE32 PUBLIC 'DATA'
_DATA	ENDS
;	COMDAT ?__LINE__Var@?1??WeaponSetupTest@@YAXPAUobject_def@@@Z@4JA@a19d6b45
_DATA	SEGMENT DWORD USE32 PUBLIC 'DATA'
_DATA	ENDS
sxdata	SEGMENT DWORD USE32 'SXDATA'
sxdata	ENDS
FLAT	GROUP _DATA, CONST, _BSS
	ASSUME	CS: FLAT, DS: FLAT, SS: FLAT
endif

INCLUDELIB LIBCD
INCLUDELIB OLDNAMES

PUBLIC	?OilSlickCount@@3JA				; OilSlickCount
PUBLIC	?OilSlickList@@3PAUOILSLICK_LIST@@A		; OilSlickList
_BSS	SEGMENT
?OilSlickCount@@3JA DD 01H DUP (?)			; OilSlickCount
?OilSlickList@@3PAUOILSLICK_LIST@@A DB 0600H DUP (?)	; OilSlickList
_BSS	ENDS
_DATA	SEGMENT
_WaterBombVel DD 000000000r			; 0
	DD	0c4bb8000r			; -1500
	DD	044fa0000r			; 2000
_WaterBombOff DD 000000000r			; 0
	DD	0c2000000r			; -32
	DD	000000000r			; 0
_BombSmokeVel DD 000000000r			; 0
	DD	0c2a00000r			; -80
	DD	000000000r			; 0
_DATA	ENDS
PUBLIC	?ResetOilSlickList@@YAXXZ			; ResetOilSlickList
; Function compile flags: /Odt /ZI
; File c:\documents and settings\jarhead\desktop\shit to display my love for xbox revolt and fuck you borman-ness\revolt source\source\weapon.cpp
;	COMDAT ?ResetOilSlickList@@YAXXZ
_TEXT	SEGMENT
?ResetOilSlickList@@YAXXZ PROC NEAR			; ResetOilSlickList, COMDAT

; 50   : {

	push	ebp
	mov	ebp, esp
	sub	esp, 64					; 00000040H
	push	ebx
	push	esi
	push	edi

; 51   : 	OilSlickCount = 0;

	mov	DWORD PTR ?OilSlickCount@@3JA, 0	; OilSlickCount

; 52   : }

	pop	edi
	pop	esi
	pop	ebx
	mov	esp, ebp
	pop	ebp
	ret	0
?ResetOilSlickList@@YAXXZ ENDP				; ResetOilSlickList
_TEXT	ENDS
PUBLIC	??_C@_0IL@GBHCIHE@c?3?2documents?5and?5settings?2jarhea@ ; `string'
PUBLIC	?__LINE__Var@?1??InitShockwave@@YAJPAUobject_def@@PAJ@Z@4JA ; `InitShockwave'::`2'::__LINE__Var
PUBLIC	?sqrt@@YAMM@Z					; sqrt
PUBLIC	__real@45bb8000
PUBLIC	__real@c5bb8000
PUBLIC	__real@40000000
PUBLIC	__real@c63b8000
PUBLIC	__real@3f800000
PUBLIC	__real@47435000
PUBLIC	?InitShockwave@@YAJPAUobject_def@@PAJ@Z		; InitShockwave
PUBLIC	?ShockwaveHandler@@YAXPAUobject_def@@@Z		; ShockwaveHandler
PUBLIC	?RenderShockwave@@YAXPAUobject_def@@@Z		; RenderShockwave
EXTRN	?CreateSfx3D@@YAPAUSAMPLE_3D@@JJJJPAUVectorStruct@@@Z:NEAR ; CreateSfx3D
EXTRN	?RotTransVector@@YAXPATMatrixUnion@@PAUVectorStruct@@11@Z:NEAR ; RotTransVector
EXTRN	?SetMat@@YAXPATMatrixUnion@@MMMMMMMMM@Z:NEAR	; SetMat
EXTRN	?UpVec@@3UVectorStruct@@A:BYTE			; UpVec
EXTRN	?MOV_MoveBody@@YAXPAUobject_def@@@Z:NEAR	; MOV_MoveBody
EXTRN	?CreateCopyCollSkin@@YA_NPAUCollSkinStruct@@@Z:NEAR ; CreateCopyCollSkin
EXTRN	?BuildWorldSkin@@YAXPAUCollSkinStruct@@PAUVectorStruct@@PATMatrixUnion@@@Z:NEAR ; BuildWorldSkin
EXTRN	?DebugMalloc@@YAPAXIHPAD@Z:NEAR			; DebugMalloc
EXTRN	?MakeTightLocalBBox@@YAXPAUCollSkinStruct@@@Z:NEAR ; MakeTightLocalBBox
EXTRN	__fltused:NEAR
EXTRN	?COL_BodyCollHandler@@YAXPAUobject_def@@@Z:NEAR	; COL_BodyCollHandler
EXTRN	?AddLinearTwistField@@YAPAUForceFieldStruct@@JJPAUVectorStruct@@PATMatrixUnion@@PAUBBOX@@00M0M@Z:NEAR ; AddLinearTwistField
EXTRN	?AllocLight@@YAPAULIGHT@@XZ:NEAR		; AllocLight
;	COMDAT __real@45bb8000
CONST	SEGMENT
__real@45bb8000 DD 045bb8000r			; 6000
CONST	ENDS
;	COMDAT __real@c5bb8000
CONST	SEGMENT
__real@c5bb8000 DD 0c5bb8000r			; -6000
CONST	ENDS
;	COMDAT ??_C@_0IL@GBHCIHE@c?3?2documents?5and?5settings?2jarhea@
CONST	SEGMENT
??_C@_0IL@GBHCIHE@c?3?2documents?5and?5settings?2jarhea@ DB 'c:\documents'
	DB	' and settings\jarhead\desktop\shit to display my love for xbo'
	DB	'x revolt and fuck you borman-ness\revolt source\source\weapon'
	DB	'.cpp', 00H					; `string'
CONST	ENDS
;	COMDAT ?__LINE__Var@?1??InitShockwave@@YAJPAUobject_def@@PAJ@Z@4JA
_DATA	SEGMENT
?__LINE__Var@?1??InitShockwave@@YAJPAUobject_def@@PAJ@Z@4JA DD 09fH ; `InitShockwave'::`2'::__LINE__Var
_DATA	ENDS
;	COMDAT __real@40000000
CONST	SEGMENT
__real@40000000 DD 040000000r			; 2
CONST	ENDS
;	COMDAT __real@c63b8000
CONST	SEGMENT
__real@c63b8000 DD 0c63b8000r			; -12000
CONST	ENDS
;	COMDAT __real@3f800000
CONST	SEGMENT
__real@3f800000 DD 03f800000r			; 1
CONST	ENDS
;	COMDAT __real@47435000
CONST	SEGMENT
__real@47435000 DD 047435000r			; 50000
; Function compile flags: /Odt /ZI
CONST	ENDS
;	COMDAT ?InitShockwave@@YAJPAUobject_def@@PAJ@Z
_TEXT	SEGMENT
__mul$83066 = -68					; size = 4
_shockwave$ = -64					; size = 4
_bBox$ = -60						; size = 24
_axis$ = -36						; size = 12
_dir$ = -24						; size = 12
_bVec$ = -12						; size = 12
_obj$ = 8						; size = 4
_flags$ = 12						; size = 4
?InitShockwave@@YAJPAUobject_def@@PAJ@Z PROC NEAR	; InitShockwave, COMDAT

; 159  : {

	push	ebp
	mov	ebp, esp
	sub	esp, 132				; 00000084H
	push	ebx
	push	esi
	push	edi

; 160  : 	VEC bVec, dir, axis;
; 161  : 	BBOX bBox;
; 162  : 	SHOCKWAVE_OBJ *shockwave = (SHOCKWAVE_OBJ*)obj->Data;

	mov	eax, DWORD PTR _obj$[ebp]
	mov	ecx, DWORD PTR [eax+684]
	mov	DWORD PTR _shockwave$[ebp], ecx

; 163  : 
; 164  : // remember owner player
; 165  : 
; 166  : 	obj->player = (PLAYER*)flags[0];

	mov	eax, DWORD PTR _obj$[ebp]
	mov	ecx, DWORD PTR _flags$[ebp]
	mov	edx, DWORD PTR [ecx]
	mov	DWORD PTR [eax+588], edx

; 167  : 
; 168  : // setup 
; 169  : 
; 170  : 	shockwave->Alive = TRUE;

	mov	eax, DWORD PTR _shockwave$[ebp]
	mov	DWORD PTR [eax], 1

; 171  : 	shockwave->Age = 0.0f;

	mov	eax, DWORD PTR _shockwave$[ebp]
	mov	DWORD PTR [eax+4], 0

; 172  : 	shockwave->Reach = 1024.0f;

	mov	eax, DWORD PTR _shockwave$[ebp]
	mov	DWORD PTR [eax+8], 1149239296		; 44800000H

; 173  : 
; 174  : 	RotTransVector(&obj->body.Centre.WMatrix, &obj->body.Centre.Pos, &obj->player->car.WeaponOffset, &obj->body.Centre.Pos);

	mov	eax, DWORD PTR _obj$[ebp]
	add	eax, 20					; 00000014H
	push	eax
	mov	ecx, DWORD PTR _obj$[ebp]
	mov	edx, DWORD PTR [ecx+588]
	add	edx, 3444				; 00000d74H
	push	edx
	mov	eax, DWORD PTR _obj$[ebp]
	add	eax, 20					; 00000014H
	push	eax
	mov	ecx, DWORD PTR _obj$[ebp]
	add	ecx, 100				; 00000064H
	push	ecx
	call	?RotTransVector@@YAXPATMatrixUnion@@PAUVectorStruct@@11@Z ; RotTransVector
	add	esp, 16					; 00000010H

; 175  : 	VecEqScalarVec(&obj->body.Centre.Vel, SHOCKWAVE_VEL, &obj->body.Centre.WMatrix.mv[L]);

	mov	eax, DWORD PTR _obj$[ebp]
	fld	DWORD PTR __real@45bb8000
	fmul	DWORD PTR [eax+124]
	mov	ecx, DWORD PTR _obj$[ebp]
	fstp	DWORD PTR [ecx+32]
	mov	eax, DWORD PTR _obj$[ebp]
	fld	DWORD PTR __real@45bb8000
	fmul	DWORD PTR [eax+128]
	mov	ecx, DWORD PTR _obj$[ebp]
	fstp	DWORD PTR [ecx+36]
	mov	eax, DWORD PTR _obj$[ebp]
	fld	DWORD PTR __real@45bb8000
	fmul	DWORD PTR [eax+132]
	mov	ecx, DWORD PTR _obj$[ebp]
	fstp	DWORD PTR [ecx+40]

; 176  : 
; 177  : 	VecPlusScalarVec(&obj->body.Centre.Pos, -SHOCKWAVE_VEL, &obj->body.Centre.Vel, &shockwave->OldPos);

	mov	eax, DWORD PTR _obj$[ebp]
	fld	DWORD PTR __real@c5bb8000
	fmul	DWORD PTR [eax+32]
	mov	ecx, DWORD PTR _obj$[ebp]
	fadd	DWORD PTR [ecx+20]
	mov	edx, DWORD PTR _shockwave$[ebp]
	fstp	DWORD PTR [edx+12]
	mov	eax, DWORD PTR _obj$[ebp]
	fld	DWORD PTR __real@c5bb8000
	fmul	DWORD PTR [eax+36]
	mov	ecx, DWORD PTR _obj$[ebp]
	fadd	DWORD PTR [ecx+24]
	mov	edx, DWORD PTR _shockwave$[ebp]
	fstp	DWORD PTR [edx+16]
	mov	eax, DWORD PTR _obj$[ebp]
	fld	DWORD PTR __real@c5bb8000
	fmul	DWORD PTR [eax+40]
	mov	ecx, DWORD PTR _obj$[ebp]
	fadd	DWORD PTR [ecx+28]
	mov	edx, DWORD PTR _shockwave$[ebp]
	fstp	DWORD PTR [edx+20]

; 178  : 
; 179  : // setup handlers
; 180  : 
; 181  : 	obj->aihandler = (AI_HANDLER)ShockwaveHandler;

	mov	eax, DWORD PTR _obj$[ebp]
	mov	DWORD PTR [eax+696], OFFSET FLAT:?ShockwaveHandler@@YAXPAUobject_def@@@Z ; ShockwaveHandler

; 182  : 	obj->renderhandler = (RENDER_HANDLER)RenderShockwave;

	mov	eax, DWORD PTR _obj$[ebp]
	mov	DWORD PTR [eax+700], OFFSET FLAT:?RenderShockwave@@YAXPAUobject_def@@@Z ; RenderShockwave

; 183  : 	obj->collhandler = (COLL_HANDLER)COL_BodyCollHandler;

	mov	eax, DWORD PTR _obj$[ebp]
	mov	DWORD PTR [eax+692], OFFSET FLAT:?COL_BodyCollHandler@@YAXPAUobject_def@@@Z ; COL_BodyCollHandler

; 184  : 	obj->movehandler = (MOVE_HANDLER)MOV_MoveBody;

	mov	eax, DWORD PTR _obj$[ebp]
	mov	DWORD PTR [eax+688], OFFSET FLAT:?MOV_MoveBody@@YAXPAUobject_def@@@Z ; MOV_MoveBody

; 185  : 
; 186  : // Physical properties
; 187  : 
; 188  : 	obj->CollType = COLL_TYPE_BODY;

	mov	eax, DWORD PTR _obj$[ebp]
	mov	DWORD PTR [eax+660], 1

; 189  : 
; 190  : 	obj->body.Centre.Mass = Real(1.0);

	mov	eax, DWORD PTR _obj$[ebp]
	mov	DWORD PTR [eax], 1065353216		; 3f800000H

; 191  : 	obj->body.Centre.InvMass = ONE / Real(1.0);

	mov	eax, DWORD PTR _obj$[ebp]
	mov	DWORD PTR [eax+4], 1065353216		; 3f800000H

; 192  : 	SetMat(&obj->body.BodyInertia, Real(100), ZERO, ZERO, ZERO, Real(100), ZERO, ZERO, ZERO, Real(100));

	push	1120403456				; 42c80000H
	push	0
	push	0
	push	0
	push	1120403456				; 42c80000H
	push	0
	push	0
	push	0
	push	1120403456				; 42c80000H
	mov	eax, DWORD PTR _obj$[ebp]
	add	eax, 224				; 000000e0H
	push	eax
	call	?SetMat@@YAXPATMatrixUnion@@MMMMMMMMM@Z	; SetMat
	add	esp, 40					; 00000028H

; 193  : 	SetMat(&obj->body.BodyInvInertia, ONE / Real(100), ZERO, ZERO, ZERO, ONE / Real(100), ZERO, ZERO, ZERO, ONE / Real(100));

	push	1008981770				; 3c23d70aH
	push	0
	push	0
	push	0
	push	1008981770				; 3c23d70aH
	push	0
	push	0
	push	0
	push	1008981770				; 3c23d70aH
	mov	eax, DWORD PTR _obj$[ebp]
	add	eax, 260				; 00000104H
	push	eax
	call	?SetMat@@YAXPATMatrixUnion@@MMMMMMMMM@Z	; SetMat
	add	esp, 40					; 00000028H

; 194  : 
; 195  : 	obj->body.Centre.Hardness = Real(0.1);

	mov	eax, DWORD PTR _obj$[ebp]
	mov	DWORD PTR [eax+172], 1036831949		; 3dcccccdH

; 196  : 	obj->body.Centre.Resistance = Real(0.0);

	mov	eax, DWORD PTR _obj$[ebp]
	mov	DWORD PTR [eax+176], 0

; 197  : 	obj->body.DefaultAngRes = Real(0.0);

	mov	eax, DWORD PTR _obj$[ebp]
	mov	DWORD PTR [eax+368], 0

; 198  : 	obj->body.AngResistance = Real(0.0);

	mov	eax, DWORD PTR _obj$[ebp]
	mov	DWORD PTR [eax+376], 0

; 199  : 	obj->body.AngResMod = Real(1.0);

	mov	eax, DWORD PTR _obj$[ebp]
	mov	DWORD PTR [eax+372], 1065353216		; 3f800000H

; 200  : 	obj->body.Centre.Grip = Real(0.0);

	mov	eax, DWORD PTR _obj$[ebp]
	mov	DWORD PTR [eax+180], 0

; 201  : 	obj->body.Centre.StaticFriction = Real(0.0);

	mov	eax, DWORD PTR _obj$[ebp]
	mov	DWORD PTR [eax+184], 0

; 202  : 	obj->body.Centre.KineticFriction = Real(0.0);

	mov	eax, DWORD PTR _obj$[ebp]
	mov	DWORD PTR [eax+188], 0

; 203  : 
; 204  : // Collision skin
; 205  : 
; 206  : 	SetBodySphere(&obj->body);

	mov	eax, DWORD PTR _obj$[ebp]
	mov	DWORD PTR [eax+472], 1

; 207  : 	obj->body.CollSkin.Sphere = (SPHERE *)malloc(sizeof(SPHERE));

	push	OFFSET FLAT:??_C@_0IL@GBHCIHE@c?3?2documents?5and?5settings?2jarhea@
	mov	eax, DWORD PTR ?__LINE__Var@?1??InitShockwave@@YAJPAUobject_def@@PAJ@Z@4JA
	add	eax, 48					; 00000030H
	push	eax
	push	16					; 00000010H
	call	?DebugMalloc@@YAPAXIHPAD@Z		; DebugMalloc
	add	esp, 12					; 0000000cH
	mov	ecx, DWORD PTR _obj$[ebp]
	mov	DWORD PTR [ecx+396], eax

; 208  : 	SetVecZero(&obj->body.CollSkin.Sphere[0].Pos);

	mov	eax, DWORD PTR _obj$[ebp]
	mov	ecx, DWORD PTR [eax+396]
	mov	DWORD PTR [ecx], 0
	mov	eax, DWORD PTR _obj$[ebp]
	mov	ecx, DWORD PTR [eax+396]
	mov	DWORD PTR [ecx+4], 0
	mov	eax, DWORD PTR _obj$[ebp]
	mov	ecx, DWORD PTR [eax+396]
	mov	DWORD PTR [ecx+8], 0

; 209  : 	obj->body.CollSkin.Sphere[0].Radius = SHOCKWAVE_RAD;

	mov	eax, DWORD PTR _obj$[ebp]
	mov	ecx, DWORD PTR [eax+396]
	mov	DWORD PTR [ecx+12], 1109393408		; 42200000H

; 210  : 	obj->body.CollSkin.NSpheres = 1;

	mov	eax, DWORD PTR _obj$[ebp]
	mov	WORD PTR [eax+408], 1

; 211  : 	CreateCopyCollSkin(&obj->body.CollSkin);

	mov	eax, DWORD PTR _obj$[ebp]
	add	eax, 380				; 0000017cH
	push	eax
	call	?CreateCopyCollSkin@@YA_NPAUCollSkinStruct@@@Z ; CreateCopyCollSkin
	add	esp, 4

; 212  : 	MakeTightLocalBBox(&obj->body.CollSkin);

	mov	eax, DWORD PTR _obj$[ebp]
	add	eax, 380				; 0000017cH
	push	eax
	call	?MakeTightLocalBBox@@YAXPAUCollSkinStruct@@@Z ; MakeTightLocalBBox
	add	esp, 4

; 213  : 	BuildWorldSkin(&obj->body.CollSkin, &obj->body.Centre.Pos, &obj->body.Centre.WMatrix);

	mov	eax, DWORD PTR _obj$[ebp]
	add	eax, 100				; 00000064H
	push	eax
	mov	ecx, DWORD PTR _obj$[ebp]
	add	ecx, 20					; 00000014H
	push	ecx
	mov	edx, DWORD PTR _obj$[ebp]
	add	edx, 380				; 0000017cH
	push	edx
	call	?BuildWorldSkin@@YAXPAUCollSkinStruct@@PAUVectorStruct@@PATMatrixUnion@@@Z ; BuildWorldSkin
	add	esp, 12					; 0000000cH

; 214  : 
; 215  : 	obj->body.CollSkin.AllowObjColls = FALSE;

	mov	eax, DWORD PTR _obj$[ebp]
	mov	BYTE PTR [eax+477], 0

; 216  : 
; 217  : // setup light
; 218  : 
; 219  : 	obj->Light = AllocLight();

	call	?AllocLight@@YAPAULIGHT@@XZ		; AllocLight
	mov	ecx, DWORD PTR _obj$[ebp]
	mov	DWORD PTR [ecx+672], eax

; 220  : 	if (obj->Light)

	mov	eax, DWORD PTR _obj$[ebp]
	cmp	DWORD PTR [eax+672], 0
	je	SHORT $L83062

; 221  : 	{
; 222  : 		obj->Light->Reach = 1024;

	mov	eax, DWORD PTR _obj$[ebp]
	mov	ecx, DWORD PTR [eax+672]
	mov	DWORD PTR [ecx+12], 1149239296		; 44800000H

; 223  : 		obj->Light->Flag = LIGHT_FIXED | LIGHT_MOVING;

	mov	eax, DWORD PTR _obj$[ebp]
	mov	ecx, DWORD PTR [eax+672]
	mov	BYTE PTR [ecx+100], 3

; 224  : 		obj->Light->Type = LIGHT_OMNI;

	mov	eax, DWORD PTR _obj$[ebp]
	mov	ecx, DWORD PTR [eax+672]
	mov	BYTE PTR [ecx+101], 0

; 225  : 		obj->Light->r = 0;

	mov	eax, DWORD PTR _obj$[ebp]
	mov	ecx, DWORD PTR [eax+672]
	mov	DWORD PTR [ecx+88], 0

; 226  : 		obj->Light->g = 0;

	mov	eax, DWORD PTR _obj$[ebp]
	mov	ecx, DWORD PTR [eax+672]
	mov	DWORD PTR [ecx+92], 0

; 227  : 		obj->Light->b = 128;

	mov	eax, DWORD PTR _obj$[ebp]
	mov	ecx, DWORD PTR [eax+672]
	mov	DWORD PTR [ecx+96], 128			; 00000080H
$L83062:

; 228  : 	}
; 229  : 
; 230  : // setup sfx
; 231  : 
; 232  : 	obj->Sfx3D = CreateSfx3D(SFX_SHOCKWAVE, SFX_MAX_VOL, 22050, TRUE, &obj->body.Centre.Pos);

	mov	eax, DWORD PTR _obj$[ebp]
	add	eax, 20					; 00000014H
	push	eax
	push	1
	push	22050					; 00005622H
	push	127					; 0000007fH
	push	7
	call	?CreateSfx3D@@YAPAUSAMPLE_3D@@JJJJPAUVectorStruct@@@Z ; CreateSfx3D
	add	esp, 20					; 00000014H
	mov	ecx, DWORD PTR _obj$[ebp]
	mov	DWORD PTR [ecx+680], eax

; 233  : 
; 234  : // Add a force field
; 235  : 
; 236  : 	SetBBox(&bBox, -shockwave->Reach, shockwave->Reach, -shockwave->Reach, shockwave->Reach, -shockwave->Reach, shockwave->Reach);

	mov	eax, DWORD PTR _shockwave$[ebp]
	fld	DWORD PTR [eax+8]
	fchs
	fstp	DWORD PTR _bBox$[ebp]
	mov	eax, DWORD PTR _shockwave$[ebp]
	mov	ecx, DWORD PTR [eax+8]
	mov	DWORD PTR _bBox$[ebp+4], ecx
	mov	eax, DWORD PTR _shockwave$[ebp]
	fld	DWORD PTR [eax+8]
	fchs
	fstp	DWORD PTR _bBox$[ebp+8]
	mov	eax, DWORD PTR _shockwave$[ebp]
	mov	ecx, DWORD PTR [eax+8]
	mov	DWORD PTR _bBox$[ebp+12], ecx
	mov	eax, DWORD PTR _shockwave$[ebp]
	fld	DWORD PTR [eax+8]
	fchs
	fstp	DWORD PTR _bBox$[ebp+16]
	mov	eax, DWORD PTR _shockwave$[ebp]
	mov	ecx, DWORD PTR [eax+8]
	mov	DWORD PTR _bBox$[ebp+20], ecx

; 237  : 	SetVec(&bVec, shockwave->Reach / 2, shockwave->Reach / 2, shockwave->Reach / 2);

	mov	eax, DWORD PTR _shockwave$[ebp]
	fld	DWORD PTR [eax+8]
	fdiv	DWORD PTR __real@40000000
	fstp	DWORD PTR _bVec$[ebp]
	mov	eax, DWORD PTR _shockwave$[ebp]
	fld	DWORD PTR [eax+8]
	fdiv	DWORD PTR __real@40000000
	fstp	DWORD PTR _bVec$[ebp+4]
	mov	eax, DWORD PTR _shockwave$[ebp]
	fld	DWORD PTR [eax+8]
	fdiv	DWORD PTR __real@40000000
	fstp	DWORD PTR _bVec$[ebp+8]

; 238  : 	VecPlusScalarVec(&obj->body.Centre.Vel, -Real(12000), &UpVec, &dir);

	fld	DWORD PTR __real@c63b8000
	fmul	DWORD PTR ?UpVec@@3UVectorStruct@@A
	mov	eax, DWORD PTR _obj$[ebp]
	fadd	DWORD PTR [eax+32]
	fstp	DWORD PTR _dir$[ebp]
	fld	DWORD PTR __real@c63b8000
	fmul	DWORD PTR ?UpVec@@3UVectorStruct@@A+4
	mov	eax, DWORD PTR _obj$[ebp]
	fadd	DWORD PTR [eax+36]
	fstp	DWORD PTR _dir$[ebp+4]
	fld	DWORD PTR __real@c63b8000
	fmul	DWORD PTR ?UpVec@@3UVectorStruct@@A+8
	mov	eax, DWORD PTR _obj$[ebp]
	fadd	DWORD PTR [eax+40]
	fstp	DWORD PTR _dir$[ebp+8]

; 239  : 	NormalizeVec(&dir);

	fld	DWORD PTR _dir$[ebp]
	fmul	DWORD PTR _dir$[ebp]
	fld	DWORD PTR _dir$[ebp+4]
	fmul	DWORD PTR _dir$[ebp+4]
	faddp	ST(1), ST(0)
	fld	DWORD PTR _dir$[ebp+8]
	fmul	DWORD PTR _dir$[ebp+8]
	faddp	ST(1), ST(0)
	push	ecx
	fstp	DWORD PTR [esp]
	call	?sqrt@@YAMM@Z				; sqrt
	add	esp, 4
	fdivr	DWORD PTR __real@3f800000
	fstp	DWORD PTR __mul$83066[ebp]
	fld	DWORD PTR _dir$[ebp]
	fmul	DWORD PTR __mul$83066[ebp]
	fstp	DWORD PTR _dir$[ebp]
	fld	DWORD PTR _dir$[ebp+4]
	fmul	DWORD PTR __mul$83066[ebp]
	fstp	DWORD PTR _dir$[ebp+4]
	fld	DWORD PTR _dir$[ebp+8]
	fmul	DWORD PTR __mul$83066[ebp]
	fstp	DWORD PTR _dir$[ebp+8]

; 240  : 	VecEqScalarVec(&axis, Real(50000), &obj->body.Centre.WMatrix.mv[R]);

	mov	eax, DWORD PTR _obj$[ebp]
	fld	DWORD PTR __real@47435000
	fmul	DWORD PTR [eax+100]
	fstp	DWORD PTR _axis$[ebp]
	mov	eax, DWORD PTR _obj$[ebp]
	fld	DWORD PTR __real@47435000
	fmul	DWORD PTR [eax+104]
	fstp	DWORD PTR _axis$[ebp+4]
	mov	eax, DWORD PTR _obj$[ebp]
	fld	DWORD PTR __real@47435000
	fmul	DWORD PTR [eax+108]
	fstp	DWORD PTR _axis$[ebp+8]

; 241  : 	obj->Field = AddLinearTwistField(
; 242  : 		obj->player->ownobj->ObjID, 
; 243  : 		FIELD_PRIORITY_MIN,
; 244  : 		&obj->body.Centre.Pos,
; 245  : 		&obj->body.Centre.WMatrix,
; 246  : 		&bBox,
; 247  : 		&bVec,
; 248  : 		&dir,
; 249  : 		-Real(6000),
; 250  : 		&axis,
; 251  : 		ZERO);

	push	0
	lea	eax, DWORD PTR _axis$[ebp]
	push	eax
	push	-977567744				; c5bb8000H
	lea	ecx, DWORD PTR _dir$[ebp]
	push	ecx
	lea	edx, DWORD PTR _bVec$[ebp]
	push	edx
	lea	eax, DWORD PTR _bBox$[ebp]
	push	eax
	mov	ecx, DWORD PTR _obj$[ebp]
	add	ecx, 100				; 00000064H
	push	ecx
	mov	edx, DWORD PTR _obj$[ebp]
	add	edx, 20					; 00000014H
	push	edx
	push	1
	mov	eax, DWORD PTR _obj$[ebp]
	mov	ecx, DWORD PTR [eax+588]
	mov	edx, DWORD PTR [ecx+40]
	mov	eax, DWORD PTR [edx+576]
	push	eax
	call	?AddLinearTwistField@@YAPAUForceFieldStruct@@JJPAUVectorStruct@@PATMatrixUnion@@PAUBBOX@@00M0M@Z ; AddLinearTwistField
	add	esp, 40					; 00000028H
	mov	ecx, DWORD PTR _obj$[ebp]
	mov	DWORD PTR [ecx+664], eax

; 252  : 
; 253  : 	obj->FieldPriority = FIELD_PRIORITY_MAX;

	mov	eax, DWORD PTR _obj$[ebp]
	mov	DWORD PTR [eax+668], 0

; 254  : 
; 255  : // return OK
; 256  : 
; 257  : 	return TRUE;

	mov	eax, 1

; 258  : }

	pop	edi
	pop	esi
	pop	ebx
	mov	esp, ebp
	pop	ebp
	ret	0
?InitShockwave@@YAJPAUobject_def@@PAJ@Z ENDP		; InitShockwave
_TEXT	ENDS
PUBLIC	__real@42c80000
PUBLIC	__real@45548000
PUBLIC	__real@41000000
PUBLIC	__real@455ac000
PUBLIC	__real@44bb8000
PUBLIC	?InitFirework@@YAJPAUobject_def@@PAJ@Z		; InitFirework
PUBLIC	?FireworkHandler@@YAXPAUobject_def@@@Z		; FireworkHandler
EXTRN	?SetBodyPos@@YAXPAUNewBodyStruct@@PAUVectorStruct@@PATMatrixUnion@@@Z:NEAR ; SetBodyPos
EXTRN	?BuildMatrixFromUp@@YAXPATMatrixUnion@@@Z:NEAR	; BuildMatrixFromUp
EXTRN	?GetFreeTrail@@YAPAUSparkTrailStruct@@J@Z:NEAR	; GetFreeTrail
EXTRN	?LoadOneLevelModel@@YAJJJUrenderflags@@J@Z:NEAR	; LoadOneLevelModel
EXTRN	?LevelModel@@3PAULEVEL_MODEL@@A:BYTE		; LevelModel
;	COMDAT __real@42c80000
CONST	SEGMENT
__real@42c80000 DD 042c80000r			; 100
CONST	ENDS
;	COMDAT __real@45548000
CONST	SEGMENT
__real@45548000 DD 045548000r			; 3400
CONST	ENDS
;	COMDAT __real@41000000
CONST	SEGMENT
__real@41000000 DD 041000000r			; 8
CONST	ENDS
;	COMDAT __real@455ac000
CONST	SEGMENT
__real@455ac000 DD 0455ac000r			; 3500
CONST	ENDS
;	COMDAT __real@44bb8000
CONST	SEGMENT
__real@44bb8000 DD 044bb8000r			; 1500
; Function compile flags: /Odt /ZI
CONST	ENDS
;	COMDAT ?InitFirework@@YAJPAUobject_def@@PAJ@Z
_TEXT	SEGMENT
__mul$83116 = -44					; size = 4
_firework$ = -40					; size = 4
_playerMat$ = -36					; size = 4
_dir$ = -32						; size = 12
_dR$ = -20						; size = 12
_speedMod$ = -8						; size = 4
_dRLen$ = -4						; size = 4
_obj$ = 8						; size = 4
_flags$ = 12						; size = 4
?InitFirework@@YAJPAUobject_def@@PAJ@Z PROC NEAR	; InitFirework, COMDAT

; 265  : {

	push	ebp
	mov	ebp, esp
	sub	esp, 108				; 0000006cH
	push	ebx
	push	esi
	push	edi

; 266  : 	REAL dRLen, speedMod;
; 267  : 	VEC dR, dir;
; 268  : 	MAT *playerMat;
; 269  : 	FIREWORK_OBJ *firework = (FIREWORK_OBJ*)obj->Data;

	mov	eax, DWORD PTR _obj$[ebp]
	mov	ecx, DWORD PTR [eax+684]
	mov	DWORD PTR _firework$[ebp], ecx

; 270  : 
; 271  : // set render flags
; 272  : 
; 273  : 	obj->renderflag.envmap = FALSE;

	mov	eax, DWORD PTR _obj$[ebp]
	mov	ecx, DWORD PTR [eax+584]
	and	ecx, -2					; fffffffeH
	mov	edx, DWORD PTR _obj$[ebp]
	mov	DWORD PTR [edx+584], ecx

; 274  : 	obj->renderflag.light = FALSE;

	mov	eax, DWORD PTR _obj$[ebp]
	mov	ecx, DWORD PTR [eax+584]
	and	ecx, -5					; fffffffbH
	mov	edx, DWORD PTR _obj$[ebp]
	mov	DWORD PTR [edx+584], ecx

; 275  : 
; 276  : // setup handlers
; 277  : 
; 278  : 	obj->movehandler = (MOVE_HANDLER)FireworkHandler;

	mov	eax, DWORD PTR _obj$[ebp]
	mov	DWORD PTR [eax+688], OFFSET FLAT:?FireworkHandler@@YAXPAUobject_def@@@Z ; FireworkHandler

; 279  : 	obj->CollType = COLL_TYPE_BODY;

	mov	eax, DWORD PTR _obj$[ebp]
	mov	DWORD PTR [eax+660], 1

; 280  : 	obj->collhandler = (COLL_HANDLER)COL_BodyCollHandler;

	mov	eax, DWORD PTR _obj$[ebp]
	mov	DWORD PTR [eax+692], OFFSET FLAT:?COL_BodyCollHandler@@YAXPAUobject_def@@@Z ; COL_BodyCollHandler

; 281  : 
; 282  : // load default model
; 283  : 
; 284  : 	obj->DefaultModel = LoadOneLevelModel(LEVEL_MODEL_FIREWORK, FALSE, obj->renderflag, TPAGE_FX1);

	push	27					; 0000001bH
	mov	eax, DWORD PTR _obj$[ebp]
	mov	ecx, DWORD PTR [eax+584]
	push	ecx
	push	0
	push	37					; 00000025H
	call	?LoadOneLevelModel@@YAJJJUrenderflags@@J@Z ; LoadOneLevelModel
	add	esp, 16					; 00000010H
	mov	edx, DWORD PTR _obj$[ebp]
	mov	DWORD PTR [edx+656], eax

; 285  : 	if (obj->DefaultModel == -1) return FALSE;

	mov	eax, DWORD PTR _obj$[ebp]
	cmp	DWORD PTR [eax+656], -1
	jne	SHORT $L83085
	xor	eax, eax
	jmp	$L83075
$L83085:

; 286  : 
; 287  : // remember owner player
; 288  : 
; 289  : 	obj->player = (PLAYER*)flags[0];

	mov	eax, DWORD PTR _obj$[ebp]
	mov	ecx, DWORD PTR _flags$[ebp]
	mov	edx, DWORD PTR [ecx]
	mov	DWORD PTR [eax+588], edx

; 290  : 	playerMat = &obj->player->car.Body->Centre.WMatrix;

	mov	eax, DWORD PTR _obj$[ebp]
	mov	ecx, DWORD PTR [eax+588]
	mov	edx, DWORD PTR [ecx+900]
	add	edx, 100				; 00000064H
	mov	DWORD PTR _playerMat$[ebp], edx

; 291  : 
; 292  : 	// misc
; 293  : 	firework->Exploded = FALSE;

	mov	eax, DWORD PTR _firework$[ebp]
	mov	BYTE PTR [eax+4], 0

; 294  : 	firework->Age = ZERO;

	mov	eax, DWORD PTR _firework$[ebp]
	mov	DWORD PTR [eax+8], 0

; 295  : 	firework->Target = obj->player->PickupTarget;

	mov	eax, DWORD PTR _obj$[ebp]
	mov	ecx, DWORD PTR [eax+588]
	mov	edx, DWORD PTR _firework$[ebp]
	mov	eax, DWORD PTR [ecx+10236]
	mov	DWORD PTR [edx], eax

; 296  : 
; 297  : 	// offset pos
; 298  : 	RotTransVector(&obj->body.Centre.WMatrix, &obj->body.Centre.Pos, &obj->player->car.WeaponOffset, &obj->body.Centre.Pos);

	mov	eax, DWORD PTR _obj$[ebp]
	add	eax, 20					; 00000014H
	push	eax
	mov	ecx, DWORD PTR _obj$[ebp]
	mov	edx, DWORD PTR [ecx+588]
	add	edx, 3444				; 00000d74H
	push	edx
	mov	eax, DWORD PTR _obj$[ebp]
	add	eax, 20					; 00000014H
	push	eax
	mov	ecx, DWORD PTR _obj$[ebp]
	add	ecx, 100				; 00000064H
	push	ecx
	call	?RotTransVector@@YAXPATMatrixUnion@@PAUVectorStruct@@11@Z ; RotTransVector
	add	esp, 16					; 00000010H

; 299  : 
; 300  : 	// Physical properties
; 301  : 	obj->body.Centre.Mass = Real(0.1f);

	mov	eax, DWORD PTR _obj$[ebp]
	mov	DWORD PTR [eax], 1036831949		; 3dcccccdH

; 302  : 	obj->body.Centre.InvMass = ONE / Real(0.1f);

	mov	eax, DWORD PTR _obj$[ebp]
	mov	DWORD PTR [eax+4], 1092616192		; 41200000H

; 303  : 	SetMat(&obj->body.BodyInertia, Real(100), ZERO, ZERO, ZERO, Real(100), ZERO, ZERO, ZERO, Real(100));

	push	1120403456				; 42c80000H
	push	0
	push	0
	push	0
	push	1120403456				; 42c80000H
	push	0
	push	0
	push	0
	push	1120403456				; 42c80000H
	mov	eax, DWORD PTR _obj$[ebp]
	add	eax, 224				; 000000e0H
	push	eax
	call	?SetMat@@YAXPATMatrixUnion@@MMMMMMMMM@Z	; SetMat
	add	esp, 40					; 00000028H

; 304  : 	SetMat(&obj->body.BodyInvInertia, ONE / Real(100), ZERO, ZERO, ZERO, ONE / Real(100), ZERO, ZERO, ZERO, ONE / Real(100));

	push	1008981770				; 3c23d70aH
	push	0
	push	0
	push	0
	push	1008981770				; 3c23d70aH
	push	0
	push	0
	push	0
	push	1008981770				; 3c23d70aH
	mov	eax, DWORD PTR _obj$[ebp]
	add	eax, 260				; 00000104H
	push	eax
	call	?SetMat@@YAXPATMatrixUnion@@MMMMMMMMM@Z	; SetMat
	add	esp, 40					; 00000028H

; 305  : 
; 306  : 	obj->body.Centre.Hardness = Real(0.7);

	mov	eax, DWORD PTR _obj$[ebp]
	mov	DWORD PTR [eax+172], 1060320051		; 3f333333H

; 307  : 	obj->body.Centre.Resistance = Real(0.003);

	mov	eax, DWORD PTR _obj$[ebp]
	mov	DWORD PTR [eax+176], 994352038		; 3b449ba6H

; 308  : 	obj->body.DefaultAngRes = Real(0.01);

	mov	eax, DWORD PTR _obj$[ebp]
	mov	DWORD PTR [eax+368], 1008981770		; 3c23d70aH

; 309  : 	obj->body.AngResistance = Real(0.01);

	mov	eax, DWORD PTR _obj$[ebp]
	mov	DWORD PTR [eax+376], 1008981770		; 3c23d70aH

; 310  : 	obj->body.AngResMod = Real(1.0);

	mov	eax, DWORD PTR _obj$[ebp]
	mov	DWORD PTR [eax+372], 1065353216		; 3f800000H

; 311  : 	obj->body.Centre.Grip = Real(0.015);

	mov	eax, DWORD PTR _obj$[ebp]
	mov	DWORD PTR [eax+180], 1014350479		; 3c75c28fH

; 312  : 	obj->body.Centre.StaticFriction = Real(1.5);

	mov	eax, DWORD PTR _obj$[ebp]
	mov	DWORD PTR [eax+184], 1069547520		; 3fc00000H

; 313  : 	obj->body.Centre.KineticFriction = Real(1.1);

	mov	eax, DWORD PTR _obj$[ebp]
	mov	DWORD PTR [eax+188], 1066192077		; 3f8ccccdH

; 314  : 
; 315  : 	// Collision skin
; 316  : 	SetBodyConvex(&obj->body);

	mov	eax, DWORD PTR _obj$[ebp]
	mov	DWORD PTR [eax+472], 0

; 317  : 	obj->body.CollSkin.AllowObjColls = FALSE;

	mov	eax, DWORD PTR _obj$[ebp]
	mov	BYTE PTR [eax+477], 0

; 318  : 	obj->body.CollSkin.NConvex = LevelModel[obj->DefaultModel].CollSkin.NConvex;

	mov	eax, DWORD PTR _obj$[ebp]
	mov	ecx, DWORD PTR [eax+656]
	imul	ecx, 168				; 000000a8H
	mov	edx, DWORD PTR _obj$[ebp]
	mov	ax, WORD PTR ?LevelModel@@3PAULEVEL_MODEL@@A[ecx+80]
	mov	WORD PTR [edx+392], ax

; 319  : 	obj->body.CollSkin.NSpheres = LevelModel[obj->DefaultModel].CollSkin.NSpheres;

	mov	eax, DWORD PTR _obj$[ebp]
	mov	ecx, DWORD PTR [eax+656]
	imul	ecx, 168				; 000000a8H
	mov	edx, DWORD PTR _obj$[ebp]
	mov	ax, WORD PTR ?LevelModel@@3PAULEVEL_MODEL@@A[ecx+96]
	mov	WORD PTR [edx+408], ax

; 320  : 	obj->body.CollSkin.Convex = LevelModel[obj->DefaultModel].CollSkin.Convex;

	mov	eax, DWORD PTR _obj$[ebp]
	mov	ecx, DWORD PTR [eax+656]
	imul	ecx, 168				; 000000a8H
	mov	edx, DWORD PTR _obj$[ebp]
	mov	eax, DWORD PTR ?LevelModel@@3PAULEVEL_MODEL@@A[ecx+68]
	mov	DWORD PTR [edx+380], eax

; 321  : 	obj->body.CollSkin.Sphere = LevelModel[obj->DefaultModel].CollSkin.Sphere;

	mov	eax, DWORD PTR _obj$[ebp]
	mov	ecx, DWORD PTR [eax+656]
	imul	ecx, 168				; 000000a8H
	mov	edx, DWORD PTR _obj$[ebp]
	mov	eax, DWORD PTR ?LevelModel@@3PAULEVEL_MODEL@@A[ecx+84]
	mov	DWORD PTR [edx+396], eax

; 322  : 	CopyBBox(&LevelModel[obj->DefaultModel].CollSkin.TightBBox, &obj->body.CollSkin.TightBBox);

	mov	eax, DWORD PTR _obj$[ebp]
	mov	ecx, DWORD PTR [eax+656]
	imul	ecx, 168				; 000000a8H
	mov	edx, DWORD PTR _obj$[ebp]
	mov	eax, DWORD PTR ?LevelModel@@3PAULEVEL_MODEL@@A[ecx+108]
	mov	DWORD PTR [edx+420], eax
	mov	eax, DWORD PTR _obj$[ebp]
	mov	ecx, DWORD PTR [eax+656]
	imul	ecx, 168				; 000000a8H
	mov	edx, DWORD PTR _obj$[ebp]
	mov	eax, DWORD PTR ?LevelModel@@3PAULEVEL_MODEL@@A[ecx+112]
	mov	DWORD PTR [edx+424], eax
	mov	eax, DWORD PTR _obj$[ebp]
	mov	ecx, DWORD PTR [eax+656]
	imul	ecx, 168				; 000000a8H
	mov	edx, DWORD PTR _obj$[ebp]
	mov	eax, DWORD PTR ?LevelModel@@3PAULEVEL_MODEL@@A[ecx+116]
	mov	DWORD PTR [edx+428], eax
	mov	eax, DWORD PTR _obj$[ebp]
	mov	ecx, DWORD PTR [eax+656]
	imul	ecx, 168				; 000000a8H
	mov	edx, DWORD PTR _obj$[ebp]
	mov	eax, DWORD PTR ?LevelModel@@3PAULEVEL_MODEL@@A[ecx+120]
	mov	DWORD PTR [edx+432], eax
	mov	eax, DWORD PTR _obj$[ebp]
	mov	ecx, DWORD PTR [eax+656]
	imul	ecx, 168				; 000000a8H
	mov	edx, DWORD PTR _obj$[ebp]
	mov	eax, DWORD PTR ?LevelModel@@3PAULEVEL_MODEL@@A[ecx+124]
	mov	DWORD PTR [edx+436], eax
	mov	eax, DWORD PTR _obj$[ebp]
	mov	ecx, DWORD PTR [eax+656]
	imul	ecx, 168				; 000000a8H
	mov	edx, DWORD PTR _obj$[ebp]
	mov	eax, DWORD PTR ?LevelModel@@3PAULEVEL_MODEL@@A[ecx+128]
	mov	DWORD PTR [edx+440], eax

; 323  : 	CreateCopyCollSkin(&obj->body.CollSkin);

	mov	eax, DWORD PTR _obj$[ebp]
	add	eax, 380				; 0000017cH
	push	eax
	call	?CreateCopyCollSkin@@YA_NPAUCollSkinStruct@@@Z ; CreateCopyCollSkin
	add	esp, 4

; 324  : 	BuildWorldSkin(&obj->body.CollSkin, &obj->body.Centre.Pos, &obj->body.Centre.WMatrix);

	mov	eax, DWORD PTR _obj$[ebp]
	add	eax, 100				; 00000064H
	push	eax
	mov	ecx, DWORD PTR _obj$[ebp]
	add	ecx, 20					; 00000014H
	push	ecx
	mov	edx, DWORD PTR _obj$[ebp]
	add	edx, 380				; 0000017cH
	push	edx
	call	?BuildWorldSkin@@YAXPAUCollSkinStruct@@PAUVectorStruct@@PATMatrixUnion@@@Z ; BuildWorldSkin
	add	esp, 12					; 0000000cH

; 325  : 
; 326  : 	// vel and matrix
; 327  : 	if (firework->Target != NULL) {

	mov	eax, DWORD PTR _firework$[ebp]
	cmp	DWORD PTR [eax], 0
	je	$L83103

; 328  : 		VecMinusVec(&firework->Target->body.Centre.Pos, &obj->body.Centre.Pos, &dR);

	mov	eax, DWORD PTR _firework$[ebp]
	mov	ecx, DWORD PTR [eax]
	mov	edx, DWORD PTR _obj$[ebp]
	fld	DWORD PTR [ecx+20]
	fsub	DWORD PTR [edx+20]
	fstp	DWORD PTR _dR$[ebp]
	mov	eax, DWORD PTR _firework$[ebp]
	mov	ecx, DWORD PTR [eax]
	mov	edx, DWORD PTR _obj$[ebp]
	fld	DWORD PTR [ecx+24]
	fsub	DWORD PTR [edx+24]
	fstp	DWORD PTR _dR$[ebp+4]
	mov	eax, DWORD PTR _firework$[ebp]
	mov	ecx, DWORD PTR [eax]
	mov	edx, DWORD PTR _obj$[ebp]
	fld	DWORD PTR [ecx+28]
	fsub	DWORD PTR [edx+28]
	fstp	DWORD PTR _dR$[ebp+8]

; 329  : 		dRLen = VecLen(&dR) / 2;

	fld	DWORD PTR _dR$[ebp]
	fmul	DWORD PTR _dR$[ebp]
	fld	DWORD PTR _dR$[ebp+4]
	fmul	DWORD PTR _dR$[ebp+4]
	faddp	ST(1), ST(0)
	fld	DWORD PTR _dR$[ebp+8]
	fmul	DWORD PTR _dR$[ebp+8]
	faddp	ST(1), ST(0)
	push	ecx
	fstp	DWORD PTR [esp]
	call	?sqrt@@YAMM@Z				; sqrt
	add	esp, 4
	fdiv	DWORD PTR __real@40000000
	fstp	DWORD PTR _dRLen$[ebp]

; 330  : 		speedMod = (dRLen - WEAPON_RANGE_MIN) / (WEAPON_RANGE_MAX - WEAPON_RANGE_MIN);

	fld	DWORD PTR _dRLen$[ebp]
	fsub	DWORD PTR __real@42c80000
	fdiv	DWORD PTR __real@45548000
	fstp	DWORD PTR _speedMod$[ebp]

; 331  : 		speedMod = (speedMod * speedMod * speedMod * speedMod) / 8;

	fld	DWORD PTR _speedMod$[ebp]
	fmul	DWORD PTR _speedMod$[ebp]
	fmul	DWORD PTR _speedMod$[ebp]
	fmul	DWORD PTR _speedMod$[ebp]
	fdiv	DWORD PTR __real@41000000
	fstp	DWORD PTR _speedMod$[ebp]

; 332  : 	} else {

	jmp	SHORT $L83108
$L83103:

; 333  : 		dRLen = WEAPON_RANGE_MAX / 3;

	mov	DWORD PTR _dRLen$[ebp], 1150408021	; 4491d555H

; 334  : 		speedMod = ONE / 4;

	mov	DWORD PTR _speedMod$[ebp], 1048576000	; 3e800000H
$L83108:

; 335  : 	}
; 336  : 	VecEqScalarVec(&dir, dRLen / WEAPON_RANGE_MAX, &playerMat->mv[U]);

	fld	DWORD PTR _dRLen$[ebp]
	fdiv	DWORD PTR __real@455ac000
	mov	eax, DWORD PTR _playerMat$[ebp]
	fmul	DWORD PTR [eax+12]
	fstp	DWORD PTR _dir$[ebp]
	fld	DWORD PTR _dRLen$[ebp]
	fdiv	DWORD PTR __real@455ac000
	mov	eax, DWORD PTR _playerMat$[ebp]
	fmul	DWORD PTR [eax+16]
	fstp	DWORD PTR _dir$[ebp+4]
	fld	DWORD PTR _dRLen$[ebp]
	fdiv	DWORD PTR __real@455ac000
	mov	eax, DWORD PTR _playerMat$[ebp]
	fmul	DWORD PTR [eax+20]
	fstp	DWORD PTR _dir$[ebp+8]

; 337  : 	VecPlusEqScalarVec(&dir, dRLen / WEAPON_RANGE_MAX - ONE, &playerMat->mv[L]);

	fld	DWORD PTR _dRLen$[ebp]
	fdiv	DWORD PTR __real@455ac000
	fsub	DWORD PTR __real@3f800000
	mov	eax, DWORD PTR _playerMat$[ebp]
	fmul	DWORD PTR [eax+24]
	fadd	DWORD PTR _dir$[ebp]
	fstp	DWORD PTR _dir$[ebp]
	fld	DWORD PTR _dRLen$[ebp]
	fdiv	DWORD PTR __real@455ac000
	fsub	DWORD PTR __real@3f800000
	mov	eax, DWORD PTR _playerMat$[ebp]
	fmul	DWORD PTR [eax+28]
	fadd	DWORD PTR _dir$[ebp+4]
	fstp	DWORD PTR _dir$[ebp+4]
	fld	DWORD PTR _dRLen$[ebp]
	fdiv	DWORD PTR __real@455ac000
	fsub	DWORD PTR __real@3f800000
	mov	eax, DWORD PTR _playerMat$[ebp]
	fmul	DWORD PTR [eax+32]
	fadd	DWORD PTR _dir$[ebp+8]
	fstp	DWORD PTR _dir$[ebp+8]

; 338  : 	NormalizeVec(&dir);

	fld	DWORD PTR _dir$[ebp]
	fmul	DWORD PTR _dir$[ebp]
	fld	DWORD PTR _dir$[ebp+4]
	fmul	DWORD PTR _dir$[ebp+4]
	faddp	ST(1), ST(0)
	fld	DWORD PTR _dir$[ebp+8]
	fmul	DWORD PTR _dir$[ebp+8]
	faddp	ST(1), ST(0)
	push	ecx
	fstp	DWORD PTR [esp]
	call	?sqrt@@YAMM@Z				; sqrt
	add	esp, 4
	fdivr	DWORD PTR __real@3f800000
	fstp	DWORD PTR __mul$83116[ebp]
	fld	DWORD PTR _dir$[ebp]
	fmul	DWORD PTR __mul$83116[ebp]
	fstp	DWORD PTR _dir$[ebp]
	fld	DWORD PTR _dir$[ebp+4]
	fmul	DWORD PTR __mul$83116[ebp]
	fstp	DWORD PTR _dir$[ebp+4]
	fld	DWORD PTR _dir$[ebp+8]
	fmul	DWORD PTR __mul$83116[ebp]
	fstp	DWORD PTR _dir$[ebp+8]

; 339  : 	CopyVec(&dir, &obj->body.Centre.WMatrix.mv[U]);

	mov	eax, DWORD PTR _obj$[ebp]
	mov	ecx, DWORD PTR _dir$[ebp]
	mov	DWORD PTR [eax+112], ecx
	mov	eax, DWORD PTR _obj$[ebp]
	mov	ecx, DWORD PTR _dir$[ebp+4]
	mov	DWORD PTR [eax+116], ecx
	mov	eax, DWORD PTR _obj$[ebp]
	mov	ecx, DWORD PTR _dir$[ebp+8]
	mov	DWORD PTR [eax+120], ecx

; 340  : 	BuildMatrixFromUp(&obj->body.Centre.WMatrix);

	mov	eax, DWORD PTR _obj$[ebp]
	add	eax, 100				; 00000064H
	push	eax
	call	?BuildMatrixFromUp@@YAXPATMatrixUnion@@@Z ; BuildMatrixFromUp
	add	esp, 4

; 341  : 	SetBodyPos(&obj->body, &obj->body.Centre.Pos, &obj->body.Centre.WMatrix);

	mov	eax, DWORD PTR _obj$[ebp]
	add	eax, 100				; 00000064H
	push	eax
	mov	ecx, DWORD PTR _obj$[ebp]
	add	ecx, 20					; 00000014H
	push	ecx
	mov	edx, DWORD PTR _obj$[ebp]
	push	edx
	call	?SetBodyPos@@YAXPAUNewBodyStruct@@PAUVectorStruct@@PATMatrixUnion@@@Z ; SetBodyPos
	add	esp, 12					; 0000000cH

; 342  : 	VecPlusScalarVec(&obj->player->car.Body->Centre.Vel, 1500 * speedMod, &dir, &obj->body.Centre.Vel);

	mov	eax, DWORD PTR _obj$[ebp]
	mov	ecx, DWORD PTR [eax+588]
	mov	edx, DWORD PTR [ecx+900]
	fld	DWORD PTR __real@44bb8000
	fmul	DWORD PTR _speedMod$[ebp]
	fmul	DWORD PTR _dir$[ebp]
	fadd	DWORD PTR [edx+32]
	mov	eax, DWORD PTR _obj$[ebp]
	fstp	DWORD PTR [eax+32]
	mov	eax, DWORD PTR _obj$[ebp]
	mov	ecx, DWORD PTR [eax+588]
	mov	edx, DWORD PTR [ecx+900]
	fld	DWORD PTR __real@44bb8000
	fmul	DWORD PTR _speedMod$[ebp]
	fmul	DWORD PTR _dir$[ebp+4]
	fadd	DWORD PTR [edx+36]
	mov	eax, DWORD PTR _obj$[ebp]
	fstp	DWORD PTR [eax+36]
	mov	eax, DWORD PTR _obj$[ebp]
	mov	ecx, DWORD PTR [eax+588]
	mov	edx, DWORD PTR [ecx+900]
	fld	DWORD PTR __real@44bb8000
	fmul	DWORD PTR _speedMod$[ebp]
	fmul	DWORD PTR _dir$[ebp+8]
	fadd	DWORD PTR [edx+40]
	mov	eax, DWORD PTR _obj$[ebp]
	fstp	DWORD PTR [eax+40]

; 343  : 
; 344  : 	// setup sfx
; 345  : 	obj->Sfx3D = CreateSfx3D(SFX_FIREWORK, SFX_MAX_VOL, 22050, TRUE, &obj->body.Centre.Pos);

	mov	eax, DWORD PTR _obj$[ebp]
	add	eax, 20					; 00000014H
	push	eax
	push	1
	push	22050					; 00005622H
	push	127					; 0000007fH
	push	9
	call	?CreateSfx3D@@YAPAUSAMPLE_3D@@JJJJPAUVectorStruct@@@Z ; CreateSfx3D
	add	esp, 20					; 00000014H
	mov	ecx, DWORD PTR _obj$[ebp]
	mov	DWORD PTR [ecx+680], eax

; 346  : 
; 347  : 	// Set up the trail
; 348  : 	firework->Trail = GetFreeTrail(TRAIL_SMOKE);

	push	2
	call	?GetFreeTrail@@YAPAUSparkTrailStruct@@J@Z ; GetFreeTrail
	add	esp, 4
	mov	ecx, DWORD PTR _firework$[ebp]
	mov	DWORD PTR [ecx+20], eax

; 349  : 	if (firework->Trail != NULL) {

	mov	eax, DWORD PTR _firework$[ebp]
	cmp	DWORD PTR [eax+20], 0
	je	SHORT $L83118

; 350  : 		CopyVec(&obj->body.Centre.Pos, &firework->Trail->Pos[0]);

	mov	eax, DWORD PTR _firework$[ebp]
	mov	ecx, DWORD PTR [eax+20]
	mov	edx, DWORD PTR _obj$[ebp]
	mov	eax, DWORD PTR [edx+20]
	mov	DWORD PTR [ecx+4], eax
	mov	eax, DWORD PTR _firework$[ebp]
	mov	ecx, DWORD PTR [eax+20]
	mov	edx, DWORD PTR _obj$[ebp]
	mov	eax, DWORD PTR [edx+24]
	mov	DWORD PTR [ecx+8], eax
	mov	eax, DWORD PTR _firework$[ebp]
	mov	ecx, DWORD PTR [eax+20]
	mov	edx, DWORD PTR _obj$[ebp]
	mov	eax, DWORD PTR [edx+28]
	mov	DWORD PTR [ecx+12], eax

; 351  : 		firework->TrailTime = ZERO;

	mov	eax, DWORD PTR _firework$[ebp]
	mov	DWORD PTR [eax+24], 0
$L83118:

; 352  : 	}
; 353  : 
; 354  : 	// return OK
; 355  : 	return TRUE;

	mov	eax, 1
$L83075:

; 356  : }

	pop	edi
	pop	esi
	pop	ebx
	mov	esp, ebp
	pop	ebp
	ret	0
?InitFirework@@YAJPAUobject_def@@PAJ@Z ENDP		; InitFirework
_TEXT	ENDS
PUBLIC	_sqrtf
; Function compile flags: /Odt /ZI
; File c:\program files\microsoft visual studio .net 2003\vc7\include\math.h
;	COMDAT ?sqrt@@YAMM@Z
_TEXT	SEGMENT
__X$ = 8						; size = 4
?sqrt@@YAMM@Z PROC NEAR					; sqrt, COMDAT

; 579  :         {return (sqrtf(_X)); }

	push	ebp
	mov	ebp, esp
	sub	esp, 64					; 00000040H
	push	ebx
	push	esi
	push	edi
	mov	eax, DWORD PTR __X$[ebp]
	push	eax
	call	_sqrtf
	add	esp, 4
	pop	edi
	pop	esi
	pop	ebx
	mov	esp, ebp
	pop	ebp
	ret	0
?sqrt@@YAMM@Z ENDP					; sqrt
_TEXT	ENDS
EXTRN	_sqrt:NEAR
; Function compile flags: /Odt /ZI
;	COMDAT _sqrtf
_TEXT	SEGMENT
tv70 = -68						; size = 4
__X$ = 8						; size = 4
_sqrtf	PROC NEAR					; COMDAT

; 470  :         {return ((float)sqrt((double)_X)); }

	push	ebp
	mov	ebp, esp
	sub	esp, 68					; 00000044H
	push	ebx
	push	esi
	push	edi
	fld	DWORD PTR __X$[ebp]
	sub	esp, 8
	fstp	QWORD PTR [esp]
	call	_sqrt
	add	esp, 8
	fst	DWORD PTR tv70[ebp]
	pop	edi
	pop	esi
	pop	ebx
	mov	esp, ebp
	pop	ebp
	ret	0
_sqrtf	ENDP
_TEXT	ENDS
PUBLIC	?__LINE__Var@?1??InitPuttyBomb@@YAJPAUobject_def@@PAJ@Z@4JA ; `InitPuttyBomb'::`2'::__LINE__Var
PUBLIC	__real@46fffe00
PUBLIC	__real@40c90fdb
PUBLIC	__real@40a00000
PUBLIC	?InitPuttyBomb@@YAJPAUobject_def@@PAJ@Z		; InitPuttyBomb
PUBLIC	?PuttyBombHandler@@YAXPAUobject_def@@@Z		; PuttyBombHandler
PUBLIC	?PuttyBombMove@@YAXPAUobject_def@@@Z		; PuttyBombMove
EXTRN	_rand:NEAR
;	COMDAT ?__LINE__Var@?1??InitPuttyBomb@@YAJPAUobject_def@@PAJ@Z@4JA
; File c:\documents and settings\jarhead\desktop\shit to display my love for xbox revolt and fuck you borman-ness\revolt source\source\weapon.cpp
_DATA	SEGMENT
?__LINE__Var@?1??InitPuttyBomb@@YAJPAUobject_def@@PAJ@Z@4JA DD 016bH ; `InitPuttyBomb'::`2'::__LINE__Var
_DATA	ENDS
;	COMDAT __real@46fffe00
CONST	SEGMENT
__real@46fffe00 DD 046fffe00r			; 32767
CONST	ENDS
;	COMDAT __real@40c90fdb
CONST	SEGMENT
__real@40c90fdb DD 040c90fdbr			; 6.28319
CONST	ENDS
;	COMDAT __real@40a00000
CONST	SEGMENT
__real@40a00000 DD 040a00000r			; 5
; Function compile flags: /Odt /ZI
CONST	ENDS
;	COMDAT ?InitPuttyBomb@@YAJPAUobject_def@@PAJ@Z
_TEXT	SEGMENT
tv336 = -84						; size = 4
tv332 = -84						; size = 4
_i$ = -16						; size = 4
_model$ = -12						; size = 4
_vert$ = -8						; size = 4
_bomb$ = -4						; size = 4
_obj$ = 8						; size = 4
_flags$ = 12						; size = 4
?InitPuttyBomb@@YAJPAUobject_def@@PAJ@Z PROC NEAR	; InitPuttyBomb, COMDAT

; 363  : {

	push	ebp
	mov	ebp, esp
	sub	esp, 84					; 00000054H
	push	ebx
	push	esi
	push	edi

; 364  : 	PUTTYBOMB_OBJ *bomb;
; 365  : 	PUTTYBOMB_VERT *vert;
; 366  : 	MODEL *model;
; 367  : 	long i;
; 368  : 
; 369  : // set render flags
; 370  : 
; 371  : 	obj->renderflag.envmap = FALSE;

	mov	eax, DWORD PTR _obj$[ebp]
	mov	ecx, DWORD PTR [eax+584]
	and	ecx, -2					; fffffffeH
	mov	edx, DWORD PTR _obj$[ebp]
	mov	DWORD PTR [edx+584], ecx

; 372  : 	obj->renderflag.light = FALSE;

	mov	eax, DWORD PTR _obj$[ebp]
	mov	ecx, DWORD PTR [eax+584]
	and	ecx, -5					; fffffffbH
	mov	edx, DWORD PTR _obj$[ebp]
	mov	DWORD PTR [edx+584], ecx

; 373  : 	obj->renderflag.reflect = FALSE;

	mov	eax, DWORD PTR _obj$[ebp]
	mov	ecx, DWORD PTR [eax+584]
	and	ecx, -17				; ffffffefH
	mov	edx, DWORD PTR _obj$[ebp]
	mov	DWORD PTR [edx+584], ecx

; 374  : 	obj->renderflag.meshfx = FALSE;

	mov	eax, DWORD PTR _obj$[ebp]
	mov	ecx, DWORD PTR [eax+584]
	and	ecx, -257				; fffffeffH
	mov	edx, DWORD PTR _obj$[ebp]
	mov	DWORD PTR [edx+584], ecx

; 375  : 
; 376  : // setup handlers
; 377  : 
; 378  : 	obj->aihandler = (AI_HANDLER)PuttyBombHandler;

	mov	eax, DWORD PTR _obj$[ebp]
	mov	DWORD PTR [eax+696], OFFSET FLAT:?PuttyBombHandler@@YAXPAUobject_def@@@Z ; PuttyBombHandler

; 379  : 	obj->movehandler = (MOVE_HANDLER)PuttyBombMove;

	mov	eax, DWORD PTR _obj$[ebp]
	mov	DWORD PTR [eax+688], OFFSET FLAT:?PuttyBombMove@@YAXPAUobject_def@@@Z ; PuttyBombMove

; 380  : 	obj->renderhandler = NULL;

	mov	eax, DWORD PTR _obj$[ebp]
	mov	DWORD PTR [eax+700], 0

; 381  : 
; 382  : // load bang model
; 383  : 
; 384  : 	obj->DefaultModel = LoadOneLevelModel(LEVEL_MODEL_BOMBBALL, FALSE, obj->renderflag, 0);

	push	0
	mov	eax, DWORD PTR _obj$[ebp]
	mov	ecx, DWORD PTR [eax+584]
	push	ecx
	push	0
	push	40					; 00000028H
	call	?LoadOneLevelModel@@YAJJJUrenderflags@@J@Z ; LoadOneLevelModel
	add	esp, 16					; 00000010H
	mov	edx, DWORD PTR _obj$[ebp]
	mov	DWORD PTR [edx+656], eax

; 385  : 	if (obj->DefaultModel == -1)

	mov	eax, DWORD PTR _obj$[ebp]
	cmp	DWORD PTR [eax+656], -1
	jne	SHORT $L83129

; 386  : 		return FALSE;

	xor	eax, eax
	jmp	$L83122
$L83129:

; 387  : 
; 388  : // remember owner player
; 389  : 
; 390  : 	obj->player = (PLAYER*)flags[0];

	mov	eax, DWORD PTR _obj$[ebp]
	mov	ecx, DWORD PTR _flags$[ebp]
	mov	edx, DWORD PTR [ecx]
	mov	DWORD PTR [eax+588], edx

; 391  : 
; 392  : // alloc + setup bomb
; 393  : 
; 394  : 	obj->Data = malloc(sizeof(PUTTYBOMB_OBJ) + sizeof (PUTTYBOMB_VERT) * LevelModel[obj->DefaultModel].Model.VertNum);

	push	OFFSET FLAT:??_C@_0IL@GBHCIHE@c?3?2documents?5and?5settings?2jarhea@
	mov	eax, DWORD PTR ?__LINE__Var@?1??InitPuttyBomb@@YAJPAUobject_def@@PAJ@Z@4JA
	add	eax, 31					; 0000001fH
	push	eax
	mov	ecx, DWORD PTR _obj$[ebp]
	mov	edx, DWORD PTR [ecx+656]
	imul	edx, 168				; 000000a8H
	movsx	eax, WORD PTR ?LevelModel@@3PAULEVEL_MODEL@@A[edx+42]
	lea	ecx, DWORD PTR [eax*8+2388]
	push	ecx
	call	?DebugMalloc@@YAPAXIHPAD@Z		; DebugMalloc
	add	esp, 12					; 0000000cH
	mov	edx, DWORD PTR _obj$[ebp]
	mov	DWORD PTR [edx+684], eax

; 395  : 	if (!obj->Data) return FALSE;

	mov	eax, DWORD PTR _obj$[ebp]
	cmp	DWORD PTR [eax+684], 0
	jne	SHORT $L83134
	xor	eax, eax
	jmp	$L83122
$L83134:

; 396  : 	bomb = (PUTTYBOMB_OBJ*)obj->Data;

	mov	eax, DWORD PTR _obj$[ebp]
	mov	ecx, DWORD PTR [eax+684]
	mov	DWORD PTR _bomb$[ebp], ecx

; 397  : 
; 398  : 	bomb->Timer = PUTTYBOMB_COUNTDOWN;

	mov	eax, DWORD PTR _bomb$[ebp]
	mov	DWORD PTR [eax], 1092616192		; 41200000H

; 399  : 	obj->player->car.IsBomb = TRUE;

	mov	eax, DWORD PTR _obj$[ebp]
	mov	ecx, DWORD PTR [eax+588]
	mov	DWORD PTR [ecx+3568], 1

; 400  : 	obj->player->car.WillDetonate = FALSE;

	mov	eax, DWORD PTR _obj$[ebp]
	mov	ecx, DWORD PTR [eax+588]
	mov	DWORD PTR [ecx+3572], 0

; 401  : 	obj->player->car.NoReturnTimer = PUTTYBOMB_NORETURN_TIME;

	mov	eax, DWORD PTR _obj$[ebp]
	mov	ecx, DWORD PTR [eax+588]
	mov	DWORD PTR [ecx+3576], 1065353216	; 3f800000H

; 402  : 	bomb->OrigAerialLen = obj->player->car.Aerial.Length;

	mov	eax, DWORD PTR _obj$[ebp]
	mov	ecx, DWORD PTR [eax+588]
	mov	edx, DWORD PTR _bomb$[ebp]
	mov	eax, DWORD PTR [ecx+916]
	mov	DWORD PTR [edx+8], eax

; 403  : 
; 404  : // init bang model + verts
; 405  : 
; 406  : 	model = &LevelModel[obj->DefaultModel].Model;

	mov	eax, DWORD PTR _obj$[ebp]
	mov	ecx, DWORD PTR [eax+656]
	imul	ecx, 168				; 000000a8H
	add	ecx, OFFSET FLAT:?LevelModel@@3PAULEVEL_MODEL@@A+8
	mov	DWORD PTR _model$[ebp], ecx

; 407  : 
; 408  : 	if (model->QuadNumRGB)

	mov	eax, DWORD PTR _model$[ebp]
	movsx	ecx, WORD PTR [eax+40]
	test	ecx, ecx
	je	$L83136

; 409  : 	{
; 410  : 		model->QuadNumTex = model->QuadNumRGB;

	mov	eax, DWORD PTR _model$[ebp]
	mov	ecx, DWORD PTR _model$[ebp]
	mov	dx, WORD PTR [ecx+40]
	mov	WORD PTR [eax+36], dx

; 411  : 		model->TriNumTex = model->TriNumRGB;

	mov	eax, DWORD PTR _model$[ebp]
	mov	ecx, DWORD PTR _model$[ebp]
	mov	dx, WORD PTR [ecx+42]
	mov	WORD PTR [eax+38], dx

; 412  : 		model->QuadNumRGB = 0;

	mov	eax, DWORD PTR _model$[ebp]
	mov	WORD PTR [eax+40], 0

; 413  : 		model->TriNumRGB = 0;

	mov	eax, DWORD PTR _model$[ebp]
	mov	WORD PTR [eax+42], 0

; 414  : 
; 415  : 		for (i = 0 ; i < model->PolyNum ; i++)

	mov	DWORD PTR _i$[ebp], 0
	jmp	SHORT $L83137
$L83138:
	mov	eax, DWORD PTR _i$[ebp]
	add	eax, 1
	mov	DWORD PTR _i$[ebp], eax
$L83137:
	mov	eax, DWORD PTR _model$[ebp]
	movsx	ecx, WORD PTR [eax+32]
	cmp	DWORD PTR _i$[ebp], ecx
	jge	$L83136

; 416  : 		{
; 417  : 			model->PolyPtr[i].Tpage = TPAGE_FX3;

	mov	eax, DWORD PTR _i$[ebp]
	imul	eax, 52					; 00000034H
	mov	ecx, DWORD PTR _model$[ebp]
	mov	edx, DWORD PTR [ecx+48]
	mov	WORD PTR [edx+eax+2], 29		; 0000001dH

; 418  : 			model->PolyPtr[i].Type |= POLY_DOUBLE | POLY_SEMITRANS | POLY_SEMITRANS_ONE;

	mov	eax, DWORD PTR _i$[ebp]
	imul	eax, 52					; 00000034H
	mov	ecx, DWORD PTR _model$[ebp]
	mov	edx, DWORD PTR [ecx+48]
	movsx	eax, WORD PTR [edx+eax]
	or	eax, 262				; 00000106H
	mov	ecx, DWORD PTR _i$[ebp]
	imul	ecx, 52					; 00000034H
	mov	edx, DWORD PTR _model$[ebp]
	mov	edx, DWORD PTR [edx+48]
	mov	WORD PTR [ecx+edx], ax

; 419  : 
; 420  : 			*(long*)&model->PolyRGB[i].rgb[0] = 0xffffff;

	mov	eax, DWORD PTR _i$[ebp]
	shl	eax, 4
	mov	ecx, DWORD PTR _model$[ebp]
	mov	edx, DWORD PTR [ecx+44]
	mov	DWORD PTR [eax+edx], 16777215		; 00ffffffH

; 421  : 			*(long*)&model->PolyRGB[i].rgb[1] = 0xffffff;

	mov	eax, DWORD PTR _i$[ebp]
	shl	eax, 4
	mov	ecx, DWORD PTR _model$[ebp]
	mov	edx, DWORD PTR [ecx+44]
	mov	DWORD PTR [edx+eax+4], 16777215		; 00ffffffH

; 422  : 			*(long*)&model->PolyRGB[i].rgb[2] = 0xffffff;

	mov	eax, DWORD PTR _i$[ebp]
	shl	eax, 4
	mov	ecx, DWORD PTR _model$[ebp]
	mov	edx, DWORD PTR [ecx+44]
	mov	DWORD PTR [edx+eax+8], 16777215		; 00ffffffH

; 423  : 			*(long*)&model->PolyRGB[i].rgb[3] = 0xffffff;

	mov	eax, DWORD PTR _i$[ebp]
	shl	eax, 4
	mov	ecx, DWORD PTR _model$[ebp]
	mov	edx, DWORD PTR [ecx+44]
	mov	DWORD PTR [edx+eax+12], 16777215	; 00ffffffH

; 424  : 		}

	jmp	$L83138
$L83136:

; 425  : 	}
; 426  : 
; 427  : 	vert = (PUTTYBOMB_VERT*)(bomb + 1);

	mov	eax, DWORD PTR _bomb$[ebp]
	add	eax, 2388				; 00000954H
	mov	DWORD PTR _vert$[ebp], eax

; 428  : 	for (i = 0 ; i < LevelModel[obj->DefaultModel].Model.VertNum ; i++)

	mov	DWORD PTR _i$[ebp], 0
	jmp	SHORT $L83145
$L83146:
	mov	eax, DWORD PTR _i$[ebp]
	add	eax, 1
	mov	DWORD PTR _i$[ebp], eax
$L83145:
	mov	eax, DWORD PTR _obj$[ebp]
	mov	ecx, DWORD PTR [eax+656]
	imul	ecx, 168				; 000000a8H
	movsx	edx, WORD PTR ?LevelModel@@3PAULEVEL_MODEL@@A[ecx+42]
	cmp	DWORD PTR _i$[ebp], edx
	jge	SHORT $L83147

; 429  : 	{
; 430  : 		vert[i].Time = frand(RAD);

	call	_rand
	mov	DWORD PTR tv332[ebp], eax
	fild	DWORD PTR tv332[ebp]
	fdiv	DWORD PTR __real@46fffe00
	fmul	DWORD PTR __real@40c90fdb
	mov	eax, DWORD PTR _i$[ebp]
	mov	ecx, DWORD PTR _vert$[ebp]
	fstp	DWORD PTR [ecx+eax*8]

; 431  : 		vert[i].TimeAdd = frand(5.0f) + 5.0f;

	call	_rand
	mov	DWORD PTR tv336[ebp], eax
	fild	DWORD PTR tv336[ebp]
	fdiv	DWORD PTR __real@46fffe00
	fmul	DWORD PTR __real@40a00000
	fadd	DWORD PTR __real@40a00000
	mov	eax, DWORD PTR _i$[ebp]
	mov	ecx, DWORD PTR _vert$[ebp]
	fstp	DWORD PTR [ecx+eax*8+4]

; 432  : 		if (rand() & 1) vert[i].TimeAdd = -vert[i].TimeAdd;

	call	_rand
	and	eax, 1
	je	SHORT $L83150
	mov	eax, DWORD PTR _i$[ebp]
	mov	ecx, DWORD PTR _vert$[ebp]
	fld	DWORD PTR [ecx+eax*8+4]
	fchs
	mov	edx, DWORD PTR _i$[ebp]
	mov	eax, DWORD PTR _vert$[ebp]
	fstp	DWORD PTR [eax+edx*8+4]
$L83150:

; 433  : 	}

	jmp	$L83146
$L83147:

; 434  : 
; 435  : // init sfx
; 436  : 
; 437  : 	obj->Sfx3D = CreateSfx3D(SFX_FUSE, SFX_MAX_VOL, 22050, TRUE, &obj->player->car.Body->Centre.Pos);

	mov	eax, DWORD PTR _obj$[ebp]
	mov	ecx, DWORD PTR [eax+588]
	mov	edx, DWORD PTR [ecx+900]
	add	edx, 20					; 00000014H
	push	edx
	push	1
	push	22050					; 00005622H
	push	127					; 0000007fH
	push	16					; 00000010H
	call	?CreateSfx3D@@YAPAUSAMPLE_3D@@JJJJPAUVectorStruct@@@Z ; CreateSfx3D
	add	esp, 20					; 00000014H
	mov	ecx, DWORD PTR _obj$[ebp]
	mov	DWORD PTR [ecx+680], eax

; 438  : 
; 439  : // return OK
; 440  : 
; 441  : 	return TRUE;

	mov	eax, 1
$L83122:

; 442  : }

	pop	edi
	pop	esi
	pop	ebx
	mov	esp, ebp
	pop	ebp
	ret	0
?InitPuttyBomb@@YAJPAUobject_def@@PAJ@Z ENDP		; InitPuttyBomb
_TEXT	ENDS
PUBLIC	?__LINE__Var@?1??InitWaterBomb@@YAJPAUobject_def@@PAJ@Z@4JA ; `InitWaterBomb'::`2'::__LINE__Var
PUBLIC	__real@44fa0000
PUBLIC	__real@43fa0000
PUBLIC	__real@c1700000
PUBLIC	?InitWaterBomb@@YAJPAUobject_def@@PAJ@Z		; InitWaterBomb
PUBLIC	?WaterBombHandler@@YAXPAUobject_def@@@Z		; WaterBombHandler
PUBLIC	?RenderWaterBomb@@YAXPAUobject_def@@@Z		; RenderWaterBomb
EXTRN	?RotVector@@YAXPATMatrixUnion@@PAUVectorStruct@@1@Z:NEAR ; RotVector
;	COMDAT __real@44fa0000
CONST	SEGMENT
__real@44fa0000 DD 044fa0000r			; 2000
CONST	ENDS
;	COMDAT __real@43fa0000
CONST	SEGMENT
__real@43fa0000 DD 043fa0000r			; 500
CONST	ENDS
;	COMDAT __real@c1700000
CONST	SEGMENT
__real@c1700000 DD 0c1700000r			; -15
CONST	ENDS
;	COMDAT ?__LINE__Var@?1??InitWaterBomb@@YAJPAUobject_def@@PAJ@Z@4JA
_DATA	SEGMENT
?__LINE__Var@?1??InitWaterBomb@@YAJPAUobject_def@@PAJ@Z@4JA DD 01c1H ; `InitWaterBomb'::`2'::__LINE__Var
; Function compile flags: /Odt /ZI
_DATA	ENDS
;	COMDAT ?InitWaterBomb@@YAJPAUobject_def@@PAJ@Z
_TEXT	SEGMENT
tv291 = -84						; size = 4
_vec$ = -16						; size = 12
_bomb$ = -4						; size = 4
_obj$ = 8						; size = 4
_flags$ = 12						; size = 4
?InitWaterBomb@@YAJPAUobject_def@@PAJ@Z PROC NEAR	; InitWaterBomb, COMDAT

; 449  : {

	push	ebp
	mov	ebp, esp
	sub	esp, 84					; 00000054H
	push	ebx
	push	esi
	push	edi

; 450  : 	WATERBOMB_OBJ *bomb = (WATERBOMB_OBJ*)obj->Data;

	mov	eax, DWORD PTR _obj$[ebp]
	mov	ecx, DWORD PTR [eax+684]
	mov	DWORD PTR _bomb$[ebp], ecx

; 451  : 	VEC vec;
; 452  : 
; 453  : // render flags
; 454  : 
; 455  : 	obj->renderflag.light = FALSE;

	mov	eax, DWORD PTR _obj$[ebp]
	mov	ecx, DWORD PTR [eax+584]
	and	ecx, -5					; fffffffbH
	mov	edx, DWORD PTR _obj$[ebp]
	mov	DWORD PTR [edx+584], ecx

; 456  : 
; 457  : // setup handlers
; 458  : 
; 459  : 	obj->aihandler = (AI_HANDLER)WaterBombHandler;

	mov	eax, DWORD PTR _obj$[ebp]
	mov	DWORD PTR [eax+696], OFFSET FLAT:?WaterBombHandler@@YAXPAUobject_def@@@Z ; WaterBombHandler

; 460  : 	obj->collhandler = (COLL_HANDLER)COL_BodyCollHandler;

	mov	eax, DWORD PTR _obj$[ebp]
	mov	DWORD PTR [eax+692], OFFSET FLAT:?COL_BodyCollHandler@@YAXPAUobject_def@@@Z ; COL_BodyCollHandler

; 461  : 	obj->movehandler = (MOVE_HANDLER)MOV_MoveBody;

	mov	eax, DWORD PTR _obj$[ebp]
	mov	DWORD PTR [eax+688], OFFSET FLAT:?MOV_MoveBody@@YAXPAUobject_def@@@Z ; MOV_MoveBody

; 462  : 	obj->renderhandler = (RENDER_HANDLER)RenderWaterBomb;

	mov	eax, DWORD PTR _obj$[ebp]
	mov	DWORD PTR [eax+700], OFFSET FLAT:?RenderWaterBomb@@YAXPAUobject_def@@@Z ; RenderWaterBomb

; 463  : 
; 464  : // load default model
; 465  : 
; 466  : 	obj->DefaultModel = LoadOneLevelModel(LEVEL_MODEL_WATERBOMB, FALSE, obj->renderflag, 0);

	push	0
	mov	eax, DWORD PTR _obj$[ebp]
	mov	ecx, DWORD PTR [eax+584]
	push	ecx
	push	0
	push	39					; 00000027H
	call	?LoadOneLevelModel@@YAJJJUrenderflags@@J@Z ; LoadOneLevelModel
	add	esp, 16					; 00000010H
	mov	edx, DWORD PTR _obj$[ebp]
	mov	DWORD PTR [edx+656], eax

; 467  : 	if (obj->DefaultModel == -1) return FALSE;

	mov	eax, DWORD PTR _obj$[ebp]
	cmp	DWORD PTR [eax+656], -1
	jne	SHORT $L83162
	xor	eax, eax
	jmp	$L83154
$L83162:

; 468  : 
; 469  : // remember owner player
; 470  : 
; 471  : 	obj->player = (PLAYER*)flags[0];

	mov	eax, DWORD PTR _obj$[ebp]
	mov	ecx, DWORD PTR _flags$[ebp]
	mov	edx, DWORD PTR [ecx]
	mov	DWORD PTR [eax+588], edx

; 472  : 
; 473  : // setup waterbomb
; 474  : 
; 475  : 	bomb->Age = 0.0f;

	mov	eax, DWORD PTR _bomb$[ebp]
	mov	DWORD PTR [eax], 0

; 476  : 	bomb->BangTol = frand(WATERBOMB_BANG_VAR) + WATERBOMB_BANG_MIN;

	call	_rand
	mov	DWORD PTR tv291[ebp], eax
	fild	DWORD PTR tv291[ebp]
	fdiv	DWORD PTR __real@46fffe00
	fmul	DWORD PTR __real@44fa0000
	fadd	DWORD PTR __real@43fa0000
	mov	eax, DWORD PTR _bomb$[ebp]
	fstp	DWORD PTR [eax+4]

; 477  : 
; 478  : // pos / vel
; 479  : 
; 480  : 	RotTransVector(&obj->body.Centre.WMatrix, &obj->body.Centre.Pos, &obj->player->car.WeaponOffset, &obj->body.Centre.Pos);

	mov	eax, DWORD PTR _obj$[ebp]
	add	eax, 20					; 00000014H
	push	eax
	mov	ecx, DWORD PTR _obj$[ebp]
	mov	edx, DWORD PTR [ecx+588]
	add	edx, 3444				; 00000d74H
	push	edx
	mov	eax, DWORD PTR _obj$[ebp]
	add	eax, 20					; 00000014H
	push	eax
	mov	ecx, DWORD PTR _obj$[ebp]
	add	ecx, 100				; 00000064H
	push	ecx
	call	?RotTransVector@@YAXPATMatrixUnion@@PAUVectorStruct@@11@Z ; RotTransVector
	add	esp, 16					; 00000010H

; 481  : 	RotVector(&obj->body.Centre.WMatrix, &WaterBombVel, &vec);

	lea	eax, DWORD PTR _vec$[ebp]
	push	eax
	push	OFFSET FLAT:_WaterBombVel
	mov	ecx, DWORD PTR _obj$[ebp]
	add	ecx, 100				; 00000064H
	push	ecx
	call	?RotVector@@YAXPATMatrixUnion@@PAUVectorStruct@@1@Z ; RotVector
	add	esp, 12					; 0000000cH

; 482  : //	AddVector(&obj->player->car.Body->Centre.Vel, &vec, &obj->body.Centre.Vel);
; 483  : 	SetVector(&obj->body.Centre.Vel, vec.v[X] + obj->player->car.Body->Centre.Vel.v[X], vec.v[Y], vec.v[Z] + obj->player->car.Body->Centre.Vel.v[Z]);

	mov	eax, DWORD PTR _obj$[ebp]
	mov	ecx, DWORD PTR [eax+588]
	mov	edx, DWORD PTR [ecx+900]
	fld	DWORD PTR _vec$[ebp]
	fadd	DWORD PTR [edx+32]
	mov	eax, DWORD PTR _obj$[ebp]
	fstp	DWORD PTR [eax+32]
	mov	eax, DWORD PTR _obj$[ebp]
	mov	ecx, DWORD PTR _vec$[ebp+4]
	mov	DWORD PTR [eax+36], ecx
	mov	eax, DWORD PTR _obj$[ebp]
	mov	ecx, DWORD PTR [eax+588]
	mov	edx, DWORD PTR [ecx+900]
	fld	DWORD PTR _vec$[ebp+8]
	fadd	DWORD PTR [edx+40]
	mov	eax, DWORD PTR _obj$[ebp]
	fstp	DWORD PTR [eax+40]

; 484  : 
; 485  : 	VecEqScalarVec(&obj->body.AngVel, -15.0f, &obj->body.Centre.WMatrix.mv[R]);

	mov	eax, DWORD PTR _obj$[ebp]
	fld	DWORD PTR __real@c1700000
	fmul	DWORD PTR [eax+100]
	mov	ecx, DWORD PTR _obj$[ebp]
	fstp	DWORD PTR [ecx+332]
	mov	eax, DWORD PTR _obj$[ebp]
	fld	DWORD PTR __real@c1700000
	fmul	DWORD PTR [eax+104]
	mov	ecx, DWORD PTR _obj$[ebp]
	fstp	DWORD PTR [ecx+336]
	mov	eax, DWORD PTR _obj$[ebp]
	fld	DWORD PTR __real@c1700000
	fmul	DWORD PTR [eax+108]
	mov	ecx, DWORD PTR _obj$[ebp]
	fstp	DWORD PTR [ecx+340]

; 486  : 
; 487  : // setup sfx
; 488  : 
; 489  : 	obj->Sfx3D = CreateSfx3D(SFX_WATERBOMB, SFX_MAX_VOL, 22050, TRUE, &obj->body.Centre.Pos);

	mov	eax, DWORD PTR _obj$[ebp]
	add	eax, 20					; 00000014H
	push	eax
	push	1
	push	22050					; 00005622H
	push	127					; 0000007fH
	push	13					; 0000000dH
	call	?CreateSfx3D@@YAPAUSAMPLE_3D@@JJJJPAUVectorStruct@@@Z ; CreateSfx3D
	add	esp, 20					; 00000014H
	mov	ecx, DWORD PTR _obj$[ebp]
	mov	DWORD PTR [ecx+680], eax

; 490  : 
; 491  : // Physical properties
; 492  : 
; 493  : 	obj->body.Centre.Mass = Real(0.6f);

	mov	eax, DWORD PTR _obj$[ebp]
	mov	DWORD PTR [eax], 1058642330		; 3f19999aH

; 494  : 	obj->body.Centre.InvMass = ONE / Real(0.6f);

	mov	eax, DWORD PTR _obj$[ebp]
	mov	DWORD PTR [eax+4], 1070945621		; 3fd55555H

; 495  : 	SetMat(&obj->body.BodyInertia, Real(100), ZERO, ZERO, ZERO, Real(100), ZERO, ZERO, ZERO, Real(100));

	push	1120403456				; 42c80000H
	push	0
	push	0
	push	0
	push	1120403456				; 42c80000H
	push	0
	push	0
	push	0
	push	1120403456				; 42c80000H
	mov	eax, DWORD PTR _obj$[ebp]
	add	eax, 224				; 000000e0H
	push	eax
	call	?SetMat@@YAXPATMatrixUnion@@MMMMMMMMM@Z	; SetMat
	add	esp, 40					; 00000028H

; 496  : 	SetMat(&obj->body.BodyInvInertia, ONE / Real(100), ZERO, ZERO, ZERO, ONE / Real(100), ZERO, ZERO, ZERO, ONE / Real(100));

	push	1008981770				; 3c23d70aH
	push	0
	push	0
	push	0
	push	1008981770				; 3c23d70aH
	push	0
	push	0
	push	0
	push	1008981770				; 3c23d70aH
	mov	eax, DWORD PTR _obj$[ebp]
	add	eax, 260				; 00000104H
	push	eax
	call	?SetMat@@YAXPATMatrixUnion@@MMMMMMMMM@Z	; SetMat
	add	esp, 40					; 00000028H

; 497  : 
; 498  : 	obj->body.Centre.Hardness = Real(0.2);

	mov	eax, DWORD PTR _obj$[ebp]
	mov	DWORD PTR [eax+172], 1045220557		; 3e4ccccdH

; 499  : 	obj->body.Centre.Resistance = Real(0.001);

	mov	eax, DWORD PTR _obj$[ebp]
	mov	DWORD PTR [eax+176], 981668463		; 3a83126fH

; 500  : 	obj->body.DefaultAngRes = Real(0.005);

	mov	eax, DWORD PTR _obj$[ebp]
	mov	DWORD PTR [eax+368], 1000593162		; 3ba3d70aH

; 501  : 	obj->body.AngResistance = Real(0.005);

	mov	eax, DWORD PTR _obj$[ebp]
	mov	DWORD PTR [eax+376], 1000593162		; 3ba3d70aH

; 502  : 	obj->body.AngResMod = Real(1.0);

	mov	eax, DWORD PTR _obj$[ebp]
	mov	DWORD PTR [eax+372], 1065353216		; 3f800000H

; 503  : 	obj->body.Centre.Grip = Real(0.02);

	mov	eax, DWORD PTR _obj$[ebp]
	mov	DWORD PTR [eax+180], 1017370378		; 3ca3d70aH

; 504  : 	obj->body.Centre.StaticFriction = Real(2.0);

	mov	eax, DWORD PTR _obj$[ebp]
	mov	DWORD PTR [eax+184], 1073741824		; 40000000H

; 505  : 	obj->body.Centre.KineticFriction = Real(1.5);

	mov	eax, DWORD PTR _obj$[ebp]
	mov	DWORD PTR [eax+188], 1069547520		; 3fc00000H

; 506  : 
; 507  : // Collision skin
; 508  : 
; 509  : 	obj->CollType = COLL_TYPE_BODY;

	mov	eax, DWORD PTR _obj$[ebp]
	mov	DWORD PTR [eax+660], 1

; 510  : 	SetBodySphere(&obj->body);

	mov	eax, DWORD PTR _obj$[ebp]
	mov	DWORD PTR [eax+472], 1

; 511  : 	obj->body.CollSkin.Sphere = (SPHERE *)malloc(sizeof(SPHERE));

	push	OFFSET FLAT:??_C@_0IL@GBHCIHE@c?3?2documents?5and?5settings?2jarhea@
	mov	eax, DWORD PTR ?__LINE__Var@?1??InitWaterBomb@@YAJPAUobject_def@@PAJ@Z@4JA
	add	eax, 62					; 0000003eH
	push	eax
	push	16					; 00000010H
	call	?DebugMalloc@@YAPAXIHPAD@Z		; DebugMalloc
	add	esp, 12					; 0000000cH
	mov	ecx, DWORD PTR _obj$[ebp]
	mov	DWORD PTR [ecx+396], eax

; 512  : 	CopyVec(&WaterBombOff, &obj->body.CollSkin.Sphere[0].Pos);

	mov	eax, DWORD PTR _obj$[ebp]
	mov	ecx, DWORD PTR [eax+396]
	mov	edx, DWORD PTR _WaterBombOff
	mov	DWORD PTR [ecx], edx
	mov	eax, DWORD PTR _obj$[ebp]
	mov	ecx, DWORD PTR [eax+396]
	mov	edx, DWORD PTR _WaterBombOff+4
	mov	DWORD PTR [ecx+4], edx
	mov	eax, DWORD PTR _obj$[ebp]
	mov	ecx, DWORD PTR [eax+396]
	mov	edx, DWORD PTR _WaterBombOff+8
	mov	DWORD PTR [ecx+8], edx

; 513  : 	obj->body.CollSkin.Sphere[0].Radius = WATERBOMB_RADIUS;

	mov	eax, DWORD PTR _obj$[ebp]
	mov	ecx, DWORD PTR [eax+396]
	mov	DWORD PTR [ecx+12], 1106247680		; 41f00000H

; 514  : 	obj->body.CollSkin.NSpheres = 1;

	mov	eax, DWORD PTR _obj$[ebp]
	mov	WORD PTR [eax+408], 1

; 515  : 	CreateCopyCollSkin(&obj->body.CollSkin);

	mov	eax, DWORD PTR _obj$[ebp]
	add	eax, 380				; 0000017cH
	push	eax
	call	?CreateCopyCollSkin@@YA_NPAUCollSkinStruct@@@Z ; CreateCopyCollSkin
	add	esp, 4

; 516  : 	MakeTightLocalBBox(&obj->body.CollSkin);

	mov	eax, DWORD PTR _obj$[ebp]
	add	eax, 380				; 0000017cH
	push	eax
	call	?MakeTightLocalBBox@@YAXPAUCollSkinStruct@@@Z ; MakeTightLocalBBox
	add	esp, 4

; 517  : 	BuildWorldSkin(&obj->body.CollSkin, &obj->body.Centre.Pos, &obj->body.Centre.WMatrix);

	mov	eax, DWORD PTR _obj$[ebp]
	add	eax, 100				; 00000064H
	push	eax
	mov	ecx, DWORD PTR _obj$[ebp]
	add	ecx, 20					; 00000014H
	push	ecx
	mov	edx, DWORD PTR _obj$[ebp]
	add	edx, 380				; 0000017cH
	push	edx
	call	?BuildWorldSkin@@YAXPAUCollSkinStruct@@PAUVectorStruct@@PATMatrixUnion@@@Z ; BuildWorldSkin
	add	esp, 12					; 0000000cH

; 518  : 
; 519  : // return OK
; 520  : 
; 521  : 	return TRUE;

	mov	eax, 1
$L83154:

; 522  : }

	pop	edi
	pop	esi
	pop	ebx
	mov	esp, ebp
	pop	ebp
	ret	0
?InitWaterBomb@@YAJPAUobject_def@@PAJ@Z ENDP		; InitWaterBomb
_TEXT	ENDS
PUBLIC	?__LINE__Var@?1??InitElectroPulse@@YAJPAUobject_def@@PAJ@Z@4JA ; `InitElectroPulse'::`2'::__LINE__Var
PUBLIC	?InitElectroPulse@@YAJPAUobject_def@@PAJ@Z	; InitElectroPulse
PUBLIC	?ElectroPulseHandler@@YAXPAUobject_def@@@Z	; ElectroPulseHandler
PUBLIC	?RenderElectroPulse@@YAXPAUobject_def@@@Z	; RenderElectroPulse
EXTRN	_memcpy:NEAR
;	COMDAT ?__LINE__Var@?1??InitElectroPulse@@YAJPAUobject_def@@PAJ@Z@4JA
_DATA	SEGMENT
?__LINE__Var@?1??InitElectroPulse@@YAJPAUobject_def@@PAJ@Z@4JA DD 0211H ; `InitElectroPulse'::`2'::__LINE__Var
; Function compile flags: /Odt /ZI
_DATA	ENDS
;	COMDAT ?InitElectroPulse@@YAJPAUobject_def@@PAJ@Z
_TEXT	SEGMENT
tv550 = -100						; size = 4
tv546 = -100						; size = 4
_evert$ = -32						; size = 4
_dmodel$ = -28						; size = 4
_smodel$ = -24						; size = 4
_electro$ = -20						; size = 4
_mul$ = -16						; size = 4
_off$ = -12						; size = 4
_ram$ = -8						; size = 4
_i$ = -4						; size = 4
_obj$ = 8						; size = 4
_flags$ = 12						; size = 4
?InitElectroPulse@@YAJPAUobject_def@@PAJ@Z PROC NEAR	; InitElectroPulse, COMDAT

; 529  : {

	push	ebp
	mov	ebp, esp
	sub	esp, 100				; 00000064H
	push	ebx
	push	esi
	push	edi

; 530  : 	long i, ram, off;
; 531  : 	REAL mul;
; 532  : 	ELECTROPULSE_OBJ *electro;
; 533  : 	MODEL *smodel, *dmodel;
; 534  : 	ELECTROPULSE_VERT *evert;
; 535  : 
; 536  : // set render flags
; 537  : 
; 538  : 	obj->renderflag.envmap = FALSE;

	mov	eax, DWORD PTR _obj$[ebp]
	mov	ecx, DWORD PTR [eax+584]
	and	ecx, -2					; fffffffeH
	mov	edx, DWORD PTR _obj$[ebp]
	mov	DWORD PTR [edx+584], ecx

; 539  : 	obj->renderflag.light = FALSE;

	mov	eax, DWORD PTR _obj$[ebp]
	mov	ecx, DWORD PTR [eax+584]
	and	ecx, -5					; fffffffbH
	mov	edx, DWORD PTR _obj$[ebp]
	mov	DWORD PTR [edx+584], ecx

; 540  : 	obj->renderflag.reflect = FALSE;

	mov	eax, DWORD PTR _obj$[ebp]
	mov	ecx, DWORD PTR [eax+584]
	and	ecx, -17				; ffffffefH
	mov	edx, DWORD PTR _obj$[ebp]
	mov	DWORD PTR [edx+584], ecx

; 541  : 	obj->renderflag.meshfx = FALSE;

	mov	eax, DWORD PTR _obj$[ebp]
	mov	ecx, DWORD PTR [eax+584]
	and	ecx, -257				; fffffeffH
	mov	edx, DWORD PTR _obj$[ebp]
	mov	DWORD PTR [edx+584], ecx

; 542  : 
; 543  : // setup handlers
; 544  : 
; 545  : 	obj->aihandler = (AI_HANDLER)ElectroPulseHandler;

	mov	eax, DWORD PTR _obj$[ebp]
	mov	DWORD PTR [eax+696], OFFSET FLAT:?ElectroPulseHandler@@YAXPAUobject_def@@@Z ; ElectroPulseHandler

; 546  : 	obj->renderhandler = (RENDER_HANDLER)RenderElectroPulse;

	mov	eax, DWORD PTR _obj$[ebp]
	mov	DWORD PTR [eax+700], OFFSET FLAT:?RenderElectroPulse@@YAXPAUobject_def@@@Z ; RenderElectroPulse

; 547  : 
; 548  : // remember owner player
; 549  : 
; 550  : 	obj->player = (PLAYER*)flags[0];

	mov	eax, DWORD PTR _obj$[ebp]
	mov	ecx, DWORD PTR _flags$[ebp]
	mov	edx, DWORD PTR [ecx]
	mov	DWORD PTR [eax+588], edx

; 551  : 
; 552  : // calc + alloc ram
; 553  : 
; 554  : 	smodel = &obj->player->car.Models->Body[0];

	mov	eax, DWORD PTR _obj$[ebp]
	mov	ecx, DWORD PTR [eax+588]
	mov	edx, DWORD PTR [ecx+864]
	mov	eax, DWORD PTR [edx+6064]
	mov	DWORD PTR _smodel$[ebp], eax

; 555  : 
; 556  : 	ram = sizeof(ELECTROPULSE_OBJ);

	mov	DWORD PTR _ram$[ebp], 404		; 00000194H

; 557  : 	ram += sizeof(MODEL_POLY) * smodel->PolyNum;

	mov	eax, DWORD PTR _smodel$[ebp]
	movsx	ecx, WORD PTR [eax+32]
	imul	ecx, 52					; 00000034H
	add	ecx, DWORD PTR _ram$[ebp]
	mov	DWORD PTR _ram$[ebp], ecx

; 558  : 	ram += sizeof(POLY_RGB) * smodel->PolyNum;

	mov	eax, DWORD PTR _smodel$[ebp]
	movsx	ecx, WORD PTR [eax+32]
	shl	ecx, 4
	add	ecx, DWORD PTR _ram$[ebp]
	mov	DWORD PTR _ram$[ebp], ecx

; 559  : 	ram += sizeof(MODEL_VERTEX) * smodel->VertNum;

	mov	eax, DWORD PTR _smodel$[ebp]
	movsx	ecx, WORD PTR [eax+34]
	imul	ecx, 88					; 00000058H
	add	ecx, DWORD PTR _ram$[ebp]
	mov	DWORD PTR _ram$[ebp], ecx

; 560  : 	ram += sizeof(ELECTROPULSE_VERT) * smodel->VertNum;

	mov	eax, DWORD PTR _smodel$[ebp]
	movsx	ecx, WORD PTR [eax+34]
	mov	edx, DWORD PTR _ram$[ebp]
	lea	eax, DWORD PTR [edx+ecx*8]
	mov	DWORD PTR _ram$[ebp], eax

; 561  : 
; 562  : 	obj->Data = malloc(ram);

	push	OFFSET FLAT:??_C@_0IL@GBHCIHE@c?3?2documents?5and?5settings?2jarhea@
	mov	eax, DWORD PTR ?__LINE__Var@?1??InitElectroPulse@@YAJPAUobject_def@@PAJ@Z@4JA
	add	eax, 33					; 00000021H
	push	eax
	mov	ecx, DWORD PTR _ram$[ebp]
	push	ecx
	call	?DebugMalloc@@YAPAXIHPAD@Z		; DebugMalloc
	add	esp, 12					; 0000000cH
	mov	edx, DWORD PTR _obj$[ebp]
	mov	DWORD PTR [edx+684], eax

; 563  : 	if (!obj->Data)

	mov	eax, DWORD PTR _obj$[ebp]
	cmp	DWORD PTR [eax+684], 0
	jne	SHORT $L83205

; 564  : 		return FALSE;

	xor	eax, eax
	jmp	$L83187
$L83205:

; 565  : 
; 566  : // setup electro pulse
; 567  : 
; 568  : 	electro = (ELECTROPULSE_OBJ*)obj->Data;

	mov	eax, DWORD PTR _obj$[ebp]
	mov	ecx, DWORD PTR [eax+684]
	mov	DWORD PTR _electro$[ebp], ecx

; 569  : 	electro->Age = 0.0f;

	mov	eax, DWORD PTR _electro$[ebp]
	mov	DWORD PTR [eax], 0

; 570  : 	electro->JumpFlag = 0;

	mov	eax, DWORD PTR _electro$[ebp]
	mov	DWORD PTR [eax+64], 0

; 571  : 
; 572  : // setup model
; 573  : 
; 574  : 	dmodel = &electro->Model;

	mov	eax, DWORD PTR _electro$[ebp]
	add	eax, 4
	mov	DWORD PTR _dmodel$[ebp], eax

; 575  : 
; 576  : 	memcpy(dmodel, smodel, sizeof(MODEL));

	push	60					; 0000003cH
	mov	eax, DWORD PTR _smodel$[ebp]
	push	eax
	mov	ecx, DWORD PTR _dmodel$[ebp]
	push	ecx
	call	_memcpy
	add	esp, 12					; 0000000cH

; 577  : 	dmodel->PolyPtr = (MODEL_POLY*)(electro + 1);

	mov	eax, DWORD PTR _electro$[ebp]
	add	eax, 404				; 00000194H
	mov	ecx, DWORD PTR _dmodel$[ebp]
	mov	DWORD PTR [ecx+48], eax

; 578  : 	dmodel->PolyRGB = (POLY_RGB*)(dmodel->PolyPtr + dmodel->PolyNum);

	mov	eax, DWORD PTR _dmodel$[ebp]
	movsx	ecx, WORD PTR [eax+32]
	imul	ecx, 52					; 00000034H
	mov	edx, DWORD PTR _dmodel$[ebp]
	add	ecx, DWORD PTR [edx+48]
	mov	eax, DWORD PTR _dmodel$[ebp]
	mov	DWORD PTR [eax+44], ecx

; 579  : 	dmodel->VertPtr = (MODEL_VERTEX*)(dmodel->PolyRGB + dmodel->PolyNum);

	mov	eax, DWORD PTR _dmodel$[ebp]
	movsx	ecx, WORD PTR [eax+32]
	shl	ecx, 4
	mov	edx, DWORD PTR _dmodel$[ebp]
	add	ecx, DWORD PTR [edx+44]
	mov	eax, DWORD PTR _dmodel$[ebp]
	mov	DWORD PTR [eax+52], ecx

; 580  : 
; 581  : 	off = (long)dmodel->VertPtr - (long)smodel->VertPtr;

	mov	eax, DWORD PTR _dmodel$[ebp]
	mov	ecx, DWORD PTR _smodel$[ebp]
	mov	edx, DWORD PTR [eax+52]
	sub	edx, DWORD PTR [ecx+52]
	mov	DWORD PTR _off$[ebp], edx

; 582  : 
; 583  : 	for (i = 0 ; i < dmodel->PolyNum ; i++)

	mov	DWORD PTR _i$[ebp], 0
	jmp	SHORT $L83213
$L83214:
	mov	eax, DWORD PTR _i$[ebp]
	add	eax, 1
	mov	DWORD PTR _i$[ebp], eax
$L83213:
	mov	eax, DWORD PTR _dmodel$[ebp]
	movsx	ecx, WORD PTR [eax+32]
	cmp	DWORD PTR _i$[ebp], ecx
	jge	$L83215

; 584  : 	{
; 585  : 		dmodel->PolyPtr[i] = smodel->PolyPtr[i];

	mov	eax, DWORD PTR _i$[ebp]
	imul	eax, 52					; 00000034H
	mov	ecx, DWORD PTR _smodel$[ebp]
	mov	esi, DWORD PTR [ecx+48]
	add	esi, eax
	mov	edx, DWORD PTR _i$[ebp]
	imul	edx, 52					; 00000034H
	mov	eax, DWORD PTR _dmodel$[ebp]
	mov	edi, DWORD PTR [eax+48]
	add	edi, edx
	mov	ecx, 13					; 0000000dH
	rep movsd

; 586  : 
; 587  : 		dmodel->PolyPtr[i].Type |= POLY_SEMITRANS | POLY_SEMITRANS_ONE;

	mov	eax, DWORD PTR _i$[ebp]
	imul	eax, 52					; 00000034H
	mov	ecx, DWORD PTR _dmodel$[ebp]
	mov	edx, DWORD PTR [ecx+48]
	movsx	eax, WORD PTR [edx+eax]
	or	eax, 260				; 00000104H
	mov	ecx, DWORD PTR _i$[ebp]
	imul	ecx, 52					; 00000034H
	mov	edx, DWORD PTR _dmodel$[ebp]
	mov	edx, DWORD PTR [edx+48]
	mov	WORD PTR [ecx+edx], ax

; 588  : 		dmodel->PolyPtr[i].Tpage = TPAGE_FX1;

	mov	eax, DWORD PTR _i$[ebp]
	imul	eax, 52					; 00000034H
	mov	ecx, DWORD PTR _dmodel$[ebp]
	mov	edx, DWORD PTR [ecx+48]
	mov	WORD PTR [edx+eax+2], 27		; 0000001bH

; 589  : 
; 590  : 		dmodel->PolyPtr[i].v0 = (MODEL_VERTEX*)((long)dmodel->PolyPtr[i].v0 + off);

	mov	eax, DWORD PTR _i$[ebp]
	imul	eax, 52					; 00000034H
	mov	ecx, DWORD PTR _dmodel$[ebp]
	mov	edx, DWORD PTR [ecx+48]
	mov	eax, DWORD PTR [edx+eax+36]
	add	eax, DWORD PTR _off$[ebp]
	mov	ecx, DWORD PTR _i$[ebp]
	imul	ecx, 52					; 00000034H
	mov	edx, DWORD PTR _dmodel$[ebp]
	mov	edx, DWORD PTR [edx+48]
	mov	DWORD PTR [edx+ecx+36], eax

; 591  : 		dmodel->PolyPtr[i].v1 = (MODEL_VERTEX*)((long)dmodel->PolyPtr[i].v1 + off);

	mov	eax, DWORD PTR _i$[ebp]
	imul	eax, 52					; 00000034H
	mov	ecx, DWORD PTR _dmodel$[ebp]
	mov	edx, DWORD PTR [ecx+48]
	mov	eax, DWORD PTR [edx+eax+40]
	add	eax, DWORD PTR _off$[ebp]
	mov	ecx, DWORD PTR _i$[ebp]
	imul	ecx, 52					; 00000034H
	mov	edx, DWORD PTR _dmodel$[ebp]
	mov	edx, DWORD PTR [edx+48]
	mov	DWORD PTR [edx+ecx+40], eax

; 592  : 		dmodel->PolyPtr[i].v2 = (MODEL_VERTEX*)((long)dmodel->PolyPtr[i].v2 + off);

	mov	eax, DWORD PTR _i$[ebp]
	imul	eax, 52					; 00000034H
	mov	ecx, DWORD PTR _dmodel$[ebp]
	mov	edx, DWORD PTR [ecx+48]
	mov	eax, DWORD PTR [edx+eax+44]
	add	eax, DWORD PTR _off$[ebp]
	mov	ecx, DWORD PTR _i$[ebp]
	imul	ecx, 52					; 00000034H
	mov	edx, DWORD PTR _dmodel$[ebp]
	mov	edx, DWORD PTR [edx+48]
	mov	DWORD PTR [edx+ecx+44], eax

; 593  : 		dmodel->PolyPtr[i].v3 = (MODEL_VERTEX*)((long)dmodel->PolyPtr[i].v3 + off);

	mov	eax, DWORD PTR _i$[ebp]
	imul	eax, 52					; 00000034H
	mov	ecx, DWORD PTR _dmodel$[ebp]
	mov	edx, DWORD PTR [ecx+48]
	mov	eax, DWORD PTR [edx+eax+48]
	add	eax, DWORD PTR _off$[ebp]
	mov	ecx, DWORD PTR _i$[ebp]
	imul	ecx, 52					; 00000034H
	mov	edx, DWORD PTR _dmodel$[ebp]
	mov	edx, DWORD PTR [edx+48]
	mov	DWORD PTR [edx+ecx+48], eax

; 594  : 
; 595  : 		*(long*)&dmodel->PolyRGB[i].rgb[0] = 0;

	mov	eax, DWORD PTR _i$[ebp]
	shl	eax, 4
	mov	ecx, DWORD PTR _dmodel$[ebp]
	mov	edx, DWORD PTR [ecx+44]
	mov	DWORD PTR [eax+edx], 0

; 596  : 		*(long*)&dmodel->PolyRGB[i].rgb[1] = 0;

	mov	eax, DWORD PTR _i$[ebp]
	shl	eax, 4
	mov	ecx, DWORD PTR _dmodel$[ebp]
	mov	edx, DWORD PTR [ecx+44]
	mov	DWORD PTR [edx+eax+4], 0

; 597  : 		*(long*)&dmodel->PolyRGB[i].rgb[2] = 0;

	mov	eax, DWORD PTR _i$[ebp]
	shl	eax, 4
	mov	ecx, DWORD PTR _dmodel$[ebp]
	mov	edx, DWORD PTR [ecx+44]
	mov	DWORD PTR [edx+eax+8], 0

; 598  : 		*(long*)&dmodel->PolyRGB[i].rgb[3] = 0;

	mov	eax, DWORD PTR _i$[ebp]
	shl	eax, 4
	mov	ecx, DWORD PTR _dmodel$[ebp]
	mov	edx, DWORD PTR [ecx+44]
	mov	DWORD PTR [edx+eax+12], 0

; 599  : 	}

	jmp	$L83214
$L83215:

; 600  : 
; 601  : 	for (i = 0 ; i < dmodel->VertNum ; i++)

	mov	DWORD PTR _i$[ebp], 0
	jmp	SHORT $L83228
$L83229:
	mov	eax, DWORD PTR _i$[ebp]
	add	eax, 1
	mov	DWORD PTR _i$[ebp], eax
$L83228:
	mov	eax, DWORD PTR _dmodel$[ebp]
	movsx	ecx, WORD PTR [eax+34]
	cmp	DWORD PTR _i$[ebp], ecx
	jge	$L83230

; 602  : 	{
; 603  : 		dmodel->VertPtr[i] = smodel->VertPtr[i];

	mov	eax, DWORD PTR _i$[ebp]
	imul	eax, 88					; 00000058H
	mov	ecx, DWORD PTR _smodel$[ebp]
	mov	esi, DWORD PTR [ecx+52]
	add	esi, eax
	mov	edx, DWORD PTR _i$[ebp]
	imul	edx, 88					; 00000058H
	mov	eax, DWORD PTR _dmodel$[ebp]
	mov	edi, DWORD PTR [eax+52]
	add	edi, edx
	mov	ecx, 22					; 00000016H
	rep movsd

; 604  : 
; 605  : 		mul = 2.0f / Length((VEC*)&dmodel->VertPtr[i].x) + 1.0f;

	mov	eax, DWORD PTR _i$[ebp]
	imul	eax, 88					; 00000058H
	mov	ecx, DWORD PTR _dmodel$[ebp]
	mov	edx, DWORD PTR [ecx+52]
	mov	ecx, DWORD PTR _i$[ebp]
	imul	ecx, 88					; 00000058H
	mov	esi, DWORD PTR _dmodel$[ebp]
	mov	esi, DWORD PTR [esi+52]
	fld	DWORD PTR [edx+eax]
	fmul	DWORD PTR [esi+ecx]
	mov	edx, DWORD PTR _i$[ebp]
	imul	edx, 88					; 00000058H
	mov	eax, DWORD PTR _dmodel$[ebp]
	mov	ecx, DWORD PTR [eax+52]
	mov	eax, DWORD PTR _i$[ebp]
	imul	eax, 88					; 00000058H
	mov	esi, DWORD PTR _dmodel$[ebp]
	mov	esi, DWORD PTR [esi+52]
	fld	DWORD PTR [ecx+edx+4]
	fmul	DWORD PTR [esi+eax+4]
	faddp	ST(1), ST(0)
	mov	ecx, DWORD PTR _i$[ebp]
	imul	ecx, 88					; 00000058H
	mov	edx, DWORD PTR _dmodel$[ebp]
	mov	eax, DWORD PTR [edx+52]
	mov	edx, DWORD PTR _i$[ebp]
	imul	edx, 88					; 00000058H
	mov	esi, DWORD PTR _dmodel$[ebp]
	mov	esi, DWORD PTR [esi+52]
	fld	DWORD PTR [eax+ecx+8]
	fmul	DWORD PTR [esi+edx+8]
	faddp	ST(1), ST(0)
	push	ecx
	fstp	DWORD PTR [esp]
	call	?sqrt@@YAMM@Z				; sqrt
	add	esp, 4
	fdivr	DWORD PTR __real@40000000
	fadd	DWORD PTR __real@3f800000
	fstp	DWORD PTR _mul$[ebp]

; 606  : 		dmodel->VertPtr[i].x *= mul;

	mov	eax, DWORD PTR _i$[ebp]
	imul	eax, 88					; 00000058H
	mov	ecx, DWORD PTR _dmodel$[ebp]
	mov	edx, DWORD PTR [ecx+52]
	fld	DWORD PTR _mul$[ebp]
	fmul	DWORD PTR [edx+eax]
	mov	eax, DWORD PTR _i$[ebp]
	imul	eax, 88					; 00000058H
	mov	ecx, DWORD PTR _dmodel$[ebp]
	mov	edx, DWORD PTR [ecx+52]
	fstp	DWORD PTR [eax+edx]

; 607  : 		dmodel->VertPtr[i].y *= mul;

	mov	eax, DWORD PTR _i$[ebp]
	imul	eax, 88					; 00000058H
	mov	ecx, DWORD PTR _dmodel$[ebp]
	mov	edx, DWORD PTR [ecx+52]
	fld	DWORD PTR _mul$[ebp]
	fmul	DWORD PTR [edx+eax+4]
	mov	eax, DWORD PTR _i$[ebp]
	imul	eax, 88					; 00000058H
	mov	ecx, DWORD PTR _dmodel$[ebp]
	mov	edx, DWORD PTR [ecx+52]
	fstp	DWORD PTR [edx+eax+4]

; 608  : 		dmodel->VertPtr[i].z *= mul;

	mov	eax, DWORD PTR _i$[ebp]
	imul	eax, 88					; 00000058H
	mov	ecx, DWORD PTR _dmodel$[ebp]
	mov	edx, DWORD PTR [ecx+52]
	fld	DWORD PTR _mul$[ebp]
	fmul	DWORD PTR [edx+eax+8]
	mov	eax, DWORD PTR _i$[ebp]
	imul	eax, 88					; 00000058H
	mov	ecx, DWORD PTR _dmodel$[ebp]
	mov	edx, DWORD PTR [ecx+52]
	fstp	DWORD PTR [edx+eax+8]

; 609  : 	}

	jmp	$L83229
$L83230:

; 610  : 
; 611  : // setup electro verts
; 612  : 
; 613  : 	evert = (ELECTROPULSE_VERT*)(dmodel->VertPtr + dmodel->VertNum);

	mov	eax, DWORD PTR _dmodel$[ebp]
	movsx	ecx, WORD PTR [eax+34]
	imul	ecx, 88					; 00000058H
	mov	edx, DWORD PTR _dmodel$[ebp]
	add	ecx, DWORD PTR [edx+52]
	mov	DWORD PTR _evert$[ebp], ecx

; 614  : 	for (i = 0 ; i < dmodel->VertNum ; i++)

	mov	DWORD PTR _i$[ebp], 0
	jmp	SHORT $L83239
$L83240:
	mov	eax, DWORD PTR _i$[ebp]
	add	eax, 1
	mov	DWORD PTR _i$[ebp], eax
$L83239:
	mov	eax, DWORD PTR _dmodel$[ebp]
	movsx	ecx, WORD PTR [eax+34]
	cmp	DWORD PTR _i$[ebp], ecx
	jge	SHORT $L83241

; 615  : 	{
; 616  : 		evert[i].Time = frand(RAD);

	call	_rand
	mov	DWORD PTR tv546[ebp], eax
	fild	DWORD PTR tv546[ebp]
	fdiv	DWORD PTR __real@46fffe00
	fmul	DWORD PTR __real@40c90fdb
	mov	eax, DWORD PTR _i$[ebp]
	mov	ecx, DWORD PTR _evert$[ebp]
	fstp	DWORD PTR [ecx+eax*8]

; 617  : 		evert[i].TimeAdd = frand(5.0f) + 1.0f;

	call	_rand
	mov	DWORD PTR tv550[ebp], eax
	fild	DWORD PTR tv550[ebp]
	fdiv	DWORD PTR __real@46fffe00
	fmul	DWORD PTR __real@40a00000
	fadd	DWORD PTR __real@3f800000
	mov	eax, DWORD PTR _i$[ebp]
	mov	ecx, DWORD PTR _evert$[ebp]
	fstp	DWORD PTR [ecx+eax*8+4]

; 618  : 		if (rand() & 1) evert[i].TimeAdd = -evert[i].TimeAdd;

	call	_rand
	and	eax, 1
	je	SHORT $L83244
	mov	eax, DWORD PTR _i$[ebp]
	mov	ecx, DWORD PTR _evert$[ebp]
	fld	DWORD PTR [ecx+eax*8+4]
	fchs
	mov	edx, DWORD PTR _i$[ebp]
	mov	eax, DWORD PTR _evert$[ebp]
	fstp	DWORD PTR [eax+edx*8+4]
$L83244:

; 619  : 	}

	jmp	SHORT $L83240
$L83241:

; 620  : 
; 621  : // setup light
; 622  : 
; 623  : 	obj->Light = AllocLight();

	call	?AllocLight@@YAPAULIGHT@@XZ		; AllocLight
	mov	ecx, DWORD PTR _obj$[ebp]
	mov	DWORD PTR [ecx+672], eax

; 624  : 	if (obj->Light)

	mov	eax, DWORD PTR _obj$[ebp]
	cmp	DWORD PTR [eax+672], 0
	je	SHORT $L83245

; 625  : 	{
; 626  : 		obj->Light->Reach = 768;

	mov	eax, DWORD PTR _obj$[ebp]
	mov	ecx, DWORD PTR [eax+672]
	mov	DWORD PTR [ecx+12], 1145044992		; 44400000H

; 627  : 		obj->Light->Flag = LIGHT_FIXED | LIGHT_MOVING;

	mov	eax, DWORD PTR _obj$[ebp]
	mov	ecx, DWORD PTR [eax+672]
	mov	BYTE PTR [ecx+100], 3

; 628  : 		obj->Light->Type = LIGHT_OMNI;

	mov	eax, DWORD PTR _obj$[ebp]
	mov	ecx, DWORD PTR [eax+672]
	mov	BYTE PTR [ecx+101], 0

; 629  : 		obj->Light->r = 0;

	mov	eax, DWORD PTR _obj$[ebp]
	mov	ecx, DWORD PTR [eax+672]
	mov	DWORD PTR [ecx+88], 0

; 630  : 		obj->Light->g = 0;

	mov	eax, DWORD PTR _obj$[ebp]
	mov	ecx, DWORD PTR [eax+672]
	mov	DWORD PTR [ecx+92], 0

; 631  : 		obj->Light->b = 0;

	mov	eax, DWORD PTR _obj$[ebp]
	mov	ecx, DWORD PTR [eax+672]
	mov	DWORD PTR [ecx+96], 0
$L83245:

; 632  : 	}
; 633  : 
; 634  : // setup sfx
; 635  : 
; 636  : 	obj->Sfx3D = CreateSfx3D(SFX_ELECTROPULSE, SFX_MAX_VOL, 22050, TRUE, &obj->body.Centre.Pos);

	mov	eax, DWORD PTR _obj$[ebp]
	add	eax, 20					; 00000014H
	push	eax
	push	1
	push	22050					; 00005622H
	push	127					; 0000007fH
	push	8
	call	?CreateSfx3D@@YAPAUSAMPLE_3D@@JJJJPAUVectorStruct@@@Z ; CreateSfx3D
	add	esp, 20					; 00000014H
	mov	ecx, DWORD PTR _obj$[ebp]
	mov	DWORD PTR [ecx+680], eax

; 637  : 
; 638  : // return OK
; 639  : 
; 640  : 	return TRUE;

	mov	eax, 1
$L83187:

; 641  : }

	pop	edi
	pop	esi
	pop	ebx
	mov	esp, ebp
	pop	ebp
	ret	0
?InitElectroPulse@@YAJPAUobject_def@@PAJ@Z ENDP		; InitElectroPulse
_TEXT	ENDS
PUBLIC	__real@447a0000
PUBLIC	__real@00000000
PUBLIC	?InitOilSlick@@YAJPAUobject_def@@PAJ@Z		; InitOilSlick
PUBLIC	?OilSlickHandler@@YAXPAUobject_def@@@Z		; OilSlickHandler
PUBLIC	?RenderOilSlick@@YAXPAUobject_def@@@Z		; RenderOilSlick
EXTRN	?LineOfSightDist@@YA_NPAUVectorStruct@@0PAMPAPAUPlaneStruct@@@Z:NEAR ; LineOfSightDist
;	COMDAT __real@447a0000
CONST	SEGMENT
__real@447a0000 DD 0447a0000r			; 1000
CONST	ENDS
;	COMDAT __real@00000000
CONST	SEGMENT
__real@00000000 DD 000000000r			; 0
; Function compile flags: /Odt /ZI
CONST	ENDS
;	COMDAT ?InitOilSlick@@YAJPAUobject_def@@PAJ@Z
_TEXT	SEGMENT
_vec$ = -24						; size = 12
_time$ = -12						; size = 4
_car$ = -8						; size = 4
_oil$ = -4						; size = 4
_obj$ = 8						; size = 4
_flags$ = 12						; size = 4
?InitOilSlick@@YAJPAUobject_def@@PAJ@Z PROC NEAR	; InitOilSlick, COMDAT

; 649  : {

	push	ebp
	mov	ebp, esp
	sub	esp, 88					; 00000058H
	push	ebx
	push	esi
	push	edi

; 650  : 	OILSLICK_OBJ *oil = (OILSLICK_OBJ*)obj->Data;

	mov	eax, DWORD PTR _obj$[ebp]
	mov	ecx, DWORD PTR [eax+684]
	mov	DWORD PTR _oil$[ebp], ecx

; 651  : 	CAR *car;
; 652  : 	REAL time;
; 653  : 	VEC vec;
; 654  : 
; 655  : // setup handlers
; 656  : 
; 657  : 	obj->aihandler = (AI_HANDLER)OilSlickHandler;

	mov	eax, DWORD PTR _obj$[ebp]
	mov	DWORD PTR [eax+696], OFFSET FLAT:?OilSlickHandler@@YAXPAUobject_def@@@Z ; OilSlickHandler

; 658  : #ifdef _PC
; 659  : 	obj->renderhandler = (RENDER_HANDLER)RenderOilSlick;

	mov	eax, DWORD PTR _obj$[ebp]
	mov	DWORD PTR [eax+700], OFFSET FLAT:?RenderOilSlick@@YAXPAUobject_def@@@Z ; RenderOilSlick

; 660  : #endif
; 661  : #ifdef _N64
; 662  : 	obj->renderhandler = NULL;
; 663  : #endif
; 664  : 
; 665  : // remember owner player
; 666  : 
; 667  : 	obj->player = (PLAYER*)flags[0];

	mov	eax, DWORD PTR _obj$[ebp]
	mov	ecx, DWORD PTR _flags$[ebp]
	mov	edx, DWORD PTR [ecx]
	mov	DWORD PTR [eax+588], edx

; 668  : 
; 669  : // setup
; 670  : 
; 671  : 	car = &obj->player->car;

	mov	eax, DWORD PTR _obj$[ebp]
	mov	ecx, DWORD PTR [eax+588]
	add	ecx, 44					; 0000002cH
	mov	DWORD PTR _car$[ebp], ecx

; 672  : 
; 673  : 	oil->Mode = 0;

	mov	eax, DWORD PTR _oil$[ebp]
	mov	DWORD PTR [eax], 0

; 674  : 	oil->Age = 0.0f;

	mov	eax, DWORD PTR _oil$[ebp]
	mov	DWORD PTR [eax+4], 0

; 675  : 
; 676  : 	CopyVec(&car->Body->Centre.Pos, &obj->body.Centre.Pos);

	mov	eax, DWORD PTR _car$[ebp]
	mov	ecx, DWORD PTR [eax+856]
	mov	edx, DWORD PTR _obj$[ebp]
	mov	eax, DWORD PTR [ecx+20]
	mov	DWORD PTR [edx+20], eax
	mov	eax, DWORD PTR _car$[ebp]
	mov	ecx, DWORD PTR [eax+856]
	mov	edx, DWORD PTR _obj$[ebp]
	mov	eax, DWORD PTR [ecx+24]
	mov	DWORD PTR [edx+24], eax
	mov	eax, DWORD PTR _car$[ebp]
	mov	ecx, DWORD PTR [eax+856]
	mov	edx, DWORD PTR _obj$[ebp]
	mov	eax, DWORD PTR [ecx+28]
	mov	DWORD PTR [edx+28], eax

; 677  : 
; 678  : 	SetVector(&obj->body.Centre.Vel, 0, 0, 0);

	mov	eax, DWORD PTR _obj$[ebp]
	mov	DWORD PTR [eax+32], 0
	mov	eax, DWORD PTR _obj$[ebp]
	mov	DWORD PTR [eax+36], 0
	mov	eax, DWORD PTR _obj$[ebp]
	mov	DWORD PTR [eax+40], 0

; 679  : 
; 680  : 	SetVector(&vec, obj->body.Centre.Pos.v[X], obj->body.Centre.Pos.v[Y] + 1000.0f, obj->body.Centre.Pos.v[Z]);

	mov	eax, DWORD PTR _obj$[ebp]
	mov	ecx, DWORD PTR [eax+20]
	mov	DWORD PTR _vec$[ebp], ecx
	mov	eax, DWORD PTR _obj$[ebp]
	fld	DWORD PTR [eax+24]
	fadd	DWORD PTR __real@447a0000
	fstp	DWORD PTR _vec$[ebp+4]
	mov	eax, DWORD PTR _obj$[ebp]
	mov	ecx, DWORD PTR [eax+28]
	mov	DWORD PTR _vec$[ebp+8], ecx

; 681  : 	LineOfSightDist(&obj->body.Centre.Pos, &vec, &time, NULL);

	push	0
	lea	eax, DWORD PTR _time$[ebp]
	push	eax
	lea	ecx, DWORD PTR _vec$[ebp]
	push	ecx
	mov	edx, DWORD PTR _obj$[ebp]
	add	edx, 20					; 00000014H
	push	edx
	call	?LineOfSightDist@@YA_NPAUVectorStruct@@0PAMPAPAUPlaneStruct@@@Z ; LineOfSightDist
	add	esp, 16					; 00000010H

; 682  : 	if (time > 0.0f && time < 1.0f)

	fld	DWORD PTR _time$[ebp]
	fcomp	DWORD PTR __real@00000000
	fnstsw	ax
	test	ah, 65					; 00000041H
	jne	SHORT $L83258
	fld	DWORD PTR _time$[ebp]
	fcomp	DWORD PTR __real@3f800000
	fnstsw	ax
	test	ah, 5
	jp	SHORT $L83258

; 683  : 		oil->LandHeight = obj->body.Centre.Pos.v[Y] + time * 1000.0f;

	fld	DWORD PTR _time$[ebp]
	fmul	DWORD PTR __real@447a0000
	mov	eax, DWORD PTR _obj$[ebp]
	fadd	DWORD PTR [eax+24]
	mov	ecx, DWORD PTR _oil$[ebp]
	fstp	DWORD PTR [ecx+8]

; 684  : 	else

	jmp	SHORT $L83259
$L83258:

; 685  : 		oil->LandHeight = vec.v[Y];

	mov	eax, DWORD PTR _oil$[ebp]
	mov	ecx, DWORD PTR _vec$[ebp+4]
	mov	DWORD PTR [eax+8], ecx
$L83259:

; 686  : 
; 687  : 	oil->MaxSize = (REAL)flags[1];

	mov	eax, DWORD PTR _flags$[ebp]
	fild	DWORD PTR [eax+4]
	mov	ecx, DWORD PTR _oil$[ebp]
	fstp	DWORD PTR [ecx+16]

; 688  : 
; 689  : // return OK
; 690  : 
; 691  : 	return TRUE;

	mov	eax, 1

; 692  : }

	pop	edi
	pop	esi
	pop	ebx
	mov	esp, ebp
	pop	ebp
	ret	0
?InitOilSlick@@YAJPAUobject_def@@PAJ@Z ENDP		; InitOilSlick
_TEXT	ENDS
PUBLIC	?InitOilSlickDropper@@YAJPAUobject_def@@PAJ@Z	; InitOilSlickDropper
PUBLIC	?OilSlickDropperHandler@@YAXPAUobject_def@@@Z	; OilSlickDropperHandler
; Function compile flags: /Odt /ZI
;	COMDAT ?InitOilSlickDropper@@YAJPAUobject_def@@PAJ@Z
_TEXT	SEGMENT
_dropper$ = -4						; size = 4
_obj$ = 8						; size = 4
_flags$ = 12						; size = 4
?InitOilSlickDropper@@YAJPAUobject_def@@PAJ@Z PROC NEAR	; InitOilSlickDropper, COMDAT

; 699  : {

	push	ebp
	mov	ebp, esp
	sub	esp, 68					; 00000044H
	push	ebx
	push	esi
	push	edi

; 700  : 	OILSLICK_DROPPER_OBJ *dropper = (OILSLICK_DROPPER_OBJ*)obj->Data;

	mov	eax, DWORD PTR _obj$[ebp]
	mov	ecx, DWORD PTR [eax+684]
	mov	DWORD PTR _dropper$[ebp], ecx

; 701  : 
; 702  : // setup handlers
; 703  : 
; 704  : 	obj->aihandler = (AI_HANDLER)OilSlickDropperHandler;

	mov	eax, DWORD PTR _obj$[ebp]
	mov	DWORD PTR [eax+696], OFFSET FLAT:?OilSlickDropperHandler@@YAXPAUobject_def@@@Z ; OilSlickDropperHandler

; 705  : 
; 706  : // remember owner player
; 707  : 
; 708  : 	obj->player = (PLAYER*)flags[0];

	mov	eax, DWORD PTR _obj$[ebp]
	mov	ecx, DWORD PTR _flags$[ebp]
	mov	edx, DWORD PTR [ecx]
	mov	DWORD PTR [eax+588], edx

; 709  : 
; 710  : // setup
; 711  : 
; 712  : 	dropper->Count = 0;

	mov	eax, DWORD PTR _dropper$[ebp]
	mov	DWORD PTR [eax], 0

; 713  : 	dropper->Age = 0;

	mov	eax, DWORD PTR _dropper$[ebp]
	mov	DWORD PTR [eax+4], 0

; 714  : 
; 715  : 	CopyVec(&obj->body.Centre.Pos, &dropper->LastPos);

	mov	eax, DWORD PTR _dropper$[ebp]
	mov	ecx, DWORD PTR _obj$[ebp]
	mov	edx, DWORD PTR [ecx+20]
	mov	DWORD PTR [eax+8], edx
	mov	eax, DWORD PTR _dropper$[ebp]
	mov	ecx, DWORD PTR _obj$[ebp]
	mov	edx, DWORD PTR [ecx+24]
	mov	DWORD PTR [eax+12], edx
	mov	eax, DWORD PTR _dropper$[ebp]
	mov	ecx, DWORD PTR _obj$[ebp]
	mov	edx, DWORD PTR [ecx+28]
	mov	DWORD PTR [eax+16], edx

; 716  : 
; 717  : // return OK
; 718  : 
; 719  : 	return TRUE;

	mov	eax, 1

; 720  : }

	pop	edi
	pop	esi
	pop	ebx
	mov	esp, ebp
	pop	ebp
	ret	0
?InitOilSlickDropper@@YAJPAUobject_def@@PAJ@Z ENDP	; InitOilSlickDropper
_TEXT	ENDS
PUBLIC	?__LINE__Var@?1??InitChromeBall@@YAJPAUobject_def@@PAJ@Z@4JA ; `InitChromeBall'::`2'::__LINE__Var
PUBLIC	__real@c28c0000
PUBLIC	__real@c4000000
PUBLIC	?InitChromeBall@@YAJPAUobject_def@@PAJ@Z	; InitChromeBall
PUBLIC	?ChromeBallHandler@@YAXPAUobject_def@@@Z	; ChromeBallHandler
PUBLIC	?RenderChromeBall@@YAXPAUobject_def@@@Z		; RenderChromeBall
;	COMDAT __real@c28c0000
CONST	SEGMENT
__real@c28c0000 DD 0c28c0000r			; -70
CONST	ENDS
;	COMDAT __real@c4000000
CONST	SEGMENT
__real@c4000000 DD 0c4000000r			; -512
CONST	ENDS
;	COMDAT ?__LINE__Var@?1??InitChromeBall@@YAJPAUobject_def@@PAJ@Z@4JA
_DATA	SEGMENT
?__LINE__Var@?1??InitChromeBall@@YAJPAUobject_def@@PAJ@Z@4JA DD 02d8H ; `InitChromeBall'::`2'::__LINE__Var
; Function compile flags: /Odt /ZI
_DATA	ENDS
;	COMDAT ?InitChromeBall@@YAJPAUobject_def@@PAJ@Z
_TEXT	SEGMENT
_col$ = -16						; size = 4
_i$ = -12						; size = 4
_model$ = -8						; size = 4
_ball$ = -4						; size = 4
_obj$ = 8						; size = 4
_flags$ = 12						; size = 4
?InitChromeBall@@YAJPAUobject_def@@PAJ@Z PROC NEAR	; InitChromeBall, COMDAT

; 728  : {

	push	ebp
	mov	ebp, esp
	sub	esp, 80					; 00000050H
	push	ebx
	push	esi
	push	edi

; 729  : 	CHROMEBALL_OBJ *ball = (CHROMEBALL_OBJ*)obj->Data;

	mov	eax, DWORD PTR _obj$[ebp]
	mov	ecx, DWORD PTR [eax+684]
	mov	DWORD PTR _ball$[ebp], ecx

; 730  : 	MODEL *model;
; 731  : 	long i, col;
; 732  : 
; 733  : // setup ai / move handlers
; 734  : 
; 735  : 	obj->aihandler = (AI_HANDLER)ChromeBallHandler;

	mov	eax, DWORD PTR _obj$[ebp]
	mov	DWORD PTR [eax+696], OFFSET FLAT:?ChromeBallHandler@@YAXPAUobject_def@@@Z ; ChromeBallHandler

; 736  : 	obj->movehandler = (MOVE_HANDLER)MOV_MoveBody;

	mov	eax, DWORD PTR _obj$[ebp]
	mov	DWORD PTR [eax+688], OFFSET FLAT:?MOV_MoveBody@@YAXPAUobject_def@@@Z ; MOV_MoveBody

; 737  : 	obj->collhandler = (COLL_HANDLER)COL_BodyCollHandler;

	mov	eax, DWORD PTR _obj$[ebp]
	mov	DWORD PTR [eax+692], OFFSET FLAT:?COL_BodyCollHandler@@YAXPAUobject_def@@@Z ; COL_BodyCollHandler

; 738  : 	obj->renderhandler = (RENDER_HANDLER)RenderChromeBall;

	mov	eax, DWORD PTR _obj$[ebp]
	mov	DWORD PTR [eax+700], OFFSET FLAT:?RenderChromeBall@@YAXPAUobject_def@@@Z ; RenderChromeBall

; 739  : 
; 740  : // load default model
; 741  : 
; 742  : 	obj->DefaultModel = LoadOneLevelModel(LEVEL_MODEL_CHROMEBALL, FALSE, obj->renderflag, 0);

	push	0
	mov	eax, DWORD PTR _obj$[ebp]
	mov	ecx, DWORD PTR [eax+584]
	push	ecx
	push	0
	push	38					; 00000026H
	call	?LoadOneLevelModel@@YAJJJUrenderflags@@J@Z ; LoadOneLevelModel
	add	esp, 16					; 00000010H
	mov	edx, DWORD PTR _obj$[ebp]
	mov	DWORD PTR [edx+656], eax

; 743  : 	if (obj->DefaultModel == -1) return FALSE;

	mov	eax, DWORD PTR _obj$[ebp]
	cmp	DWORD PTR [eax+656], -1
	jne	SHORT $L83282
	xor	eax, eax
	jmp	$L83272
$L83282:

; 744  : 
; 745  : // remember owner player
; 746  : 
; 747  : 	obj->player = (PLAYER*)flags[0];

	mov	eax, DWORD PTR _obj$[ebp]
	mov	ecx, DWORD PTR _flags$[ebp]
	mov	edx, DWORD PTR [ecx]
	mov	DWORD PTR [eax+588], edx

; 748  : 
; 749  : // setup ball
; 750  : 
; 751  : 	ball->Age = 0.0f;

	mov	eax, DWORD PTR _ball$[ebp]
	mov	DWORD PTR [eax], 0

; 752  : 	ball->Radius = CHROMEBALL_MIN_RAD;

	mov	eax, DWORD PTR _ball$[ebp]
	mov	DWORD PTR [eax+4], 1082130432		; 40800000H

; 753  : 
; 754  : // pos / vel
; 755  : 
; 756  : 	VecPlusScalarVec(&obj->player->car.BodyWorldPos, -70.0f, &obj->player->car.Body->Centre.WMatrix.mv[L], &obj->body.Centre.Pos);

	mov	eax, DWORD PTR _obj$[ebp]
	mov	ecx, DWORD PTR [eax+588]
	mov	edx, DWORD PTR _obj$[ebp]
	mov	eax, DWORD PTR [edx+588]
	mov	edx, DWORD PTR [eax+900]
	fld	DWORD PTR __real@c28c0000
	fmul	DWORD PTR [edx+124]
	fadd	DWORD PTR [ecx+816]
	mov	eax, DWORD PTR _obj$[ebp]
	fstp	DWORD PTR [eax+20]
	mov	eax, DWORD PTR _obj$[ebp]
	mov	ecx, DWORD PTR [eax+588]
	mov	edx, DWORD PTR _obj$[ebp]
	mov	eax, DWORD PTR [edx+588]
	mov	edx, DWORD PTR [eax+900]
	fld	DWORD PTR __real@c28c0000
	fmul	DWORD PTR [edx+128]
	fadd	DWORD PTR [ecx+820]
	mov	eax, DWORD PTR _obj$[ebp]
	fstp	DWORD PTR [eax+24]
	mov	eax, DWORD PTR _obj$[ebp]
	mov	ecx, DWORD PTR [eax+588]
	mov	edx, DWORD PTR _obj$[ebp]
	mov	eax, DWORD PTR [edx+588]
	mov	edx, DWORD PTR [eax+900]
	fld	DWORD PTR __real@c28c0000
	fmul	DWORD PTR [edx+132]
	fadd	DWORD PTR [ecx+824]
	mov	eax, DWORD PTR _obj$[ebp]
	fstp	DWORD PTR [eax+28]

; 757  : 	VecPlusScalarVec(&obj->player->car.Body->Centre.Vel, -512.0f, &obj->player->car.Body->Centre.WMatrix.mv[L], &obj->body.Centre.Vel);

	mov	eax, DWORD PTR _obj$[ebp]
	mov	ecx, DWORD PTR [eax+588]
	mov	edx, DWORD PTR [ecx+900]
	mov	eax, DWORD PTR _obj$[ebp]
	mov	ecx, DWORD PTR [eax+588]
	mov	eax, DWORD PTR [ecx+900]
	fld	DWORD PTR __real@c4000000
	fmul	DWORD PTR [eax+124]
	fadd	DWORD PTR [edx+32]
	mov	ecx, DWORD PTR _obj$[ebp]
	fstp	DWORD PTR [ecx+32]
	mov	eax, DWORD PTR _obj$[ebp]
	mov	ecx, DWORD PTR [eax+588]
	mov	edx, DWORD PTR [ecx+900]
	mov	eax, DWORD PTR _obj$[ebp]
	mov	ecx, DWORD PTR [eax+588]
	mov	eax, DWORD PTR [ecx+900]
	fld	DWORD PTR __real@c4000000
	fmul	DWORD PTR [eax+128]
	fadd	DWORD PTR [edx+36]
	mov	ecx, DWORD PTR _obj$[ebp]
	fstp	DWORD PTR [ecx+36]
	mov	eax, DWORD PTR _obj$[ebp]
	mov	ecx, DWORD PTR [eax+588]
	mov	edx, DWORD PTR [ecx+900]
	mov	eax, DWORD PTR _obj$[ebp]
	mov	ecx, DWORD PTR [eax+588]
	mov	eax, DWORD PTR [ecx+900]
	fld	DWORD PTR __real@c4000000
	fmul	DWORD PTR [eax+132]
	fadd	DWORD PTR [edx+40]
	mov	ecx, DWORD PTR _obj$[ebp]
	fstp	DWORD PTR [ecx+40]

; 758  : 
; 759  : // setup sfx
; 760  : 
; 761  : 	obj->Sfx3D = CreateSfx3D(SFX_CHROMEBALL, SFX_MIN_VOL, 22050, TRUE, &obj->body.Centre.Pos);

	mov	eax, DWORD PTR _obj$[ebp]
	add	eax, 20					; 00000014H
	push	eax
	push	1
	push	22050					; 00005622H
	push	0
	push	11					; 0000000bH
	call	?CreateSfx3D@@YAPAUSAMPLE_3D@@JJJJPAUVectorStruct@@@Z ; CreateSfx3D
	add	esp, 20					; 00000014H
	mov	ecx, DWORD PTR _obj$[ebp]
	mov	DWORD PTR [ecx+680], eax

; 762  : 
; 763  : // Physical properties
; 764  : 
; 765  : 	obj->body.Centre.Mass = Real(3.0f);

	mov	eax, DWORD PTR _obj$[ebp]
	mov	DWORD PTR [eax], 1077936128		; 40400000H

; 766  : 	obj->body.Centre.InvMass = ONE / Real(3.0f);

	mov	eax, DWORD PTR _obj$[ebp]
	mov	DWORD PTR [eax+4], 1051372203		; 3eaaaaabH

; 767  : 	SetMat(&obj->body.BodyInertia, Real(100), ZERO, ZERO, ZERO, Real(100), ZERO, ZERO, ZERO, Real(100));

	push	1120403456				; 42c80000H
	push	0
	push	0
	push	0
	push	1120403456				; 42c80000H
	push	0
	push	0
	push	0
	push	1120403456				; 42c80000H
	mov	eax, DWORD PTR _obj$[ebp]
	add	eax, 224				; 000000e0H
	push	eax
	call	?SetMat@@YAXPATMatrixUnion@@MMMMMMMMM@Z	; SetMat
	add	esp, 40					; 00000028H

; 768  : 	SetMat(&obj->body.BodyInvInertia, ONE / Real(100), ZERO, ZERO, ZERO, ONE / Real(100), ZERO, ZERO, ZERO, ONE / Real(100));

	push	1008981770				; 3c23d70aH
	push	0
	push	0
	push	0
	push	1008981770				; 3c23d70aH
	push	0
	push	0
	push	0
	push	1008981770				; 3c23d70aH
	mov	eax, DWORD PTR _obj$[ebp]
	add	eax, 260				; 00000104H
	push	eax
	call	?SetMat@@YAXPATMatrixUnion@@MMMMMMMMM@Z	; SetMat
	add	esp, 40					; 00000028H

; 769  : 
; 770  : 	obj->body.Centre.Hardness = Real(0.2);

	mov	eax, DWORD PTR _obj$[ebp]
	mov	DWORD PTR [eax+172], 1045220557		; 3e4ccccdH

; 771  : 	obj->body.Centre.Resistance = Real(0.001);

	mov	eax, DWORD PTR _obj$[ebp]
	mov	DWORD PTR [eax+176], 981668463		; 3a83126fH

; 772  : 	obj->body.DefaultAngRes = Real(0.005);

	mov	eax, DWORD PTR _obj$[ebp]
	mov	DWORD PTR [eax+368], 1000593162		; 3ba3d70aH

; 773  : 	obj->body.AngResistance = Real(0.005);

	mov	eax, DWORD PTR _obj$[ebp]
	mov	DWORD PTR [eax+376], 1000593162		; 3ba3d70aH

; 774  : 	obj->body.AngResMod = Real(1.0);

	mov	eax, DWORD PTR _obj$[ebp]
	mov	DWORD PTR [eax+372], 1065353216		; 3f800000H

; 775  : 	obj->body.Centre.Grip = Real(0.1);

	mov	eax, DWORD PTR _obj$[ebp]
	mov	DWORD PTR [eax+180], 1036831949		; 3dcccccdH

; 776  : 	obj->body.Centre.StaticFriction = Real(2.0);

	mov	eax, DWORD PTR _obj$[ebp]
	mov	DWORD PTR [eax+184], 1073741824		; 40000000H

; 777  : 	obj->body.Centre.KineticFriction = Real(1.0);

	mov	eax, DWORD PTR _obj$[ebp]
	mov	DWORD PTR [eax+188], 1065353216		; 3f800000H

; 778  : 
; 779  : // Collision skin
; 780  : 
; 781  : 	obj->CollType = COLL_TYPE_BODY;

	mov	eax, DWORD PTR _obj$[ebp]
	mov	DWORD PTR [eax+660], 1

; 782  : 	SetBodySphere(&obj->body);

	mov	eax, DWORD PTR _obj$[ebp]
	mov	DWORD PTR [eax+472], 1

; 783  : 	obj->body.CollSkin.Sphere = (SPHERE *)malloc(sizeof(SPHERE));

	push	OFFSET FLAT:??_C@_0IL@GBHCIHE@c?3?2documents?5and?5settings?2jarhea@
	mov	eax, DWORD PTR ?__LINE__Var@?1??InitChromeBall@@YAJPAUobject_def@@PAJ@Z@4JA
	add	eax, 55					; 00000037H
	push	eax
	push	16					; 00000010H
	call	?DebugMalloc@@YAPAXIHPAD@Z		; DebugMalloc
	add	esp, 12					; 0000000cH
	mov	ecx, DWORD PTR _obj$[ebp]
	mov	DWORD PTR [ecx+396], eax

; 784  : 	SetVecZero(&obj->body.CollSkin.Sphere[0].Pos);

	mov	eax, DWORD PTR _obj$[ebp]
	mov	ecx, DWORD PTR [eax+396]
	mov	DWORD PTR [ecx], 0
	mov	eax, DWORD PTR _obj$[ebp]
	mov	ecx, DWORD PTR [eax+396]
	mov	DWORD PTR [ecx+4], 0
	mov	eax, DWORD PTR _obj$[ebp]
	mov	ecx, DWORD PTR [eax+396]
	mov	DWORD PTR [ecx+8], 0

; 785  : 	obj->body.CollSkin.Sphere[0].Radius = CHROMEBALL_MAX_RAD;

	mov	eax, DWORD PTR _obj$[ebp]
	mov	ecx, DWORD PTR [eax+396]
	mov	DWORD PTR [ecx+12], 1115684864		; 42800000H

; 786  : 	obj->body.CollSkin.NSpheres = 1;

	mov	eax, DWORD PTR _obj$[ebp]
	mov	WORD PTR [eax+408], 1

; 787  : 	CreateCopyCollSkin(&obj->body.CollSkin);

	mov	eax, DWORD PTR _obj$[ebp]
	add	eax, 380				; 0000017cH
	push	eax
	call	?CreateCopyCollSkin@@YA_NPAUCollSkinStruct@@@Z ; CreateCopyCollSkin
	add	esp, 4

; 788  : 	MakeTightLocalBBox(&obj->body.CollSkin);

	mov	eax, DWORD PTR _obj$[ebp]
	add	eax, 380				; 0000017cH
	push	eax
	call	?MakeTightLocalBBox@@YAXPAUCollSkinStruct@@@Z ; MakeTightLocalBBox
	add	esp, 4

; 789  : 	BuildWorldSkin(&obj->body.CollSkin, &obj->body.Centre.Pos, &obj->body.Centre.WMatrix);

	mov	eax, DWORD PTR _obj$[ebp]
	add	eax, 100				; 00000064H
	push	eax
	mov	ecx, DWORD PTR _obj$[ebp]
	add	ecx, 20					; 00000014H
	push	ecx
	mov	edx, DWORD PTR _obj$[ebp]
	add	edx, 380				; 0000017cH
	push	edx
	call	?BuildWorldSkin@@YAXPAUCollSkinStruct@@PAUVectorStruct@@PATMatrixUnion@@@Z ; BuildWorldSkin
	add	esp, 12					; 0000000cH

; 790  : 	obj->body.CollSkin.WorldSphere[0].Radius = CHROMEBALL_MIN_RAD;

	mov	eax, DWORD PTR _obj$[ebp]
	mov	ecx, DWORD PTR [eax+400]
	mov	DWORD PTR [ecx+12], 1082130432		; 40800000H

; 791  : 
; 792  : // force model textures
; 793  : 
; 794  : 	model = &LevelModel[obj->DefaultModel].Model;

	mov	eax, DWORD PTR _obj$[ebp]
	mov	ecx, DWORD PTR [eax+656]
	imul	ecx, 168				; 000000a8H
	add	ecx, OFFSET FLAT:?LevelModel@@3PAULEVEL_MODEL@@A+8
	mov	DWORD PTR _model$[ebp], ecx

; 795  : 	if (model->QuadNumRGB)

	mov	eax, DWORD PTR _model$[ebp]
	movsx	ecx, WORD PTR [eax+40]
	test	ecx, ecx
	je	$L83303

; 796  : 	{
; 797  : 		model->QuadNumTex = model->QuadNumRGB;

	mov	eax, DWORD PTR _model$[ebp]
	mov	ecx, DWORD PTR _model$[ebp]
	mov	dx, WORD PTR [ecx+40]
	mov	WORD PTR [eax+36], dx

; 798  : 		model->TriNumTex = model->TriNumRGB;

	mov	eax, DWORD PTR _model$[ebp]
	mov	ecx, DWORD PTR _model$[ebp]
	mov	dx, WORD PTR [ecx+42]
	mov	WORD PTR [eax+38], dx

; 799  : 		model->QuadNumRGB = 0;

	mov	eax, DWORD PTR _model$[ebp]
	mov	WORD PTR [eax+40], 0

; 800  : 		model->TriNumRGB = 0;

	mov	eax, DWORD PTR _model$[ebp]
	mov	WORD PTR [eax+42], 0

; 801  : 
; 802  : 		for (i = 0 ; i < model->VertNum ; i++)

	mov	DWORD PTR _i$[ebp], 0
	jmp	SHORT $L83304
$L83305:
	mov	eax, DWORD PTR _i$[ebp]
	add	eax, 1
	mov	DWORD PTR _i$[ebp], eax
$L83304:
	mov	eax, DWORD PTR _model$[ebp]
	movsx	ecx, WORD PTR [eax+34]
	cmp	DWORD PTR _i$[ebp], ecx
	jge	SHORT $L83306

; 803  : 		{
; 804  : 			col = (rand() & 63) + 32;

	call	_rand
	and	eax, 63					; 0000003fH
	add	eax, 32					; 00000020H
	mov	DWORD PTR _col$[ebp], eax

; 805  : 			model->VertPtr[i].color = col | col << 8 | col << 16;

	mov	eax, DWORD PTR _col$[ebp]
	shl	eax, 8
	or	eax, DWORD PTR _col$[ebp]
	mov	ecx, DWORD PTR _col$[ebp]
	shl	ecx, 16					; 00000010H
	or	eax, ecx
	mov	edx, DWORD PTR _i$[ebp]
	imul	edx, 88					; 00000058H
	mov	ecx, DWORD PTR _model$[ebp]
	mov	ecx, DWORD PTR [ecx+52]
	mov	DWORD PTR [ecx+edx+52], eax

; 806  : 		}

	jmp	SHORT $L83305
$L83306:

; 807  : 
; 808  : 		for (i = 0 ; i < model->PolyNum ; i++)

	mov	DWORD PTR _i$[ebp], 0
	jmp	SHORT $L83307
$L83308:
	mov	eax, DWORD PTR _i$[ebp]
	add	eax, 1
	mov	DWORD PTR _i$[ebp], eax
$L83307:
	mov	eax, DWORD PTR _model$[ebp]
	movsx	ecx, WORD PTR [eax+32]
	cmp	DWORD PTR _i$[ebp], ecx
	jge	$L83303

; 809  : 		{
; 810  : 			model->PolyPtr[i].Tpage = TPAGE_FX1;

	mov	eax, DWORD PTR _i$[ebp]
	imul	eax, 52					; 00000034H
	mov	ecx, DWORD PTR _model$[ebp]
	mov	edx, DWORD PTR [ecx+48]
	mov	WORD PTR [edx+eax+2], 27		; 0000001bH

; 811  : 			model->PolyPtr[i].tu0 = model->PolyPtr[i].tu3 = 242.0f / 256.0f;

	mov	eax, DWORD PTR _i$[ebp]
	imul	eax, 52					; 00000034H
	mov	ecx, DWORD PTR _model$[ebp]
	mov	edx, DWORD PTR [ecx+48]
	mov	DWORD PTR [edx+eax+28], 1064435712	; 3f720000H
	mov	eax, DWORD PTR _i$[ebp]
	imul	eax, 52					; 00000034H
	mov	ecx, DWORD PTR _model$[ebp]
	mov	edx, DWORD PTR [ecx+48]
	mov	DWORD PTR [edx+eax+4], 1064435712	; 3f720000H

; 812  : 			model->PolyPtr[i].tu1 = model->PolyPtr[i].tu2 = 254.0f / 256.0f;

	mov	eax, DWORD PTR _i$[ebp]
	imul	eax, 52					; 00000034H
	mov	ecx, DWORD PTR _model$[ebp]
	mov	edx, DWORD PTR [ecx+48]
	mov	DWORD PTR [edx+eax+20], 1065222144	; 3f7e0000H
	mov	eax, DWORD PTR _i$[ebp]
	imul	eax, 52					; 00000034H
	mov	ecx, DWORD PTR _model$[ebp]
	mov	edx, DWORD PTR [ecx+48]
	mov	DWORD PTR [edx+eax+12], 1065222144	; 3f7e0000H

; 813  : 			model->PolyPtr[i].tv0 = model->PolyPtr[i].tv1 = 242.0f / 256.0f;

	mov	eax, DWORD PTR _i$[ebp]
	imul	eax, 52					; 00000034H
	mov	ecx, DWORD PTR _model$[ebp]
	mov	edx, DWORD PTR [ecx+48]
	mov	DWORD PTR [edx+eax+16], 1064435712	; 3f720000H
	mov	eax, DWORD PTR _i$[ebp]
	imul	eax, 52					; 00000034H
	mov	ecx, DWORD PTR _model$[ebp]
	mov	edx, DWORD PTR [ecx+48]
	mov	DWORD PTR [edx+eax+8], 1064435712	; 3f720000H

; 814  : 			model->PolyPtr[i].tv2 = model->PolyPtr[i].tv3 = 254.0f / 256.0f;

	mov	eax, DWORD PTR _i$[ebp]
	imul	eax, 52					; 00000034H
	mov	ecx, DWORD PTR _model$[ebp]
	mov	edx, DWORD PTR [ecx+48]
	mov	DWORD PTR [edx+eax+32], 1065222144	; 3f7e0000H
	mov	eax, DWORD PTR _i$[ebp]
	imul	eax, 52					; 00000034H
	mov	ecx, DWORD PTR _model$[ebp]
	mov	edx, DWORD PTR [ecx+48]
	mov	DWORD PTR [edx+eax+24], 1065222144	; 3f7e0000H

; 815  : 
; 816  : 			*(long*)&model->PolyRGB[i].rgb[0] = model->PolyPtr[i].v0->color;

	mov	eax, DWORD PTR _i$[ebp]
	imul	eax, 52					; 00000034H
	mov	ecx, DWORD PTR _model$[ebp]
	mov	edx, DWORD PTR [ecx+48]
	mov	eax, DWORD PTR [edx+eax+36]
	mov	ecx, DWORD PTR _i$[ebp]
	shl	ecx, 4
	mov	edx, DWORD PTR _model$[ebp]
	mov	edx, DWORD PTR [edx+44]
	mov	eax, DWORD PTR [eax+52]
	mov	DWORD PTR [ecx+edx], eax

; 817  : 			*(long*)&model->PolyRGB[i].rgb[1] = model->PolyPtr[i].v1->color;

	mov	eax, DWORD PTR _i$[ebp]
	imul	eax, 52					; 00000034H
	mov	ecx, DWORD PTR _model$[ebp]
	mov	edx, DWORD PTR [ecx+48]
	mov	eax, DWORD PTR [edx+eax+40]
	mov	ecx, DWORD PTR _i$[ebp]
	shl	ecx, 4
	mov	edx, DWORD PTR _model$[ebp]
	mov	edx, DWORD PTR [edx+44]
	mov	eax, DWORD PTR [eax+52]
	mov	DWORD PTR [edx+ecx+4], eax

; 818  : 			*(long*)&model->PolyRGB[i].rgb[2] = model->PolyPtr[i].v2->color;

	mov	eax, DWORD PTR _i$[ebp]
	imul	eax, 52					; 00000034H
	mov	ecx, DWORD PTR _model$[ebp]
	mov	edx, DWORD PTR [ecx+48]
	mov	eax, DWORD PTR [edx+eax+44]
	mov	ecx, DWORD PTR _i$[ebp]
	shl	ecx, 4
	mov	edx, DWORD PTR _model$[ebp]
	mov	edx, DWORD PTR [edx+44]
	mov	eax, DWORD PTR [eax+52]
	mov	DWORD PTR [edx+ecx+8], eax

; 819  : 	
; 820  : 			if (model->PolyPtr[i].Type & POLY_QUAD)

	mov	eax, DWORD PTR _i$[ebp]
	imul	eax, 52					; 00000034H
	mov	ecx, DWORD PTR _model$[ebp]
	mov	edx, DWORD PTR [ecx+48]
	movsx	eax, WORD PTR [edx+eax]
	and	eax, 1
	je	SHORT $L83313

; 821  : 				*(long*)&model->PolyRGB[i].rgb[3] = model->PolyPtr[i].v3->color;

	mov	eax, DWORD PTR _i$[ebp]
	imul	eax, 52					; 00000034H
	mov	ecx, DWORD PTR _model$[ebp]
	mov	edx, DWORD PTR [ecx+48]
	mov	eax, DWORD PTR [edx+eax+48]
	mov	ecx, DWORD PTR _i$[ebp]
	shl	ecx, 4
	mov	edx, DWORD PTR _model$[ebp]
	mov	edx, DWORD PTR [edx+44]
	mov	eax, DWORD PTR [eax+52]
	mov	DWORD PTR [edx+ecx+12], eax
$L83313:

; 822  : 		}

	jmp	$L83308
$L83303:

; 823  : 	}
; 824  : 
; 825  : // return OK
; 826  : 
; 827  : 	return TRUE;

	mov	eax, 1
$L83272:

; 828  : }

	pop	edi
	pop	esi
	pop	ebx
	mov	esp, ebp
	pop	ebp
	ret	0
?InitChromeBall@@YAJPAUobject_def@@PAJ@Z ENDP		; InitChromeBall
_TEXT	ENDS
PUBLIC	?InitClone@@YAJPAUobject_def@@PAJ@Z		; InitClone
; Function compile flags: /Odt /ZI
;	COMDAT ?InitClone@@YAJPAUobject_def@@PAJ@Z
_TEXT	SEGMENT
_clone$ = -4						; size = 4
_obj$ = 8						; size = 4
_flags$ = 12						; size = 4
?InitClone@@YAJPAUobject_def@@PAJ@Z PROC NEAR		; InitClone, COMDAT

; 835  : {

	push	ebp
	mov	ebp, esp
	sub	esp, 68					; 00000044H
	push	ebx
	push	esi
	push	edi

; 836  : 	CLONE_OBJ *clone = (CLONE_OBJ*)obj->Data;

	mov	eax, DWORD PTR _obj$[ebp]
	mov	ecx, DWORD PTR [eax+684]
	mov	DWORD PTR _clone$[ebp], ecx

; 837  : 
; 838  : // return OK
; 839  : 
; 840  : 	return TRUE;

	mov	eax, 1

; 841  : }

	pop	edi
	pop	esi
	pop	ebx
	mov	esp, ebp
	pop	ebp
	ret	0
?InitClone@@YAJPAUobject_def@@PAJ@Z ENDP		; InitClone
_TEXT	ENDS
PUBLIC	?TurboMoveHandler@@YAXPAUobject_def@@@Z		; TurboMoveHandler
PUBLIC	?InitTurbo@@YAJPAUobject_def@@PAJ@Z		; InitTurbo
PUBLIC	?Turbo2Handler@@YAXPAUobject_def@@@Z		; Turbo2Handler
; Function compile flags: /Odt /ZI
;	COMDAT ?InitTurbo@@YAJPAUobject_def@@PAJ@Z
_TEXT	SEGMENT
_turbo$ = -4						; size = 4
_obj$ = 8						; size = 4
_flags$ = 12						; size = 4
?InitTurbo@@YAJPAUobject_def@@PAJ@Z PROC NEAR		; InitTurbo, COMDAT

; 848  : {

	push	ebp
	mov	ebp, esp
	sub	esp, 68					; 00000044H
	push	ebx
	push	esi
	push	edi

; 849  : 	//int iTrail;
; 850  : 	TURBO_OBJ *turbo = (TURBO_OBJ*)obj->Data;

	mov	eax, DWORD PTR _obj$[ebp]
	mov	ecx, DWORD PTR [eax+684]
	mov	DWORD PTR _turbo$[ebp], ecx

; 851  : 
; 852  : // setup handlers
; 853  : 
; 854  : 	obj->aihandler = (AI_HANDLER)Turbo2Handler;

	mov	eax, DWORD PTR _obj$[ebp]
	mov	DWORD PTR [eax+696], OFFSET FLAT:?Turbo2Handler@@YAXPAUobject_def@@@Z ; Turbo2Handler

; 855  : 	obj->movehandler = (MOVE_HANDLER)TurboMoveHandler;

	mov	eax, DWORD PTR _obj$[ebp]
	mov	DWORD PTR [eax+688], OFFSET FLAT:?TurboMoveHandler@@YAXPAUobject_def@@@Z ; TurboMoveHandler

; 856  : 
; 857  : // remember owner player
; 858  : 
; 859  : 	obj->player = (PLAYER*)flags[0];

	mov	eax, DWORD PTR _obj$[ebp]
	mov	ecx, DWORD PTR _flags$[ebp]
	mov	edx, DWORD PTR [ecx]
	mov	DWORD PTR [eax+588], edx

; 860  : 
; 861  : // setup
; 862  : 
; 863  : 	turbo->Age = turbo->SparkTime = ZERO;

	mov	eax, DWORD PTR _turbo$[ebp]
	mov	DWORD PTR [eax+8], 0
	mov	ecx, DWORD PTR _turbo$[ebp]
	mov	DWORD PTR [ecx], 0

; 864  : 	turbo->LifeTime = TO_TIME(Real(3));

	mov	eax, DWORD PTR _turbo$[ebp]
	mov	DWORD PTR [eax+4], 1077936128		; 40400000H

; 865  : 	turbo->Force = TO_FORCE(Real(3500));

	mov	eax, DWORD PTR _turbo$[ebp]
	mov	DWORD PTR [eax+16], 1163575296		; 455ac000H

; 866  : 	/*for (iTrail = 0; iTrail < TURBO_NTRAILS; iTrail++) {
; 867  : 		turbo->TurboTrail[iTrail] = GetFreeTrail(TRAIL_SMOKE);
; 868  : 		if (turbo->TurboTrail[iTrail] != NULL) {
; 869  : 			CopyVec(&obj->player->car.Wheel[iTrail].WPos, &turbo->TurboTrail[iTrail]->Pos[0]);
; 870  : 			turbo->TrailTime = ZERO;
; 871  : 		}
; 872  : 	}*/
; 873  : 
; 874  : 
; 875  : // return OK
; 876  : 
; 877  : 	return TRUE;

	mov	eax, 1

; 878  : }

	pop	edi
	pop	esi
	pop	ebx
	mov	esp, ebp
	pop	ebp
	ret	0
?InitTurbo@@YAJPAUobject_def@@PAJ@Z ENDP		; InitTurbo
_TEXT	ENDS
PUBLIC	?InitTurbo2@@YAJPAUobject_def@@PAJ@Z		; InitTurbo2
; Function compile flags: /Odt /ZI
;	COMDAT ?InitTurbo2@@YAJPAUobject_def@@PAJ@Z
_TEXT	SEGMENT
_turbo$ = -4						; size = 4
_obj$ = 8						; size = 4
_flags$ = 12						; size = 4
?InitTurbo2@@YAJPAUobject_def@@PAJ@Z PROC NEAR		; InitTurbo2, COMDAT

; 885  : {

	push	ebp
	mov	ebp, esp
	sub	esp, 68					; 00000044H
	push	ebx
	push	esi
	push	edi

; 886  : 	TURBO2_OBJ *turbo = (TURBO2_OBJ*)obj->Data;

	mov	eax, DWORD PTR _obj$[ebp]
	mov	ecx, DWORD PTR [eax+684]
	mov	DWORD PTR _turbo$[ebp], ecx

; 887  : 
; 888  : // setup handlers
; 889  : 
; 890  : 	obj->aihandler = (AI_HANDLER)Turbo2Handler;

	mov	eax, DWORD PTR _obj$[ebp]
	mov	DWORD PTR [eax+696], OFFSET FLAT:?Turbo2Handler@@YAXPAUobject_def@@@Z ; Turbo2Handler

; 891  : 
; 892  : // remember owner player
; 893  : 
; 894  : 	obj->player = (PLAYER*)flags[0];

	mov	eax, DWORD PTR _obj$[ebp]
	mov	ecx, DWORD PTR _flags$[ebp]
	mov	edx, DWORD PTR [ecx]
	mov	DWORD PTR [eax+588], edx

; 895  : 
; 896  : // setup
; 897  : 
; 898  : 	turbo->Age = 0.0f;

	mov	eax, DWORD PTR _turbo$[ebp]
	mov	DWORD PTR [eax], 0

; 899  : 	turbo->LifeTime = 3.0f;

	mov	eax, DWORD PTR _turbo$[ebp]
	mov	DWORD PTR [eax+4], 1077936128		; 40400000H

; 900  : 
; 901  : // return OK
; 902  : 
; 903  : 	return TRUE;

	mov	eax, 1

; 904  : }

	pop	edi
	pop	esi
	pop	ebx
	mov	esp, ebp
	pop	ebp
	ret	0
?InitTurbo2@@YAJPAUobject_def@@PAJ@Z ENDP		; InitTurbo2
_TEXT	ENDS
PUBLIC	?InitSpring@@YAJPAUobject_def@@PAJ@Z		; InitSpring
PUBLIC	?SpringHandler@@YAXPAUobject_def@@@Z		; SpringHandler
; Function compile flags: /Odt /ZI
;	COMDAT ?InitSpring@@YAJPAUobject_def@@PAJ@Z
_TEXT	SEGMENT
_spring$ = -4						; size = 4
_obj$ = 8						; size = 4
_flags$ = 12						; size = 4
?InitSpring@@YAJPAUobject_def@@PAJ@Z PROC NEAR		; InitSpring, COMDAT

; 911  : {

	push	ebp
	mov	ebp, esp
	sub	esp, 68					; 00000044H
	push	ebx
	push	esi
	push	edi

; 912  : 	SPRING_OBJ *spring = (SPRING_OBJ*)obj->Data;

	mov	eax, DWORD PTR _obj$[ebp]
	mov	ecx, DWORD PTR [eax+684]
	mov	DWORD PTR _spring$[ebp], ecx

; 913  : 
; 914  : // remember owner player
; 915  : 
; 916  : 	obj->player = (PLAYER*)flags[0];

	mov	eax, DWORD PTR _obj$[ebp]
	mov	ecx, DWORD PTR _flags$[ebp]
	mov	edx, DWORD PTR [ecx]
	mov	DWORD PTR [eax+588], edx

; 917  : 
; 918  : // set up handlers
; 919  : 
; 920  : 	obj->aihandler = (AI_HANDLER)SpringHandler;

	mov	eax, DWORD PTR _obj$[ebp]
	mov	DWORD PTR [eax+696], OFFSET FLAT:?SpringHandler@@YAXPAUobject_def@@@Z ; SpringHandler

; 921  : 
; 922  : // return OK
; 923  : 
; 924  : 	return TRUE;

	mov	eax, 1

; 925  : }

	pop	edi
	pop	esi
	pop	ebx
	mov	esp, ebp
	pop	ebp
	ret	0
?InitSpring@@YAJPAUobject_def@@PAJ@Z ENDP		; InitSpring
_TEXT	ENDS
PUBLIC	?__LINE__Var@?1??InitElectroZapped@@YAJPAUobject_def@@PAJ@Z@4JA ; `InitElectroZapped'::`2'::__LINE__Var
PUBLIC	?InitElectroZapped@@YAJPAUobject_def@@PAJ@Z	; InitElectroZapped
PUBLIC	?ElectroZappedHandler@@YAXPAUobject_def@@@Z	; ElectroZappedHandler
PUBLIC	?RenderElectroZapped@@YAXPAUobject_def@@@Z	; RenderElectroZapped
;	COMDAT ?__LINE__Var@?1??InitElectroZapped@@YAJPAUobject_def@@PAJ@Z@4JA
_DATA	SEGMENT
?__LINE__Var@?1??InitElectroZapped@@YAJPAUobject_def@@PAJ@Z@4JA DD 03a4H ; `InitElectroZapped'::`2'::__LINE__Var
; Function compile flags: /Odt /ZI
_DATA	ENDS
;	COMDAT ?InitElectroZapped@@YAJPAUobject_def@@PAJ@Z
_TEXT	SEGMENT
tv516 = -100						; size = 4
tv512 = -100						; size = 4
_evert$ = -32						; size = 4
_dmodel$ = -28						; size = 4
_smodel$ = -24						; size = 4
_electro$ = -20						; size = 4
_mul$ = -16						; size = 4
_off$ = -12						; size = 4
_ram$ = -8						; size = 4
_i$ = -4						; size = 4
_obj$ = 8						; size = 4
_flags$ = 12						; size = 4
?InitElectroZapped@@YAJPAUobject_def@@PAJ@Z PROC NEAR	; InitElectroZapped, COMDAT

; 932  : {

	push	ebp
	mov	ebp, esp
	sub	esp, 100				; 00000064H
	push	ebx
	push	esi
	push	edi

; 933  : 	long i, ram, off;
; 934  : 	REAL mul;
; 935  : 	ELECTROZAPPED_OBJ *electro;
; 936  : 	MODEL *smodel, *dmodel;
; 937  : 	ELECTROZAPPED_VERT *evert;
; 938  : 
; 939  : // set render flags
; 940  : 
; 941  : 	obj->renderflag.envmap = FALSE;

	mov	eax, DWORD PTR _obj$[ebp]
	mov	ecx, DWORD PTR [eax+584]
	and	ecx, -2					; fffffffeH
	mov	edx, DWORD PTR _obj$[ebp]
	mov	DWORD PTR [edx+584], ecx

; 942  : 	obj->renderflag.light = FALSE;

	mov	eax, DWORD PTR _obj$[ebp]
	mov	ecx, DWORD PTR [eax+584]
	and	ecx, -5					; fffffffbH
	mov	edx, DWORD PTR _obj$[ebp]
	mov	DWORD PTR [edx+584], ecx

; 943  : 	obj->renderflag.reflect = FALSE;

	mov	eax, DWORD PTR _obj$[ebp]
	mov	ecx, DWORD PTR [eax+584]
	and	ecx, -17				; ffffffefH
	mov	edx, DWORD PTR _obj$[ebp]
	mov	DWORD PTR [edx+584], ecx

; 944  : 	obj->renderflag.meshfx = FALSE;

	mov	eax, DWORD PTR _obj$[ebp]
	mov	ecx, DWORD PTR [eax+584]
	and	ecx, -257				; fffffeffH
	mov	edx, DWORD PTR _obj$[ebp]
	mov	DWORD PTR [edx+584], ecx

; 945  : 
; 946  : // setup handlers
; 947  : 
; 948  : 	obj->aihandler = (AI_HANDLER)ElectroZappedHandler;

	mov	eax, DWORD PTR _obj$[ebp]
	mov	DWORD PTR [eax+696], OFFSET FLAT:?ElectroZappedHandler@@YAXPAUobject_def@@@Z ; ElectroZappedHandler

; 949  : 	obj->renderhandler = (RENDER_HANDLER)RenderElectroZapped;

	mov	eax, DWORD PTR _obj$[ebp]
	mov	DWORD PTR [eax+700], OFFSET FLAT:?RenderElectroZapped@@YAXPAUobject_def@@@Z ; RenderElectroZapped

; 950  : 
; 951  : // remember owner player
; 952  : 
; 953  : 	obj->player = (PLAYER*)flags[0];

	mov	eax, DWORD PTR _obj$[ebp]
	mov	ecx, DWORD PTR _flags$[ebp]
	mov	edx, DWORD PTR [ecx]
	mov	DWORD PTR [eax+588], edx

; 954  : 
; 955  : // calc + alloc ram
; 956  : 
; 957  : 	smodel = &obj->player->car.Models->Body[0];

	mov	eax, DWORD PTR _obj$[ebp]
	mov	ecx, DWORD PTR [eax+588]
	mov	edx, DWORD PTR [ecx+864]
	mov	eax, DWORD PTR [edx+6064]
	mov	DWORD PTR _smodel$[ebp], eax

; 958  : 
; 959  : 	ram = sizeof(ELECTROZAPPED_OBJ);

	mov	DWORD PTR _ram$[ebp], 60		; 0000003cH

; 960  : 	ram += sizeof(MODEL_POLY) * smodel->PolyNum;

	mov	eax, DWORD PTR _smodel$[ebp]
	movsx	ecx, WORD PTR [eax+32]
	imul	ecx, 52					; 00000034H
	add	ecx, DWORD PTR _ram$[ebp]
	mov	DWORD PTR _ram$[ebp], ecx

; 961  : 	ram += sizeof(POLY_RGB) * smodel->PolyNum;

	mov	eax, DWORD PTR _smodel$[ebp]
	movsx	ecx, WORD PTR [eax+32]
	shl	ecx, 4
	add	ecx, DWORD PTR _ram$[ebp]
	mov	DWORD PTR _ram$[ebp], ecx

; 962  : 	ram += sizeof(MODEL_VERTEX) * smodel->VertNum;

	mov	eax, DWORD PTR _smodel$[ebp]
	movsx	ecx, WORD PTR [eax+34]
	imul	ecx, 88					; 00000058H
	add	ecx, DWORD PTR _ram$[ebp]
	mov	DWORD PTR _ram$[ebp], ecx

; 963  : 	ram += sizeof(ELECTROZAPPED_VERT) * smodel->VertNum;

	mov	eax, DWORD PTR _smodel$[ebp]
	movsx	ecx, WORD PTR [eax+34]
	mov	edx, DWORD PTR _ram$[ebp]
	lea	eax, DWORD PTR [edx+ecx*8]
	mov	DWORD PTR _ram$[ebp], eax

; 964  : 
; 965  : 	obj->Data = malloc(ram);

	push	OFFSET FLAT:??_C@_0IL@GBHCIHE@c?3?2documents?5and?5settings?2jarhea@
	mov	eax, DWORD PTR ?__LINE__Var@?1??InitElectroZapped@@YAJPAUobject_def@@PAJ@Z@4JA
	add	eax, 33					; 00000021H
	push	eax
	mov	ecx, DWORD PTR _ram$[ebp]
	push	ecx
	call	?DebugMalloc@@YAPAXIHPAD@Z		; DebugMalloc
	add	esp, 12					; 0000000cH
	mov	edx, DWORD PTR _obj$[ebp]
	mov	DWORD PTR [edx+684], eax

; 966  : 	if (!obj->Data)

	mov	eax, DWORD PTR _obj$[ebp]
	cmp	DWORD PTR [eax+684], 0
	jne	SHORT $L83369

; 967  : 		return FALSE;

	xor	eax, eax
	jmp	$L83351
$L83369:

; 968  : 
; 969  : // setup electro zapped
; 970  : 
; 971  : 	electro = (ELECTROZAPPED_OBJ*)obj->Data;

	mov	eax, DWORD PTR _obj$[ebp]
	mov	ecx, DWORD PTR [eax+684]
	mov	DWORD PTR _electro$[ebp], ecx

; 972  : 
; 973  : // setup model
; 974  : 
; 975  : 	dmodel = &electro->Model;

	mov	eax, DWORD PTR _electro$[ebp]
	mov	DWORD PTR _dmodel$[ebp], eax

; 976  : 
; 977  : 	memcpy(dmodel, smodel, sizeof(MODEL));

	push	60					; 0000003cH
	mov	eax, DWORD PTR _smodel$[ebp]
	push	eax
	mov	ecx, DWORD PTR _dmodel$[ebp]
	push	ecx
	call	_memcpy
	add	esp, 12					; 0000000cH

; 978  : 	dmodel->PolyPtr = (MODEL_POLY*)(electro + 1);

	mov	eax, DWORD PTR _electro$[ebp]
	add	eax, 60					; 0000003cH
	mov	ecx, DWORD PTR _dmodel$[ebp]
	mov	DWORD PTR [ecx+48], eax

; 979  : 	dmodel->PolyRGB = (POLY_RGB*)(dmodel->PolyPtr + dmodel->PolyNum);

	mov	eax, DWORD PTR _dmodel$[ebp]
	movsx	ecx, WORD PTR [eax+32]
	imul	ecx, 52					; 00000034H
	mov	edx, DWORD PTR _dmodel$[ebp]
	add	ecx, DWORD PTR [edx+48]
	mov	eax, DWORD PTR _dmodel$[ebp]
	mov	DWORD PTR [eax+44], ecx

; 980  : 	dmodel->VertPtr = (MODEL_VERTEX*)(dmodel->PolyRGB + dmodel->PolyNum);

	mov	eax, DWORD PTR _dmodel$[ebp]
	movsx	ecx, WORD PTR [eax+32]
	shl	ecx, 4
	mov	edx, DWORD PTR _dmodel$[ebp]
	add	ecx, DWORD PTR [edx+44]
	mov	eax, DWORD PTR _dmodel$[ebp]
	mov	DWORD PTR [eax+52], ecx

; 981  : 
; 982  : 	off = (long)dmodel->VertPtr - (long)smodel->VertPtr;

	mov	eax, DWORD PTR _dmodel$[ebp]
	mov	ecx, DWORD PTR _smodel$[ebp]
	mov	edx, DWORD PTR [eax+52]
	sub	edx, DWORD PTR [ecx+52]
	mov	DWORD PTR _off$[ebp], edx

; 983  : 
; 984  : 	for (i = 0 ; i < dmodel->PolyNum ; i++)

	mov	DWORD PTR _i$[ebp], 0
	jmp	SHORT $L83377
$L83378:
	mov	eax, DWORD PTR _i$[ebp]
	add	eax, 1
	mov	DWORD PTR _i$[ebp], eax
$L83377:
	mov	eax, DWORD PTR _dmodel$[ebp]
	movsx	ecx, WORD PTR [eax+32]
	cmp	DWORD PTR _i$[ebp], ecx
	jge	$L83379

; 985  : 	{
; 986  : 		dmodel->PolyPtr[i] = smodel->PolyPtr[i];

	mov	eax, DWORD PTR _i$[ebp]
	imul	eax, 52					; 00000034H
	mov	ecx, DWORD PTR _smodel$[ebp]
	mov	esi, DWORD PTR [ecx+48]
	add	esi, eax
	mov	edx, DWORD PTR _i$[ebp]
	imul	edx, 52					; 00000034H
	mov	eax, DWORD PTR _dmodel$[ebp]
	mov	edi, DWORD PTR [eax+48]
	add	edi, edx
	mov	ecx, 13					; 0000000dH
	rep movsd

; 987  : 
; 988  : 		dmodel->PolyPtr[i].Type |= POLY_SEMITRANS | POLY_SEMITRANS_ONE;

	mov	eax, DWORD PTR _i$[ebp]
	imul	eax, 52					; 00000034H
	mov	ecx, DWORD PTR _dmodel$[ebp]
	mov	edx, DWORD PTR [ecx+48]
	movsx	eax, WORD PTR [edx+eax]
	or	eax, 260				; 00000104H
	mov	ecx, DWORD PTR _i$[ebp]
	imul	ecx, 52					; 00000034H
	mov	edx, DWORD PTR _dmodel$[ebp]
	mov	edx, DWORD PTR [edx+48]
	mov	WORD PTR [ecx+edx], ax

; 989  : 		dmodel->PolyPtr[i].Tpage = TPAGE_FX1;

	mov	eax, DWORD PTR _i$[ebp]
	imul	eax, 52					; 00000034H
	mov	ecx, DWORD PTR _dmodel$[ebp]
	mov	edx, DWORD PTR [ecx+48]
	mov	WORD PTR [edx+eax+2], 27		; 0000001bH

; 990  : 
; 991  : 		dmodel->PolyPtr[i].v0 = (MODEL_VERTEX*)((long)dmodel->PolyPtr[i].v0 + off);

	mov	eax, DWORD PTR _i$[ebp]
	imul	eax, 52					; 00000034H
	mov	ecx, DWORD PTR _dmodel$[ebp]
	mov	edx, DWORD PTR [ecx+48]
	mov	eax, DWORD PTR [edx+eax+36]
	add	eax, DWORD PTR _off$[ebp]
	mov	ecx, DWORD PTR _i$[ebp]
	imul	ecx, 52					; 00000034H
	mov	edx, DWORD PTR _dmodel$[ebp]
	mov	edx, DWORD PTR [edx+48]
	mov	DWORD PTR [edx+ecx+36], eax

; 992  : 		dmodel->PolyPtr[i].v1 = (MODEL_VERTEX*)((long)dmodel->PolyPtr[i].v1 + off);

	mov	eax, DWORD PTR _i$[ebp]
	imul	eax, 52					; 00000034H
	mov	ecx, DWORD PTR _dmodel$[ebp]
	mov	edx, DWORD PTR [ecx+48]
	mov	eax, DWORD PTR [edx+eax+40]
	add	eax, DWORD PTR _off$[ebp]
	mov	ecx, DWORD PTR _i$[ebp]
	imul	ecx, 52					; 00000034H
	mov	edx, DWORD PTR _dmodel$[ebp]
	mov	edx, DWORD PTR [edx+48]
	mov	DWORD PTR [edx+ecx+40], eax

; 993  : 		dmodel->PolyPtr[i].v2 = (MODEL_VERTEX*)((long)dmodel->PolyPtr[i].v2 + off);

	mov	eax, DWORD PTR _i$[ebp]
	imul	eax, 52					; 00000034H
	mov	ecx, DWORD PTR _dmodel$[ebp]
	mov	edx, DWORD PTR [ecx+48]
	mov	eax, DWORD PTR [edx+eax+44]
	add	eax, DWORD PTR _off$[ebp]
	mov	ecx, DWORD PTR _i$[ebp]
	imul	ecx, 52					; 00000034H
	mov	edx, DWORD PTR _dmodel$[ebp]
	mov	edx, DWORD PTR [edx+48]
	mov	DWORD PTR [edx+ecx+44], eax

; 994  : 		dmodel->PolyPtr[i].v3 = (MODEL_VERTEX*)((long)dmodel->PolyPtr[i].v3 + off);

	mov	eax, DWORD PTR _i$[ebp]
	imul	eax, 52					; 00000034H
	mov	ecx, DWORD PTR _dmodel$[ebp]
	mov	edx, DWORD PTR [ecx+48]
	mov	eax, DWORD PTR [edx+eax+48]
	add	eax, DWORD PTR _off$[ebp]
	mov	ecx, DWORD PTR _i$[ebp]
	imul	ecx, 52					; 00000034H
	mov	edx, DWORD PTR _dmodel$[ebp]
	mov	edx, DWORD PTR [edx+48]
	mov	DWORD PTR [edx+ecx+48], eax

; 995  : 
; 996  : 		*(long*)&dmodel->PolyRGB[i].rgb[0] = 0;

	mov	eax, DWORD PTR _i$[ebp]
	shl	eax, 4
	mov	ecx, DWORD PTR _dmodel$[ebp]
	mov	edx, DWORD PTR [ecx+44]
	mov	DWORD PTR [eax+edx], 0

; 997  : 		*(long*)&dmodel->PolyRGB[i].rgb[1] = 0;

	mov	eax, DWORD PTR _i$[ebp]
	shl	eax, 4
	mov	ecx, DWORD PTR _dmodel$[ebp]
	mov	edx, DWORD PTR [ecx+44]
	mov	DWORD PTR [edx+eax+4], 0

; 998  : 		*(long*)&dmodel->PolyRGB[i].rgb[2] = 0;

	mov	eax, DWORD PTR _i$[ebp]
	shl	eax, 4
	mov	ecx, DWORD PTR _dmodel$[ebp]
	mov	edx, DWORD PTR [ecx+44]
	mov	DWORD PTR [edx+eax+8], 0

; 999  : 		*(long*)&dmodel->PolyRGB[i].rgb[3] = 0;

	mov	eax, DWORD PTR _i$[ebp]
	shl	eax, 4
	mov	ecx, DWORD PTR _dmodel$[ebp]
	mov	edx, DWORD PTR [ecx+44]
	mov	DWORD PTR [edx+eax+12], 0

; 1000 : 	}

	jmp	$L83378
$L83379:

; 1001 : 
; 1002 : 	for (i = 0 ; i < dmodel->VertNum ; i++)

	mov	DWORD PTR _i$[ebp], 0
	jmp	SHORT $L83392
$L83393:
	mov	eax, DWORD PTR _i$[ebp]
	add	eax, 1
	mov	DWORD PTR _i$[ebp], eax
$L83392:
	mov	eax, DWORD PTR _dmodel$[ebp]
	movsx	ecx, WORD PTR [eax+34]
	cmp	DWORD PTR _i$[ebp], ecx
	jge	$L83394

; 1003 : 	{
; 1004 : 		dmodel->VertPtr[i] = smodel->VertPtr[i];

	mov	eax, DWORD PTR _i$[ebp]
	imul	eax, 88					; 00000058H
	mov	ecx, DWORD PTR _smodel$[ebp]
	mov	esi, DWORD PTR [ecx+52]
	add	esi, eax
	mov	edx, DWORD PTR _i$[ebp]
	imul	edx, 88					; 00000058H
	mov	eax, DWORD PTR _dmodel$[ebp]
	mov	edi, DWORD PTR [eax+52]
	add	edi, edx
	mov	ecx, 22					; 00000016H
	rep movsd

; 1005 : 
; 1006 : 		mul = 2.0f / Length((VEC*)&dmodel->VertPtr[i].x) + 1.0f;

	mov	eax, DWORD PTR _i$[ebp]
	imul	eax, 88					; 00000058H
	mov	ecx, DWORD PTR _dmodel$[ebp]
	mov	edx, DWORD PTR [ecx+52]
	mov	ecx, DWORD PTR _i$[ebp]
	imul	ecx, 88					; 00000058H
	mov	esi, DWORD PTR _dmodel$[ebp]
	mov	esi, DWORD PTR [esi+52]
	fld	DWORD PTR [edx+eax]
	fmul	DWORD PTR [esi+ecx]
	mov	edx, DWORD PTR _i$[ebp]
	imul	edx, 88					; 00000058H
	mov	eax, DWORD PTR _dmodel$[ebp]
	mov	ecx, DWORD PTR [eax+52]
	mov	eax, DWORD PTR _i$[ebp]
	imul	eax, 88					; 00000058H
	mov	esi, DWORD PTR _dmodel$[ebp]
	mov	esi, DWORD PTR [esi+52]
	fld	DWORD PTR [ecx+edx+4]
	fmul	DWORD PTR [esi+eax+4]
	faddp	ST(1), ST(0)
	mov	ecx, DWORD PTR _i$[ebp]
	imul	ecx, 88					; 00000058H
	mov	edx, DWORD PTR _dmodel$[ebp]
	mov	eax, DWORD PTR [edx+52]
	mov	edx, DWORD PTR _i$[ebp]
	imul	edx, 88					; 00000058H
	mov	esi, DWORD PTR _dmodel$[ebp]
	mov	esi, DWORD PTR [esi+52]
	fld	DWORD PTR [eax+ecx+8]
	fmul	DWORD PTR [esi+edx+8]
	faddp	ST(1), ST(0)
	push	ecx
	fstp	DWORD PTR [esp]
	call	?sqrt@@YAMM@Z				; sqrt
	add	esp, 4
	fdivr	DWORD PTR __real@40000000
	fadd	DWORD PTR __real@3f800000
	fstp	DWORD PTR _mul$[ebp]

; 1007 : 		dmodel->VertPtr[i].x *= mul;

	mov	eax, DWORD PTR _i$[ebp]
	imul	eax, 88					; 00000058H
	mov	ecx, DWORD PTR _dmodel$[ebp]
	mov	edx, DWORD PTR [ecx+52]
	fld	DWORD PTR _mul$[ebp]
	fmul	DWORD PTR [edx+eax]
	mov	eax, DWORD PTR _i$[ebp]
	imul	eax, 88					; 00000058H
	mov	ecx, DWORD PTR _dmodel$[ebp]
	mov	edx, DWORD PTR [ecx+52]
	fstp	DWORD PTR [eax+edx]

; 1008 : 		dmodel->VertPtr[i].y *= mul;

	mov	eax, DWORD PTR _i$[ebp]
	imul	eax, 88					; 00000058H
	mov	ecx, DWORD PTR _dmodel$[ebp]
	mov	edx, DWORD PTR [ecx+52]
	fld	DWORD PTR _mul$[ebp]
	fmul	DWORD PTR [edx+eax+4]
	mov	eax, DWORD PTR _i$[ebp]
	imul	eax, 88					; 00000058H
	mov	ecx, DWORD PTR _dmodel$[ebp]
	mov	edx, DWORD PTR [ecx+52]
	fstp	DWORD PTR [edx+eax+4]

; 1009 : 		dmodel->VertPtr[i].z *= mul;

	mov	eax, DWORD PTR _i$[ebp]
	imul	eax, 88					; 00000058H
	mov	ecx, DWORD PTR _dmodel$[ebp]
	mov	edx, DWORD PTR [ecx+52]
	fld	DWORD PTR _mul$[ebp]
	fmul	DWORD PTR [edx+eax+8]
	mov	eax, DWORD PTR _i$[ebp]
	imul	eax, 88					; 00000058H
	mov	ecx, DWORD PTR _dmodel$[ebp]
	mov	edx, DWORD PTR [ecx+52]
	fstp	DWORD PTR [edx+eax+8]

; 1010 : 	}

	jmp	$L83393
$L83394:

; 1011 : 
; 1012 : // setup electro verts
; 1013 : 
; 1014 : 	evert = (ELECTROZAPPED_VERT*)(dmodel->VertPtr + dmodel->VertNum);

	mov	eax, DWORD PTR _dmodel$[ebp]
	movsx	ecx, WORD PTR [eax+34]
	imul	ecx, 88					; 00000058H
	mov	edx, DWORD PTR _dmodel$[ebp]
	add	ecx, DWORD PTR [edx+52]
	mov	DWORD PTR _evert$[ebp], ecx

; 1015 : 	for (i = 0 ; i < dmodel->VertNum ; i++)

	mov	DWORD PTR _i$[ebp], 0
	jmp	SHORT $L83403
$L83404:
	mov	eax, DWORD PTR _i$[ebp]
	add	eax, 1
	mov	DWORD PTR _i$[ebp], eax
$L83403:
	mov	eax, DWORD PTR _dmodel$[ebp]
	movsx	ecx, WORD PTR [eax+34]
	cmp	DWORD PTR _i$[ebp], ecx
	jge	SHORT $L83405

; 1016 : 	{
; 1017 : 		evert[i].Time = frand(RAD);

	call	_rand
	mov	DWORD PTR tv512[ebp], eax
	fild	DWORD PTR tv512[ebp]
	fdiv	DWORD PTR __real@46fffe00
	fmul	DWORD PTR __real@40c90fdb
	mov	eax, DWORD PTR _i$[ebp]
	mov	ecx, DWORD PTR _evert$[ebp]
	fstp	DWORD PTR [ecx+eax*8]

; 1018 : 		evert[i].TimeAdd = frand(5.0f) + 1.0f;

	call	_rand
	mov	DWORD PTR tv516[ebp], eax
	fild	DWORD PTR tv516[ebp]
	fdiv	DWORD PTR __real@46fffe00
	fmul	DWORD PTR __real@40a00000
	fadd	DWORD PTR __real@3f800000
	mov	eax, DWORD PTR _i$[ebp]
	mov	ecx, DWORD PTR _evert$[ebp]
	fstp	DWORD PTR [ecx+eax*8+4]

; 1019 : 		if (rand() & 1) evert[i].TimeAdd = -evert[i].TimeAdd;

	call	_rand
	and	eax, 1
	je	SHORT $L83408
	mov	eax, DWORD PTR _i$[ebp]
	mov	ecx, DWORD PTR _evert$[ebp]
	fld	DWORD PTR [ecx+eax*8+4]
	fchs
	mov	edx, DWORD PTR _i$[ebp]
	mov	eax, DWORD PTR _evert$[ebp]
	fstp	DWORD PTR [eax+edx*8+4]
$L83408:

; 1020 : 	}

	jmp	SHORT $L83404
$L83405:

; 1021 : 
; 1022 : // return OK
; 1023 : 
; 1024 : 	return TRUE;

	mov	eax, 1
$L83351:

; 1025 : }

	pop	edi
	pop	esi
	pop	ebx
	mov	esp, ebp
	pop	ebp
	ret	0
?InitElectroZapped@@YAJPAUobject_def@@PAJ@Z ENDP	; InitElectroZapped
_TEXT	ENDS
PUBLIC	?__LINE__Var@?1??InitBombGlow@@YAJPAUobject_def@@PAJ@Z@4JA ; `InitBombGlow'::`2'::__LINE__Var
PUBLIC	?InitBombGlow@@YAJPAUobject_def@@PAJ@Z		; InitBombGlow
PUBLIC	?BombGlowHandler@@YAXPAUobject_def@@@Z		; BombGlowHandler
PUBLIC	?RenderBombGlow@@YAXPAUobject_def@@@Z		; RenderBombGlow
;	COMDAT ?__LINE__Var@?1??InitBombGlow@@YAJPAUobject_def@@PAJ@Z@4JA
_DATA	SEGMENT
?__LINE__Var@?1??InitBombGlow@@YAJPAUobject_def@@PAJ@Z@4JA DD 0408H ; `InitBombGlow'::`2'::__LINE__Var
; Function compile flags: /Odt /ZI
_DATA	ENDS
;	COMDAT ?InitBombGlow@@YAJPAUobject_def@@PAJ@Z
_TEXT	SEGMENT
tv518 = -100						; size = 4
tv514 = -100						; size = 4
_gvert$ = -32						; size = 4
_dmodel$ = -28						; size = 4
_smodel$ = -24						; size = 4
_glow$ = -20						; size = 4
_mul$ = -16						; size = 4
_off$ = -12						; size = 4
_ram$ = -8						; size = 4
_i$ = -4						; size = 4
_obj$ = 8						; size = 4
_flags$ = 12						; size = 4
?InitBombGlow@@YAJPAUobject_def@@PAJ@Z PROC NEAR	; InitBombGlow, COMDAT

; 1032 : {

	push	ebp
	mov	ebp, esp
	sub	esp, 100				; 00000064H
	push	ebx
	push	esi
	push	edi

; 1033 : 	long i, ram, off;
; 1034 : 	REAL mul;
; 1035 : 	BOMBGLOW_OBJ *glow;
; 1036 : 	MODEL *smodel, *dmodel;
; 1037 : 	BOMBGLOW_VERT *gvert;
; 1038 : 
; 1039 : // set render flags
; 1040 : 
; 1041 : 	obj->renderflag.envmap = FALSE;

	mov	eax, DWORD PTR _obj$[ebp]
	mov	ecx, DWORD PTR [eax+584]
	and	ecx, -2					; fffffffeH
	mov	edx, DWORD PTR _obj$[ebp]
	mov	DWORD PTR [edx+584], ecx

; 1042 : 	obj->renderflag.light = FALSE;

	mov	eax, DWORD PTR _obj$[ebp]
	mov	ecx, DWORD PTR [eax+584]
	and	ecx, -5					; fffffffbH
	mov	edx, DWORD PTR _obj$[ebp]
	mov	DWORD PTR [edx+584], ecx

; 1043 : 	obj->renderflag.reflect = FALSE;

	mov	eax, DWORD PTR _obj$[ebp]
	mov	ecx, DWORD PTR [eax+584]
	and	ecx, -17				; ffffffefH
	mov	edx, DWORD PTR _obj$[ebp]
	mov	DWORD PTR [edx+584], ecx

; 1044 : 	obj->renderflag.meshfx = FALSE;

	mov	eax, DWORD PTR _obj$[ebp]
	mov	ecx, DWORD PTR [eax+584]
	and	ecx, -257				; fffffeffH
	mov	edx, DWORD PTR _obj$[ebp]
	mov	DWORD PTR [edx+584], ecx

; 1045 : 
; 1046 : // setup handlers
; 1047 : 
; 1048 : 	obj->aihandler = (AI_HANDLER)BombGlowHandler;

	mov	eax, DWORD PTR _obj$[ebp]
	mov	DWORD PTR [eax+696], OFFSET FLAT:?BombGlowHandler@@YAXPAUobject_def@@@Z ; BombGlowHandler

; 1049 : 	obj->renderhandler = (RENDER_HANDLER)RenderBombGlow;

	mov	eax, DWORD PTR _obj$[ebp]
	mov	DWORD PTR [eax+700], OFFSET FLAT:?RenderBombGlow@@YAXPAUobject_def@@@Z ; RenderBombGlow

; 1050 : 
; 1051 : // remember owner player
; 1052 : 
; 1053 : 	obj->player = (PLAYER*)flags[0];

	mov	eax, DWORD PTR _obj$[ebp]
	mov	ecx, DWORD PTR _flags$[ebp]
	mov	edx, DWORD PTR [ecx]
	mov	DWORD PTR [eax+588], edx

; 1054 : 
; 1055 : // calc + alloc ram
; 1056 : 
; 1057 : 	smodel = &obj->player->car.Models->Body[0];

	mov	eax, DWORD PTR _obj$[ebp]
	mov	ecx, DWORD PTR [eax+588]
	mov	edx, DWORD PTR [ecx+864]
	mov	eax, DWORD PTR [edx+6064]
	mov	DWORD PTR _smodel$[ebp], eax

; 1058 : 
; 1059 : 	ram = sizeof(BOMBGLOW_OBJ);

	mov	DWORD PTR _ram$[ebp], 64		; 00000040H

; 1060 : 	ram += sizeof(MODEL_POLY) * smodel->PolyNum;

	mov	eax, DWORD PTR _smodel$[ebp]
	movsx	ecx, WORD PTR [eax+32]
	imul	ecx, 52					; 00000034H
	add	ecx, DWORD PTR _ram$[ebp]
	mov	DWORD PTR _ram$[ebp], ecx

; 1061 : 	ram += sizeof(POLY_RGB) * smodel->PolyNum;

	mov	eax, DWORD PTR _smodel$[ebp]
	movsx	ecx, WORD PTR [eax+32]
	shl	ecx, 4
	add	ecx, DWORD PTR _ram$[ebp]
	mov	DWORD PTR _ram$[ebp], ecx

; 1062 : 	ram += sizeof(MODEL_VERTEX) * smodel->VertNum;

	mov	eax, DWORD PTR _smodel$[ebp]
	movsx	ecx, WORD PTR [eax+34]
	imul	ecx, 88					; 00000058H
	add	ecx, DWORD PTR _ram$[ebp]
	mov	DWORD PTR _ram$[ebp], ecx

; 1063 : 	ram += sizeof(BOMBGLOW_VERT) * smodel->VertNum;

	mov	eax, DWORD PTR _smodel$[ebp]
	movsx	ecx, WORD PTR [eax+34]
	mov	edx, DWORD PTR _ram$[ebp]
	lea	eax, DWORD PTR [edx+ecx*8]
	mov	DWORD PTR _ram$[ebp], eax

; 1064 : 
; 1065 : 	obj->Data = malloc(ram);

	push	OFFSET FLAT:??_C@_0IL@GBHCIHE@c?3?2documents?5and?5settings?2jarhea@
	mov	eax, DWORD PTR ?__LINE__Var@?1??InitBombGlow@@YAJPAUobject_def@@PAJ@Z@4JA
	add	eax, 33					; 00000021H
	push	eax
	mov	ecx, DWORD PTR _ram$[ebp]
	push	ecx
	call	?DebugMalloc@@YAPAXIHPAD@Z		; DebugMalloc
	add	esp, 12					; 0000000cH
	mov	edx, DWORD PTR _obj$[ebp]
	mov	DWORD PTR [edx+684], eax

; 1066 : 	if (!obj->Data)

	mov	eax, DWORD PTR _obj$[ebp]
	cmp	DWORD PTR [eax+684], 0
	jne	SHORT $L83430

; 1067 : 		return FALSE;

	xor	eax, eax
	jmp	$L83412
$L83430:

; 1068 : 
; 1069 : // setup bomb glow
; 1070 : 
; 1071 : 	glow = (BOMBGLOW_OBJ*)obj->Data;

	mov	eax, DWORD PTR _obj$[ebp]
	mov	ecx, DWORD PTR [eax+684]
	mov	DWORD PTR _glow$[ebp], ecx

; 1072 : 	glow->Timer = 0.0f;

	mov	eax, DWORD PTR _glow$[ebp]
	mov	DWORD PTR [eax], 0

; 1073 : 
; 1074 : // setup model
; 1075 : 
; 1076 : 	dmodel = &glow->Model;

	mov	eax, DWORD PTR _glow$[ebp]
	add	eax, 4
	mov	DWORD PTR _dmodel$[ebp], eax

; 1077 : 
; 1078 : 	memcpy(dmodel, smodel, sizeof(MODEL));

	push	60					; 0000003cH
	mov	eax, DWORD PTR _smodel$[ebp]
	push	eax
	mov	ecx, DWORD PTR _dmodel$[ebp]
	push	ecx
	call	_memcpy
	add	esp, 12					; 0000000cH

; 1079 : 	dmodel->PolyPtr = (MODEL_POLY*)(glow + 1);

	mov	eax, DWORD PTR _glow$[ebp]
	add	eax, 64					; 00000040H
	mov	ecx, DWORD PTR _dmodel$[ebp]
	mov	DWORD PTR [ecx+48], eax

; 1080 : 	dmodel->PolyRGB = (POLY_RGB*)(dmodel->PolyPtr + dmodel->PolyNum);

	mov	eax, DWORD PTR _dmodel$[ebp]
	movsx	ecx, WORD PTR [eax+32]
	imul	ecx, 52					; 00000034H
	mov	edx, DWORD PTR _dmodel$[ebp]
	add	ecx, DWORD PTR [edx+48]
	mov	eax, DWORD PTR _dmodel$[ebp]
	mov	DWORD PTR [eax+44], ecx

; 1081 : 	dmodel->VertPtr = (MODEL_VERTEX*)(dmodel->PolyRGB + dmodel->PolyNum);

	mov	eax, DWORD PTR _dmodel$[ebp]
	movsx	ecx, WORD PTR [eax+32]
	shl	ecx, 4
	mov	edx, DWORD PTR _dmodel$[ebp]
	add	ecx, DWORD PTR [edx+44]
	mov	eax, DWORD PTR _dmodel$[ebp]
	mov	DWORD PTR [eax+52], ecx

; 1082 : 
; 1083 : 	off = (long)dmodel->VertPtr - (long)smodel->VertPtr;

	mov	eax, DWORD PTR _dmodel$[ebp]
	mov	ecx, DWORD PTR _smodel$[ebp]
	mov	edx, DWORD PTR [eax+52]
	sub	edx, DWORD PTR [ecx+52]
	mov	DWORD PTR _off$[ebp], edx

; 1084 : 
; 1085 : 	for (i = 0 ; i < dmodel->PolyNum ; i++)

	mov	DWORD PTR _i$[ebp], 0
	jmp	SHORT $L83438
$L83439:
	mov	eax, DWORD PTR _i$[ebp]
	add	eax, 1
	mov	DWORD PTR _i$[ebp], eax
$L83438:
	mov	eax, DWORD PTR _dmodel$[ebp]
	movsx	ecx, WORD PTR [eax+32]
	cmp	DWORD PTR _i$[ebp], ecx
	jge	$L83440

; 1086 : 	{
; 1087 : 		dmodel->PolyPtr[i] = smodel->PolyPtr[i];

	mov	eax, DWORD PTR _i$[ebp]
	imul	eax, 52					; 00000034H
	mov	ecx, DWORD PTR _smodel$[ebp]
	mov	esi, DWORD PTR [ecx+48]
	add	esi, eax
	mov	edx, DWORD PTR _i$[ebp]
	imul	edx, 52					; 00000034H
	mov	eax, DWORD PTR _dmodel$[ebp]
	mov	edi, DWORD PTR [eax+48]
	add	edi, edx
	mov	ecx, 13					; 0000000dH
	rep movsd

; 1088 : 
; 1089 : 		dmodel->PolyPtr[i].Type |= POLY_SEMITRANS | POLY_SEMITRANS_ONE;

	mov	eax, DWORD PTR _i$[ebp]
	imul	eax, 52					; 00000034H
	mov	ecx, DWORD PTR _dmodel$[ebp]
	mov	edx, DWORD PTR [ecx+48]
	movsx	eax, WORD PTR [edx+eax]
	or	eax, 260				; 00000104H
	mov	ecx, DWORD PTR _i$[ebp]
	imul	ecx, 52					; 00000034H
	mov	edx, DWORD PTR _dmodel$[ebp]
	mov	edx, DWORD PTR [edx+48]
	mov	WORD PTR [ecx+edx], ax

; 1090 : 		dmodel->PolyPtr[i].Tpage = TPAGE_FX3;

	mov	eax, DWORD PTR _i$[ebp]
	imul	eax, 52					; 00000034H
	mov	ecx, DWORD PTR _dmodel$[ebp]
	mov	edx, DWORD PTR [ecx+48]
	mov	WORD PTR [edx+eax+2], 29		; 0000001dH

; 1091 : 
; 1092 : 		dmodel->PolyPtr[i].v0 = (MODEL_VERTEX*)((long)dmodel->PolyPtr[i].v0 + off);

	mov	eax, DWORD PTR _i$[ebp]
	imul	eax, 52					; 00000034H
	mov	ecx, DWORD PTR _dmodel$[ebp]
	mov	edx, DWORD PTR [ecx+48]
	mov	eax, DWORD PTR [edx+eax+36]
	add	eax, DWORD PTR _off$[ebp]
	mov	ecx, DWORD PTR _i$[ebp]
	imul	ecx, 52					; 00000034H
	mov	edx, DWORD PTR _dmodel$[ebp]
	mov	edx, DWORD PTR [edx+48]
	mov	DWORD PTR [edx+ecx+36], eax

; 1093 : 		dmodel->PolyPtr[i].v1 = (MODEL_VERTEX*)((long)dmodel->PolyPtr[i].v1 + off);

	mov	eax, DWORD PTR _i$[ebp]
	imul	eax, 52					; 00000034H
	mov	ecx, DWORD PTR _dmodel$[ebp]
	mov	edx, DWORD PTR [ecx+48]
	mov	eax, DWORD PTR [edx+eax+40]
	add	eax, DWORD PTR _off$[ebp]
	mov	ecx, DWORD PTR _i$[ebp]
	imul	ecx, 52					; 00000034H
	mov	edx, DWORD PTR _dmodel$[ebp]
	mov	edx, DWORD PTR [edx+48]
	mov	DWORD PTR [edx+ecx+40], eax

; 1094 : 		dmodel->PolyPtr[i].v2 = (MODEL_VERTEX*)((long)dmodel->PolyPtr[i].v2 + off);

	mov	eax, DWORD PTR _i$[ebp]
	imul	eax, 52					; 00000034H
	mov	ecx, DWORD PTR _dmodel$[ebp]
	mov	edx, DWORD PTR [ecx+48]
	mov	eax, DWORD PTR [edx+eax+44]
	add	eax, DWORD PTR _off$[ebp]
	mov	ecx, DWORD PTR _i$[ebp]
	imul	ecx, 52					; 00000034H
	mov	edx, DWORD PTR _dmodel$[ebp]
	mov	edx, DWORD PTR [edx+48]
	mov	DWORD PTR [edx+ecx+44], eax

; 1095 : 		dmodel->PolyPtr[i].v3 = (MODEL_VERTEX*)((long)dmodel->PolyPtr[i].v3 + off);

	mov	eax, DWORD PTR _i$[ebp]
	imul	eax, 52					; 00000034H
	mov	ecx, DWORD PTR _dmodel$[ebp]
	mov	edx, DWORD PTR [ecx+48]
	mov	eax, DWORD PTR [edx+eax+48]
	add	eax, DWORD PTR _off$[ebp]
	mov	ecx, DWORD PTR _i$[ebp]
	imul	ecx, 52					; 00000034H
	mov	edx, DWORD PTR _dmodel$[ebp]
	mov	edx, DWORD PTR [edx+48]
	mov	DWORD PTR [edx+ecx+48], eax

; 1096 : 
; 1097 : 		*(long*)&dmodel->PolyRGB[i].rgb[0] = 0;

	mov	eax, DWORD PTR _i$[ebp]
	shl	eax, 4
	mov	ecx, DWORD PTR _dmodel$[ebp]
	mov	edx, DWORD PTR [ecx+44]
	mov	DWORD PTR [eax+edx], 0

; 1098 : 		*(long*)&dmodel->PolyRGB[i].rgb[1] = 0;

	mov	eax, DWORD PTR _i$[ebp]
	shl	eax, 4
	mov	ecx, DWORD PTR _dmodel$[ebp]
	mov	edx, DWORD PTR [ecx+44]
	mov	DWORD PTR [edx+eax+4], 0

; 1099 : 		*(long*)&dmodel->PolyRGB[i].rgb[2] = 0;

	mov	eax, DWORD PTR _i$[ebp]
	shl	eax, 4
	mov	ecx, DWORD PTR _dmodel$[ebp]
	mov	edx, DWORD PTR [ecx+44]
	mov	DWORD PTR [edx+eax+8], 0

; 1100 : 		*(long*)&dmodel->PolyRGB[i].rgb[3] = 0;

	mov	eax, DWORD PTR _i$[ebp]
	shl	eax, 4
	mov	ecx, DWORD PTR _dmodel$[ebp]
	mov	edx, DWORD PTR [ecx+44]
	mov	DWORD PTR [edx+eax+12], 0

; 1101 : 	}

	jmp	$L83439
$L83440:

; 1102 : 
; 1103 : 	for (i = 0 ; i < dmodel->VertNum ; i++)

	mov	DWORD PTR _i$[ebp], 0
	jmp	SHORT $L83453
$L83454:
	mov	eax, DWORD PTR _i$[ebp]
	add	eax, 1
	mov	DWORD PTR _i$[ebp], eax
$L83453:
	mov	eax, DWORD PTR _dmodel$[ebp]
	movsx	ecx, WORD PTR [eax+34]
	cmp	DWORD PTR _i$[ebp], ecx
	jge	$L83455

; 1104 : 	{
; 1105 : 		dmodel->VertPtr[i] = smodel->VertPtr[i];

	mov	eax, DWORD PTR _i$[ebp]
	imul	eax, 88					; 00000058H
	mov	ecx, DWORD PTR _smodel$[ebp]
	mov	esi, DWORD PTR [ecx+52]
	add	esi, eax
	mov	edx, DWORD PTR _i$[ebp]
	imul	edx, 88					; 00000058H
	mov	eax, DWORD PTR _dmodel$[ebp]
	mov	edi, DWORD PTR [eax+52]
	add	edi, edx
	mov	ecx, 22					; 00000016H
	rep movsd

; 1106 : 
; 1107 : 		mul = 2.0f / Length((VEC*)&dmodel->VertPtr[i].x) + 1.0f;

	mov	eax, DWORD PTR _i$[ebp]
	imul	eax, 88					; 00000058H
	mov	ecx, DWORD PTR _dmodel$[ebp]
	mov	edx, DWORD PTR [ecx+52]
	mov	ecx, DWORD PTR _i$[ebp]
	imul	ecx, 88					; 00000058H
	mov	esi, DWORD PTR _dmodel$[ebp]
	mov	esi, DWORD PTR [esi+52]
	fld	DWORD PTR [edx+eax]
	fmul	DWORD PTR [esi+ecx]
	mov	edx, DWORD PTR _i$[ebp]
	imul	edx, 88					; 00000058H
	mov	eax, DWORD PTR _dmodel$[ebp]
	mov	ecx, DWORD PTR [eax+52]
	mov	eax, DWORD PTR _i$[ebp]
	imul	eax, 88					; 00000058H
	mov	esi, DWORD PTR _dmodel$[ebp]
	mov	esi, DWORD PTR [esi+52]
	fld	DWORD PTR [ecx+edx+4]
	fmul	DWORD PTR [esi+eax+4]
	faddp	ST(1), ST(0)
	mov	ecx, DWORD PTR _i$[ebp]
	imul	ecx, 88					; 00000058H
	mov	edx, DWORD PTR _dmodel$[ebp]
	mov	eax, DWORD PTR [edx+52]
	mov	edx, DWORD PTR _i$[ebp]
	imul	edx, 88					; 00000058H
	mov	esi, DWORD PTR _dmodel$[ebp]
	mov	esi, DWORD PTR [esi+52]
	fld	DWORD PTR [eax+ecx+8]
	fmul	DWORD PTR [esi+edx+8]
	faddp	ST(1), ST(0)
	push	ecx
	fstp	DWORD PTR [esp]
	call	?sqrt@@YAMM@Z				; sqrt
	add	esp, 4
	fdivr	DWORD PTR __real@40000000
	fadd	DWORD PTR __real@3f800000
	fstp	DWORD PTR _mul$[ebp]

; 1108 : 		dmodel->VertPtr[i].x *= mul;

	mov	eax, DWORD PTR _i$[ebp]
	imul	eax, 88					; 00000058H
	mov	ecx, DWORD PTR _dmodel$[ebp]
	mov	edx, DWORD PTR [ecx+52]
	fld	DWORD PTR _mul$[ebp]
	fmul	DWORD PTR [edx+eax]
	mov	eax, DWORD PTR _i$[ebp]
	imul	eax, 88					; 00000058H
	mov	ecx, DWORD PTR _dmodel$[ebp]
	mov	edx, DWORD PTR [ecx+52]
	fstp	DWORD PTR [eax+edx]

; 1109 : 		dmodel->VertPtr[i].y *= mul;

	mov	eax, DWORD PTR _i$[ebp]
	imul	eax, 88					; 00000058H
	mov	ecx, DWORD PTR _dmodel$[ebp]
	mov	edx, DWORD PTR [ecx+52]
	fld	DWORD PTR _mul$[ebp]
	fmul	DWORD PTR [edx+eax+4]
	mov	eax, DWORD PTR _i$[ebp]
	imul	eax, 88					; 00000058H
	mov	ecx, DWORD PTR _dmodel$[ebp]
	mov	edx, DWORD PTR [ecx+52]
	fstp	DWORD PTR [edx+eax+4]

; 1110 : 		dmodel->VertPtr[i].z *= mul;

	mov	eax, DWORD PTR _i$[ebp]
	imul	eax, 88					; 00000058H
	mov	ecx, DWORD PTR _dmodel$[ebp]
	mov	edx, DWORD PTR [ecx+52]
	fld	DWORD PTR _mul$[ebp]
	fmul	DWORD PTR [edx+eax+8]
	mov	eax, DWORD PTR _i$[ebp]
	imul	eax, 88					; 00000058H
	mov	ecx, DWORD PTR _dmodel$[ebp]
	mov	edx, DWORD PTR [ecx+52]
	fstp	DWORD PTR [edx+eax+8]

; 1111 : 	}

	jmp	$L83454
$L83455:

; 1112 : 
; 1113 : // setup glow verts
; 1114 : 
; 1115 : 	gvert = (BOMBGLOW_VERT*)(dmodel->VertPtr + dmodel->VertNum);

	mov	eax, DWORD PTR _dmodel$[ebp]
	movsx	ecx, WORD PTR [eax+34]
	imul	ecx, 88					; 00000058H
	mov	edx, DWORD PTR _dmodel$[ebp]
	add	ecx, DWORD PTR [edx+52]
	mov	DWORD PTR _gvert$[ebp], ecx

; 1116 : 	for (i = 0 ; i < dmodel->VertNum ; i++)

	mov	DWORD PTR _i$[ebp], 0
	jmp	SHORT $L83464
$L83465:
	mov	eax, DWORD PTR _i$[ebp]
	add	eax, 1
	mov	DWORD PTR _i$[ebp], eax
$L83464:
	mov	eax, DWORD PTR _dmodel$[ebp]
	movsx	ecx, WORD PTR [eax+34]
	cmp	DWORD PTR _i$[ebp], ecx
	jge	SHORT $L83466

; 1117 : 	{
; 1118 : 		gvert[i].Time = frand(RAD);

	call	_rand
	mov	DWORD PTR tv514[ebp], eax
	fild	DWORD PTR tv514[ebp]
	fdiv	DWORD PTR __real@46fffe00
	fmul	DWORD PTR __real@40c90fdb
	mov	eax, DWORD PTR _i$[ebp]
	mov	ecx, DWORD PTR _gvert$[ebp]
	fstp	DWORD PTR [ecx+eax*8]

; 1119 : 		gvert[i].TimeAdd = frand(5.0f) + 1.0f;

	call	_rand
	mov	DWORD PTR tv518[ebp], eax
	fild	DWORD PTR tv518[ebp]
	fdiv	DWORD PTR __real@46fffe00
	fmul	DWORD PTR __real@40a00000
	fadd	DWORD PTR __real@3f800000
	mov	eax, DWORD PTR _i$[ebp]
	mov	ecx, DWORD PTR _gvert$[ebp]
	fstp	DWORD PTR [ecx+eax*8+4]

; 1120 : 		if (rand() & 1) gvert[i].TimeAdd = -gvert[i].TimeAdd;

	call	_rand
	and	eax, 1
	je	SHORT $L83469
	mov	eax, DWORD PTR _i$[ebp]
	mov	ecx, DWORD PTR _gvert$[ebp]
	fld	DWORD PTR [ecx+eax*8+4]
	fchs
	mov	edx, DWORD PTR _i$[ebp]
	mov	eax, DWORD PTR _gvert$[ebp]
	fstp	DWORD PTR [eax+edx*8+4]
$L83469:

; 1121 : 	}

	jmp	SHORT $L83465
$L83466:

; 1122 : 
; 1123 : // return OK
; 1124 : 
; 1125 : 	return TRUE;

	mov	eax, 1
$L83412:

; 1126 : }

	pop	edi
	pop	esi
	pop	ebx
	mov	esp, ebp
	pop	ebp
	ret	0
?InitBombGlow@@YAJPAUobject_def@@PAJ@Z ENDP		; InitBombGlow
_TEXT	ENDS
PUBLIC	__real@43480000
PUBLIC	__real@4b000000
PUBLIC	__real@3ba3d70a
PUBLIC	__real@3f000000
PUBLIC	__real@42800000
PUBLIC	__real@3dcccccd
PUBLIC	__real@3e800000
PUBLIC	__real@453b8000
PUBLIC	__real@40400000
PUBLIC	__real@44000000
PUBLIC	__real@45800000
PUBLIC	?ShockwaveWorldMeshFxChecker@@YAXPAX@Z		; ShockwaveWorldMeshFxChecker
PUBLIC	?ShockwaveModelMeshFxChecker@@YAXPAX@Z		; ShockwaveModelMeshFxChecker
EXTRN	?AddWorldMeshFx@@YAXP6AXPAX@Z0@Z:NEAR		; AddWorldMeshFx
EXTRN	?AddModelMeshFx@@YAXP6AXPAX@Z0@Z:NEAR		; AddModelMeshFx
EXTRN	?FreeSfx3D@@YAXPAUSAMPLE_3D@@@Z:NEAR		; FreeSfx3D
EXTRN	?OBJ_FreeObject@@YAJPAUobject_def@@@Z:NEAR	; OBJ_FreeObject
EXTRN	?CreateSpark@@YA_NW4SparkTypeEnum@@PAUVectorStruct@@1M_K@Z:NEAR ; CreateSpark
EXTRN	?RemoveField@@YAXPAUForceFieldStruct@@@Z:NEAR	; RemoveField
EXTRN	?TimeStep@@3MA:DWORD				; TimeStep
;	COMDAT __real@43480000
CONST	SEGMENT
__real@43480000 DD 043480000r			; 200
CONST	ENDS
;	COMDAT __real@4b000000
CONST	SEGMENT
__real@4b000000 DD 04b000000r			; 8.38861e+006
CONST	ENDS
;	COMDAT __real@3ba3d70a
CONST	SEGMENT
__real@3ba3d70a DD 03ba3d70ar			; 0.005
CONST	ENDS
;	COMDAT __real@3f000000
CONST	SEGMENT
__real@3f000000 DD 03f000000r			; 0.5
CONST	ENDS
;	COMDAT __real@42800000
CONST	SEGMENT
__real@42800000 DD 042800000r			; 64
CONST	ENDS
;	COMDAT __real@3dcccccd
CONST	SEGMENT
__real@3dcccccd DD 03dcccccdr			; 0.1
CONST	ENDS
;	COMDAT __real@3e800000
CONST	SEGMENT
__real@3e800000 DD 03e800000r			; 0.25
CONST	ENDS
;	COMDAT __real@453b8000
CONST	SEGMENT
__real@453b8000 DD 0453b8000r			; 3000
CONST	ENDS
;	COMDAT __real@40400000
CONST	SEGMENT
__real@40400000 DD 040400000r			; 3
CONST	ENDS
;	COMDAT __real@44000000
CONST	SEGMENT
__real@44000000 DD 044000000r			; 512
CONST	ENDS
;	COMDAT __real@45800000
CONST	SEGMENT
__real@45800000 DD 045800000r			; 4096
; Function compile flags: /Odt /ZI
CONST	ENDS
;	COMDAT ?ShockwaveHandler@@YAXPAUobject_def@@@Z
_TEXT	SEGMENT
tv552 = -144						; size = 4
tv547 = -140						; size = 4
tv545 = -140						; size = 4
tv543 = -140						; size = 4
tv541 = -140						; size = 4
tv453 = -140						; size = 4
tv451 = -140						; size = 4
__temp$83511 = -72					; size = 4
__temp$83483 = -68					; size = 4
_count$ = -64						; size = 4
_i$ = -60						; size = 4
_mul$ = -56						; size = 4
_vec4$ = -52						; size = 12
_vec3$ = -40						; size = 12
_vec2$ = -28						; size = 12
_vec$ = -16						; size = 12
_shockwave$ = -4					; size = 4
_obj$ = 8						; size = 4
?ShockwaveHandler@@YAXPAUobject_def@@@Z PROC NEAR	; ShockwaveHandler, COMDAT

; 1133 : {

	push	ebp
	mov	ebp, esp
	sub	esp, 144				; 00000090H
	push	ebx
	push	esi
	push	edi

; 1134 : 	SHOCKWAVE_OBJ *shockwave = (SHOCKWAVE_OBJ*)obj->Data;

	mov	eax, DWORD PTR _obj$[ebp]
	mov	ecx, DWORD PTR [eax+684]
	mov	DWORD PTR _shockwave$[ebp], ecx

; 1135 : 	VEC vec, vec2, vec3, vec4;
; 1136 : 	REAL mul;
; 1137 : 	long i, count;
; 1138 : 
; 1139 : // alive?
; 1140 : 
; 1141 : 	if (shockwave->Alive)

	mov	eax, DWORD PTR _shockwave$[ebp]
	cmp	DWORD PTR [eax], 0
	je	$L83482

; 1142 : 	{
; 1143 : 
; 1144 : // inc age
; 1145 : 
; 1146 : 		shockwave->Age += TimeStep;

	mov	eax, DWORD PTR _shockwave$[ebp]
	fld	DWORD PTR ?TimeStep@@3MA		; TimeStep
	fadd	DWORD PTR [eax+4]
	mov	ecx, DWORD PTR _shockwave$[ebp]
	fstp	DWORD PTR [ecx+4]

; 1147 : 
; 1148 : // create particles
; 1149 : 
; 1150 : 		FTOL(TimeStep * 200.0f, count);

	fld	DWORD PTR ?TimeStep@@3MA		; TimeStep
	fmul	DWORD PTR __real@43480000
	fadd	DWORD PTR __real@4b000000
	fstp	DWORD PTR __temp$83483[ebp]
	mov	eax, DWORD PTR __temp$83483[ebp]
	and	eax, 16777215				; 00ffffffH
	mov	DWORD PTR _count$[ebp], eax

; 1151 : 		CopyVec(&obj->body.Centre.Pos, &vec3);

	mov	eax, DWORD PTR _obj$[ebp]
	mov	ecx, DWORD PTR [eax+20]
	mov	DWORD PTR _vec3$[ebp], ecx
	mov	eax, DWORD PTR _obj$[ebp]
	mov	ecx, DWORD PTR [eax+24]
	mov	DWORD PTR _vec3$[ebp+4], ecx
	mov	eax, DWORD PTR _obj$[ebp]
	mov	ecx, DWORD PTR [eax+28]
	mov	DWORD PTR _vec3$[ebp+8], ecx

; 1152 : 		VecEqScalarVec(&vec4, 1.0f / 200.0f, &obj->body.Centre.Vel);

	mov	eax, DWORD PTR _obj$[ebp]
	fld	DWORD PTR __real@3ba3d70a
	fmul	DWORD PTR [eax+32]
	fstp	DWORD PTR _vec4$[ebp]
	mov	eax, DWORD PTR _obj$[ebp]
	fld	DWORD PTR __real@3ba3d70a
	fmul	DWORD PTR [eax+36]
	fstp	DWORD PTR _vec4$[ebp+4]
	mov	eax, DWORD PTR _obj$[ebp]
	fld	DWORD PTR __real@3ba3d70a
	fmul	DWORD PTR [eax+40]
	fstp	DWORD PTR _vec4$[ebp+8]

; 1153 : 
; 1154 : 		for (i = 0 ; i < count ; i++)

	mov	DWORD PTR _i$[ebp], 0
	jmp	SHORT $L83486
$L83487:
	mov	eax, DWORD PTR _i$[ebp]
	add	eax, 1
	mov	DWORD PTR _i$[ebp], eax
$L83486:
	mov	eax, DWORD PTR _i$[ebp]
	cmp	eax, DWORD PTR _count$[ebp]
	jge	$L83488

; 1155 : 		{
; 1156 : 			SetVector(&vec, frand(1.0f) - 0.5f, frand(1.0f) - 0.5f, 0.0f);

	call	_rand
	mov	DWORD PTR tv451[ebp], eax
	fild	DWORD PTR tv451[ebp]
	fdiv	DWORD PTR __real@46fffe00
	fmul	DWORD PTR __real@3f800000
	fsub	DWORD PTR __real@3f000000
	fstp	DWORD PTR _vec$[ebp]
	call	_rand
	mov	DWORD PTR tv453[ebp], eax
	fild	DWORD PTR tv453[ebp]
	fdiv	DWORD PTR __real@46fffe00
	fmul	DWORD PTR __real@3f800000
	fsub	DWORD PTR __real@3f000000
	fstp	DWORD PTR _vec$[ebp+4]
	mov	DWORD PTR _vec$[ebp+8], 0

; 1157 : 			mul = 64.0f / Length(&vec);

	fld	DWORD PTR _vec$[ebp]
	fmul	DWORD PTR _vec$[ebp]
	fld	DWORD PTR _vec$[ebp+4]
	fmul	DWORD PTR _vec$[ebp+4]
	faddp	ST(1), ST(0)
	fld	DWORD PTR _vec$[ebp+8]
	fmul	DWORD PTR _vec$[ebp+8]
	faddp	ST(1), ST(0)
	push	ecx
	fstp	DWORD PTR [esp]
	call	?sqrt@@YAMM@Z				; sqrt
	add	esp, 4
	fdivr	DWORD PTR __real@42800000
	fstp	DWORD PTR _mul$[ebp]

; 1158 : 			VecMulScalar(&vec, mul);

	fld	DWORD PTR _vec$[ebp]
	fmul	DWORD PTR _mul$[ebp]
	fstp	DWORD PTR _vec$[ebp]
	fld	DWORD PTR _vec$[ebp+4]
	fmul	DWORD PTR _mul$[ebp]
	fstp	DWORD PTR _vec$[ebp+4]
	fld	DWORD PTR _vec$[ebp+8]
	fmul	DWORD PTR _mul$[ebp]
	fstp	DWORD PTR _vec$[ebp+8]

; 1159 : 			RotVector(&obj->body.Centre.WMatrix, &vec, &vec2);

	lea	eax, DWORD PTR _vec2$[ebp]
	push	eax
	lea	ecx, DWORD PTR _vec$[ebp]
	push	ecx
	mov	edx, DWORD PTR _obj$[ebp]
	add	edx, 100				; 00000064H
	push	edx
	call	?RotVector@@YAXPATMatrixUnion@@PAUVectorStruct@@1@Z ; RotVector
	add	esp, 12					; 0000000cH

; 1160 : 			VecPlusScalarVec(&vec3, 0.1f, &vec2, &vec);

	fld	DWORD PTR __real@3dcccccd
	fmul	DWORD PTR _vec2$[ebp]
	fadd	DWORD PTR _vec3$[ebp]
	fstp	DWORD PTR _vec$[ebp]
	fld	DWORD PTR __real@3dcccccd
	fmul	DWORD PTR _vec2$[ebp+4]
	fadd	DWORD PTR _vec3$[ebp+4]
	fstp	DWORD PTR _vec$[ebp+4]
	fld	DWORD PTR __real@3dcccccd
	fmul	DWORD PTR _vec2$[ebp+8]
	fadd	DWORD PTR _vec3$[ebp+8]
	fstp	DWORD PTR _vec$[ebp+8]

; 1161 : 			CreateSpark(SPARK_BLUE, &vec, &vec2, 0.0f, 0);

	push	0
	push	0
	push	0
	lea	eax, DWORD PTR _vec2$[ebp]
	push	eax
	lea	ecx, DWORD PTR _vec$[ebp]
	push	ecx
	push	13					; 0000000dH
	call	?CreateSpark@@YA_NW4SparkTypeEnum@@PAUVectorStruct@@1M_K@Z ; CreateSpark
	add	esp, 24					; 00000018H

; 1162 : 
; 1163 : 			AddVector(&vec3, &vec4, &vec3);

	fld	DWORD PTR _vec3$[ebp]
	fadd	DWORD PTR _vec4$[ebp]
	fstp	DWORD PTR _vec3$[ebp]
	fld	DWORD PTR _vec3$[ebp+4]
	fadd	DWORD PTR _vec4$[ebp+4]
	fstp	DWORD PTR _vec3$[ebp+4]
	fld	DWORD PTR _vec3$[ebp+8]
	fadd	DWORD PTR _vec4$[ebp+8]
	fstp	DWORD PTR _vec3$[ebp+8]

; 1164 : 		}

	jmp	$L83487
$L83488:

; 1165 : 
; 1166 : // maintain light
; 1167 : 
; 1168 : 		if (obj->Light)

	mov	eax, DWORD PTR _obj$[ebp]
	cmp	DWORD PTR [eax+672], 0
	je	SHORT $L83492

; 1169 : 		{
; 1170 : 			obj->Light->x = obj->body.Centre.Pos.v[X];

	mov	eax, DWORD PTR _obj$[ebp]
	mov	ecx, DWORD PTR [eax+672]
	mov	edx, DWORD PTR _obj$[ebp]
	mov	eax, DWORD PTR [edx+20]
	mov	DWORD PTR [ecx], eax

; 1171 : 			obj->Light->y = obj->body.Centre.Pos.v[Y];

	mov	eax, DWORD PTR _obj$[ebp]
	mov	ecx, DWORD PTR [eax+672]
	mov	edx, DWORD PTR _obj$[ebp]
	mov	eax, DWORD PTR [edx+24]
	mov	DWORD PTR [ecx+4], eax

; 1172 : 			obj->Light->z = obj->body.Centre.Pos.v[Z];

	mov	eax, DWORD PTR _obj$[ebp]
	mov	ecx, DWORD PTR [eax+672]
	mov	edx, DWORD PTR _obj$[ebp]
	mov	eax, DWORD PTR [edx+28]
	mov	DWORD PTR [ecx+8], eax
$L83492:

; 1173 : 		}
; 1174 : 
; 1175 : // maintain sfx
; 1176 : 
; 1177 : 		if (obj->Sfx3D)

	mov	eax, DWORD PTR _obj$[ebp]
	cmp	DWORD PTR [eax+680], 0
	je	SHORT $L83493

; 1178 : 		{
; 1179 : 			CopyVec(&obj->body.Centre.Pos, &obj->Sfx3D->Pos);

	mov	eax, DWORD PTR _obj$[ebp]
	mov	ecx, DWORD PTR [eax+680]
	mov	edx, DWORD PTR _obj$[ebp]
	mov	eax, DWORD PTR [edx+20]
	mov	DWORD PTR [ecx+28], eax
	mov	eax, DWORD PTR _obj$[ebp]
	mov	ecx, DWORD PTR [eax+680]
	mov	edx, DWORD PTR _obj$[ebp]
	mov	eax, DWORD PTR [edx+24]
	mov	DWORD PTR [ecx+32], eax
	mov	eax, DWORD PTR _obj$[ebp]
	mov	ecx, DWORD PTR [eax+680]
	mov	edx, DWORD PTR _obj$[ebp]
	mov	eax, DWORD PTR [edx+28]
	mov	DWORD PTR [ecx+36], eax
$L83493:

; 1180 : 		}
; 1181 : 
; 1182 : // stuck?
; 1183 : 
; 1184 : 		if (shockwave->Age > 0.25f)

	mov	eax, DWORD PTR _shockwave$[ebp]
	fld	DWORD PTR [eax+4]
	fcomp	DWORD PTR __real@3e800000
	fnstsw	ax
	test	ah, 65					; 00000041H
	jne	SHORT $L83494

; 1185 : 		{
; 1186 : 			SubVector(&obj->body.Centre.Pos, &shockwave->OldPos, &vec);

	mov	eax, DWORD PTR _obj$[ebp]
	mov	ecx, DWORD PTR _shockwave$[ebp]
	fld	DWORD PTR [eax+20]
	fsub	DWORD PTR [ecx+12]
	fstp	DWORD PTR _vec$[ebp]
	mov	eax, DWORD PTR _obj$[ebp]
	mov	ecx, DWORD PTR _shockwave$[ebp]
	fld	DWORD PTR [eax+24]
	fsub	DWORD PTR [ecx+16]
	fstp	DWORD PTR _vec$[ebp+4]
	mov	eax, DWORD PTR _obj$[ebp]
	mov	ecx, DWORD PTR _shockwave$[ebp]
	fld	DWORD PTR [eax+28]
	fsub	DWORD PTR [ecx+20]
	fstp	DWORD PTR _vec$[ebp+8]

; 1187 : 			if (Length(&vec) / TimeStep < SHOCKWAVE_MIN_VEL)

	fld	DWORD PTR _vec$[ebp]
	fmul	DWORD PTR _vec$[ebp]
	fld	DWORD PTR _vec$[ebp+4]
	fmul	DWORD PTR _vec$[ebp+4]
	faddp	ST(1), ST(0)
	fld	DWORD PTR _vec$[ebp+8]
	fmul	DWORD PTR _vec$[ebp+8]
	faddp	ST(1), ST(0)
	push	ecx
	fstp	DWORD PTR [esp]
	call	?sqrt@@YAMM@Z				; sqrt
	add	esp, 4
	fdiv	DWORD PTR ?TimeStep@@3MA		; TimeStep
	fcomp	DWORD PTR __real@453b8000
	fnstsw	ax
	test	ah, 5
	jp	SHORT $L83494

; 1188 : 				shockwave->Age = SHOCKWAVE_MAX_AGE;

	mov	eax, DWORD PTR _shockwave$[ebp]
	mov	DWORD PTR [eax+4], 1073741824		; 40000000H
$L83494:

; 1189 : 		}
; 1190 : 
; 1191 : 		CopyVec(&obj->body.Centre.Pos, &shockwave->OldPos);

	mov	eax, DWORD PTR _shockwave$[ebp]
	mov	ecx, DWORD PTR _obj$[ebp]
	mov	edx, DWORD PTR [ecx+20]
	mov	DWORD PTR [eax+12], edx
	mov	eax, DWORD PTR _shockwave$[ebp]
	mov	ecx, DWORD PTR _obj$[ebp]
	mov	edx, DWORD PTR [ecx+24]
	mov	DWORD PTR [eax+16], edx
	mov	eax, DWORD PTR _shockwave$[ebp]
	mov	ecx, DWORD PTR _obj$[ebp]
	mov	edx, DWORD PTR [ecx+28]
	mov	DWORD PTR [eax+20], edx

; 1192 : 
; 1193 : // kill?
; 1194 : 
; 1195 : 		if (shockwave->Age >= SHOCKWAVE_MAX_AGE)

	mov	eax, DWORD PTR _shockwave$[ebp]
	fld	DWORD PTR [eax+4]
	fcomp	DWORD PTR __real@40000000
	fnstsw	ax
	test	ah, 1
	jne	$L83497

; 1196 : 		{
; 1197 : 			shockwave->Alive = FALSE;

	mov	eax, DWORD PTR _shockwave$[ebp]
	mov	DWORD PTR [eax], 0

; 1198 : 
; 1199 : 			if (obj->Sfx3D)

	mov	eax, DWORD PTR _obj$[ebp]
	cmp	DWORD PTR [eax+680], 0
	je	SHORT $L83498

; 1200 : 				FreeSfx3D(obj->Sfx3D);

	mov	eax, DWORD PTR _obj$[ebp]
	mov	ecx, DWORD PTR [eax+680]
	push	ecx
	call	?FreeSfx3D@@YAXPAUSAMPLE_3D@@@Z		; FreeSfx3D
	add	esp, 4
$L83498:

; 1201 : 
; 1202 : 			if (obj->Field)

	mov	eax, DWORD PTR _obj$[ebp]
	cmp	DWORD PTR [eax+664], 0
	je	SHORT $L83499

; 1203 : 			{
; 1204 : 				RemoveField(obj->Field);

	mov	eax, DWORD PTR _obj$[ebp]
	mov	ecx, DWORD PTR [eax+664]
	push	ecx
	call	?RemoveField@@YAXPAUForceFieldStruct@@@Z ; RemoveField
	add	esp, 4

; 1205 : 				obj->Field = NULL;

	mov	eax, DWORD PTR _obj$[ebp]
	mov	DWORD PTR [eax+664], 0
$L83499:

; 1206 : 			}
; 1207 : 
; 1208 : 			for (i = 0 ; i < 128 ; i++)

	mov	DWORD PTR _i$[ebp], 0
	jmp	SHORT $L83500
$L83501:
	mov	eax, DWORD PTR _i$[ebp]
	add	eax, 1
	mov	DWORD PTR _i$[ebp], eax
$L83500:
	cmp	DWORD PTR _i$[ebp], 128			; 00000080H
	jge	$L83497

; 1209 : 			{
; 1210 : 				SetVector(&vec, frand(2.0f) - 1.0f, -frand(3.0f), frand(2.0f) - 1.0f);

	call	_rand
	mov	DWORD PTR tv541[ebp], eax
	fild	DWORD PTR tv541[ebp]
	fdiv	DWORD PTR __real@46fffe00
	fadd	ST(0), ST(0)
	fsub	DWORD PTR __real@3f800000
	fstp	DWORD PTR _vec$[ebp]
	call	_rand
	mov	DWORD PTR tv543[ebp], eax
	fild	DWORD PTR tv543[ebp]
	fdiv	DWORD PTR __real@46fffe00
	fmul	DWORD PTR __real@40400000
	fchs
	fstp	DWORD PTR _vec$[ebp+4]
	call	_rand
	mov	DWORD PTR tv545[ebp], eax
	fild	DWORD PTR tv545[ebp]
	fdiv	DWORD PTR __real@46fffe00
	fadd	ST(0), ST(0)
	fsub	DWORD PTR __real@3f800000
	fstp	DWORD PTR _vec$[ebp+8]

; 1211 : 				mul = (frand(512.0f) + 512.0f) / Length(&vec);

	call	_rand
	mov	DWORD PTR tv547[ebp], eax
	fild	DWORD PTR tv547[ebp]
	fdiv	DWORD PTR __real@46fffe00
	fmul	DWORD PTR __real@44000000
	fadd	DWORD PTR __real@44000000
	fstp	DWORD PTR tv552[ebp]
	fld	DWORD PTR _vec$[ebp]
	fmul	DWORD PTR _vec$[ebp]
	fld	DWORD PTR _vec$[ebp+4]
	fmul	DWORD PTR _vec$[ebp+4]
	faddp	ST(1), ST(0)
	fld	DWORD PTR _vec$[ebp+8]
	fmul	DWORD PTR _vec$[ebp+8]
	faddp	ST(1), ST(0)
	push	ecx
	fstp	DWORD PTR [esp]
	call	?sqrt@@YAMM@Z				; sqrt
	add	esp, 4
	fdivr	DWORD PTR tv552[ebp]
	fstp	DWORD PTR _mul$[ebp]

; 1212 : 				VecMulScalar(&vec, mul);

	fld	DWORD PTR _vec$[ebp]
	fmul	DWORD PTR _mul$[ebp]
	fstp	DWORD PTR _vec$[ebp]
	fld	DWORD PTR _vec$[ebp+4]
	fmul	DWORD PTR _mul$[ebp]
	fstp	DWORD PTR _vec$[ebp+4]
	fld	DWORD PTR _vec$[ebp+8]
	fmul	DWORD PTR _mul$[ebp]
	fstp	DWORD PTR _vec$[ebp+8]

; 1213 : 				CreateSpark(SPARK_BIGBLUE, &obj->body.Centre.Pos, &vec, 0.0f, 0);

	push	0
	push	0
	push	0
	lea	eax, DWORD PTR _vec$[ebp]
	push	eax
	mov	ecx, DWORD PTR _obj$[ebp]
	add	ecx, 20					; 00000014H
	push	ecx
	push	14					; 0000000eH
	call	?CreateSpark@@YA_NW4SparkTypeEnum@@PAUVectorStruct@@1M_K@Z ; CreateSpark
	add	esp, 24					; 00000018H

; 1214 : 			}

	jmp	$L83501
$L83497:

; 1215 : 		}
; 1216 : 	}
; 1217 : 
; 1218 : // dying
; 1219 : 
; 1220 : 	else

	jmp	SHORT $L83508
$L83482:

; 1221 : 	{
; 1222 : 		shockwave->Reach -= TimeStep * 4096;

	fld	DWORD PTR ?TimeStep@@3MA		; TimeStep
	fmul	DWORD PTR __real@45800000
	mov	eax, DWORD PTR _shockwave$[ebp]
	fsubr	DWORD PTR [eax+8]
	mov	ecx, DWORD PTR _shockwave$[ebp]
	fstp	DWORD PTR [ecx+8]

; 1223 : 		if (shockwave->Reach < 0)

	mov	eax, DWORD PTR _shockwave$[ebp]
	fld	DWORD PTR [eax+8]
	fcomp	DWORD PTR __real@00000000
	fnstsw	ax
	test	ah, 5
	jp	SHORT $L83509

; 1224 : 		{
; 1225 : 			OBJ_FreeObject(obj);

	mov	eax, DWORD PTR _obj$[ebp]
	push	eax
	call	?OBJ_FreeObject@@YAJPAUobject_def@@@Z	; OBJ_FreeObject
	add	esp, 4

; 1226 : 			return;

	jmp	$L83472
$L83509:

; 1227 : 		}
; 1228 : 
; 1229 : 		if (obj->Light)

	mov	eax, DWORD PTR _obj$[ebp]
	cmp	DWORD PTR [eax+672], 0
	je	SHORT $L83508

; 1230 : 		{
; 1231 : 			FTOL(shockwave->Reach / 8.0f, obj->Light->b);

	mov	eax, DWORD PTR _shockwave$[ebp]
	fld	DWORD PTR [eax+8]
	fdiv	DWORD PTR __real@41000000
	fadd	DWORD PTR __real@4b000000
	fstp	DWORD PTR __temp$83511[ebp]
	mov	eax, DWORD PTR __temp$83511[ebp]
	and	eax, 16777215				; 00ffffffH
	mov	ecx, DWORD PTR _obj$[ebp]
	mov	edx, DWORD PTR [ecx+672]
	mov	DWORD PTR [edx+96], eax
$L83508:

; 1232 : 		}
; 1233 : 	}	
; 1234 : 
; 1235 : // set bounding box + add to mesh fx lists
; 1236 : 
; 1237 : 	SetBBox(&shockwave->Box,
; 1238 : 		obj->body.Centre.Pos.v[X] - shockwave->Reach,
; 1239 : 		obj->body.Centre.Pos.v[X] + shockwave->Reach,
; 1240 : 		obj->body.Centre.Pos.v[Y] - shockwave->Reach,
; 1241 : 		obj->body.Centre.Pos.v[Y] + shockwave->Reach,
; 1242 : 		obj->body.Centre.Pos.v[Z] - shockwave->Reach,
; 1243 : 		obj->body.Centre.Pos.v[Z] + shockwave->Reach);

	mov	eax, DWORD PTR _obj$[ebp]
	mov	ecx, DWORD PTR _shockwave$[ebp]
	fld	DWORD PTR [eax+20]
	fsub	DWORD PTR [ecx+8]
	mov	edx, DWORD PTR _shockwave$[ebp]
	fstp	DWORD PTR [edx+24]
	mov	eax, DWORD PTR _obj$[ebp]
	mov	ecx, DWORD PTR _shockwave$[ebp]
	fld	DWORD PTR [eax+20]
	fadd	DWORD PTR [ecx+8]
	mov	edx, DWORD PTR _shockwave$[ebp]
	fstp	DWORD PTR [edx+28]
	mov	eax, DWORD PTR _obj$[ebp]
	mov	ecx, DWORD PTR _shockwave$[ebp]
	fld	DWORD PTR [eax+24]
	fsub	DWORD PTR [ecx+8]
	mov	edx, DWORD PTR _shockwave$[ebp]
	fstp	DWORD PTR [edx+32]
	mov	eax, DWORD PTR _obj$[ebp]
	mov	ecx, DWORD PTR _shockwave$[ebp]
	fld	DWORD PTR [eax+24]
	fadd	DWORD PTR [ecx+8]
	mov	edx, DWORD PTR _shockwave$[ebp]
	fstp	DWORD PTR [edx+36]
	mov	eax, DWORD PTR _obj$[ebp]
	mov	ecx, DWORD PTR _shockwave$[ebp]
	fld	DWORD PTR [eax+28]
	fsub	DWORD PTR [ecx+8]
	mov	edx, DWORD PTR _shockwave$[ebp]
	fstp	DWORD PTR [edx+40]
	mov	eax, DWORD PTR _obj$[ebp]
	mov	ecx, DWORD PTR _shockwave$[ebp]
	fld	DWORD PTR [eax+28]
	fadd	DWORD PTR [ecx+8]
	mov	edx, DWORD PTR _shockwave$[ebp]
	fstp	DWORD PTR [edx+44]

; 1244 : 
; 1245 : 	AddWorldMeshFx(ShockwaveWorldMeshFxChecker, obj);

	mov	eax, DWORD PTR _obj$[ebp]
	push	eax
	push	OFFSET FLAT:?ShockwaveWorldMeshFxChecker@@YAXPAX@Z ; ShockwaveWorldMeshFxChecker
	call	?AddWorldMeshFx@@YAXP6AXPAX@Z0@Z	; AddWorldMeshFx
	add	esp, 8

; 1246 : 	AddModelMeshFx(ShockwaveModelMeshFxChecker, obj);

	mov	eax, DWORD PTR _obj$[ebp]
	push	eax
	push	OFFSET FLAT:?ShockwaveModelMeshFxChecker@@YAXPAX@Z ; ShockwaveModelMeshFxChecker
	call	?AddModelMeshFx@@YAXP6AXPAX@Z0@Z	; AddModelMeshFx
	add	esp, 8
$L83472:

; 1247 : }

	pop	edi
	pop	esi
	pop	ebx
	mov	esp, ebp
	pop	ebp
	ret	0
?ShockwaveHandler@@YAXPAUobject_def@@@Z ENDP		; ShockwaveHandler
_TEXT	ENDS
PUBLIC	?FireWorkMove@@YAXPAUobject_def@@@Z		; FireWorkMove
PUBLIC	?FireworkExplode@@YAXPAUobject_def@@@Z		; FireworkExplode
PUBLIC	__real@3f99999a
PUBLIC	__real@4000000000000000
PUBLIC	__real@42000000
PUBLIC	__real@43000000
PUBLIC	__real@3fe999999999999a
EXTRN	__ftol2:NEAR
;	COMDAT __real@3f99999a
CONST	SEGMENT
__real@3f99999a DD 03f99999ar			; 1.2
CONST	ENDS
;	COMDAT __real@4000000000000000
CONST	SEGMENT
__real@4000000000000000 DQ 04000000000000000r	; 2
CONST	ENDS
;	COMDAT __real@42000000
CONST	SEGMENT
__real@42000000 DD 042000000r			; 32
CONST	ENDS
;	COMDAT __real@43000000
CONST	SEGMENT
__real@43000000 DD 043000000r			; 128
CONST	ENDS
;	COMDAT __real@3fe999999999999a
CONST	SEGMENT
__real@3fe999999999999a DQ 03fe999999999999ar	; 0.8
; Function compile flags: /Odt /ZI
CONST	ENDS
;	COMDAT ?FireworkHandler@@YAXPAUobject_def@@@Z
_TEXT	SEGMENT
tv215 = -72						; size = 4
_firework$ = -4						; size = 4
_obj$ = 8						; size = 4
?FireworkHandler@@YAXPAUobject_def@@@Z PROC NEAR	; FireworkHandler, COMDAT

; 1254 : {

	push	ebp
	mov	ebp, esp
	sub	esp, 72					; 00000048H
	push	ebx
	push	esi
	push	edi

; 1255 : 	FIREWORK_OBJ *firework = (FIREWORK_OBJ *)obj->Data;

	mov	eax, DWORD PTR _obj$[ebp]
	mov	ecx, DWORD PTR [eax+684]
	mov	DWORD PTR _firework$[ebp], ecx

; 1256 : 
; 1257 : 	// maintain sfx
; 1258 : 	if (obj->Sfx3D)

	mov	eax, DWORD PTR _obj$[ebp]
	cmp	DWORD PTR [eax+680], 0
	je	SHORT $L83519

; 1259 : 	{
; 1260 : 		CopyVec(&obj->body.Centre.Pos, &obj->Sfx3D->Pos);

	mov	eax, DWORD PTR _obj$[ebp]
	mov	ecx, DWORD PTR [eax+680]
	mov	edx, DWORD PTR _obj$[ebp]
	mov	eax, DWORD PTR [edx+20]
	mov	DWORD PTR [ecx+28], eax
	mov	eax, DWORD PTR _obj$[ebp]
	mov	ecx, DWORD PTR [eax+680]
	mov	edx, DWORD PTR _obj$[ebp]
	mov	eax, DWORD PTR [edx+24]
	mov	DWORD PTR [ecx+32], eax
	mov	eax, DWORD PTR _obj$[ebp]
	mov	ecx, DWORD PTR [eax+680]
	mov	edx, DWORD PTR _obj$[ebp]
	mov	eax, DWORD PTR [edx+28]
	mov	DWORD PTR [ecx+36], eax
$L83519:

; 1261 : 	}
; 1262 : 
; 1263 : 	// check age of firework
; 1264 : 	firework->Age += TimeStep;

	mov	eax, DWORD PTR _firework$[ebp]
	fld	DWORD PTR ?TimeStep@@3MA		; TimeStep
	fadd	DWORD PTR [eax+8]
	mov	ecx, DWORD PTR _firework$[ebp]
	fstp	DWORD PTR [ecx+8]

; 1265 : 
; 1266 : 	// Move or set up explosion
; 1267 : 	if (firework->Age < MAX_FIREWORK_AGE) {

	mov	eax, DWORD PTR _firework$[ebp]
	fld	DWORD PTR [eax+8]
	fcomp	DWORD PTR __real@3f99999a
	fnstsw	ax
	test	ah, 5
	jp	SHORT $L83521

; 1268 : 		// Move firework
; 1269 : 		FireWorkMove(obj);

	mov	eax, DWORD PTR _obj$[ebp]
	push	eax
	call	?FireWorkMove@@YAXPAUobject_def@@@Z	; FireWorkMove
	add	esp, 4

; 1270 : 	} else {

	jmp	$L83516
$L83521:

; 1271 : 		if (!firework->Exploded) {

	mov	eax, DWORD PTR _firework$[ebp]
	movzx	ecx, BYTE PTR [eax+4]
	test	ecx, ecx
	jne	SHORT $L83523

; 1272 : 			// Set up explosions
; 1273 : 			FireworkExplode(obj);

	mov	eax, DWORD PTR _obj$[ebp]
	push	eax
	call	?FireworkExplode@@YAXPAUobject_def@@@Z	; FireworkExplode
	add	esp, 4

; 1274 : 		} else {

	jmp	$L83516
$L83523:

; 1275 : 			// update the lightsource
; 1276 : 			if ((obj->Light != NULL) && (firework->Age < MAX_FIREWORK_AGE + 0.8)) {

	mov	eax, DWORD PTR _obj$[ebp]
	cmp	DWORD PTR [eax+672], 0
	je	$L83526
	mov	eax, DWORD PTR _firework$[ebp]
	fld	DWORD PTR [eax+8]
	fcomp	QWORD PTR __real@4000000000000000
	fnstsw	ax
	test	ah, 5
	jp	$L83526

; 1277 : 				obj->Light->r = 128 + (long)(frand(32)) - (long)((128 * (firework->Age - MAX_FIREWORK_AGE)) / 0.8);

	call	_rand
	mov	DWORD PTR tv215[ebp], eax
	fild	DWORD PTR tv215[ebp]
	fdiv	DWORD PTR __real@46fffe00
	fmul	DWORD PTR __real@42000000
	call	__ftol2
	mov	esi, eax
	add	esi, 128				; 00000080H
	mov	eax, DWORD PTR _firework$[ebp]
	fld	DWORD PTR [eax+8]
	fsub	DWORD PTR __real@3f99999a
	fmul	DWORD PTR __real@43000000
	fdiv	QWORD PTR __real@3fe999999999999a
	call	__ftol2
	sub	esi, eax
	mov	ecx, DWORD PTR _obj$[ebp]
	mov	edx, DWORD PTR [ecx+672]
	mov	DWORD PTR [edx+88], esi

; 1278 : 				obj->Light->g = 32 - (long)((32 * (firework->Age - MAX_FIREWORK_AGE)) / 0.8);

	mov	eax, DWORD PTR _firework$[ebp]
	fld	DWORD PTR [eax+8]
	fsub	DWORD PTR __real@3f99999a
	fmul	DWORD PTR __real@42000000
	fdiv	QWORD PTR __real@3fe999999999999a
	call	__ftol2
	mov	ecx, 32					; 00000020H
	sub	ecx, eax
	mov	edx, DWORD PTR _obj$[ebp]
	mov	eax, DWORD PTR [edx+672]
	mov	DWORD PTR [eax+92], ecx

; 1279 : 				obj->Light->b = 64 - (long)((64 * (firework->Age - MAX_FIREWORK_AGE)) / 0.8);

	mov	eax, DWORD PTR _firework$[ebp]
	fld	DWORD PTR [eax+8]
	fsub	DWORD PTR __real@3f99999a
	fmul	DWORD PTR __real@42800000
	fdiv	QWORD PTR __real@3fe999999999999a
	call	__ftol2
	mov	ecx, 64					; 00000040H
	sub	ecx, eax
	mov	edx, DWORD PTR _obj$[ebp]
	mov	eax, DWORD PTR [edx+672]
	mov	DWORD PTR [eax+96], ecx

; 1280 : 			} else {

	jmp	SHORT $L83516
$L83526:

; 1281 : 				// Kill the firework
; 1282 : 				OBJ_FreeObject(obj);

	mov	eax, DWORD PTR _obj$[ebp]
	push	eax
	call	?OBJ_FreeObject@@YAJPAUobject_def@@@Z	; OBJ_FreeObject
	add	esp, 4
$L83516:

; 1283 : 			}
; 1284 : 		}
; 1285 : 	}
; 1286 : 
; 1287 : }

	pop	edi
	pop	esi
	pop	ebx
	mov	esp, ebp
	pop	ebp
	ret	0
?FireworkHandler@@YAXPAUobject_def@@@Z ENDP		; FireworkHandler
_TEXT	ENDS
PUBLIC	__real@3727c5ac
PUBLIC	__real@40200000
PUBLIC	__real@bf000000
PUBLIC	__real@bba3d70a
PUBLIC	__real@42480000
PUBLIC	__real@3f747ae147ae147b
EXTRN	?ApplyParticleImpulse@@YAXPAUParticleStruct@@PAUVectorStruct@@@Z:NEAR ; ApplyParticleImpulse
EXTRN	?ApplyBodyImpulse@@YAXPAUNewBodyStruct@@PAUVectorStruct@@1@Z:NEAR ; ApplyBodyImpulse
EXTRN	?UpdateBody@@YAXPAUNewBodyStruct@@M@Z:NEAR	; UpdateBody
EXTRN	?ZeroVector@@3UVectorStruct@@A:BYTE		; ZeroVector
EXTRN	?DownVec@@3UVectorStruct@@A:BYTE		; DownVec
EXTRN	?UpdateTrail@@YAXPAUSparkTrailStruct@@PAUVectorStruct@@@Z:NEAR ; UpdateTrail
EXTRN	?ModifyFirstTrail@@YAXPAUSparkTrailStruct@@PAUVectorStruct@@@Z:NEAR ; ModifyFirstTrail
EXTRN	?FLD_Gravity@@3MA:DWORD				; FLD_Gravity
;	COMDAT __real@3727c5ac
CONST	SEGMENT
__real@3727c5ac DD 03727c5acr			; 1e-005
CONST	ENDS
;	COMDAT __real@40200000
CONST	SEGMENT
__real@40200000 DD 040200000r			; 2.5
CONST	ENDS
;	COMDAT __real@bf000000
CONST	SEGMENT
__real@bf000000 DD 0bf000000r			; -0.5
CONST	ENDS
;	COMDAT __real@bba3d70a
CONST	SEGMENT
__real@bba3d70a DD 0bba3d70ar			; -0.005
CONST	ENDS
;	COMDAT __real@42480000
CONST	SEGMENT
__real@42480000 DD 042480000r			; 50
CONST	ENDS
;	COMDAT __real@3f747ae147ae147b
CONST	SEGMENT
__real@3f747ae147ae147b DQ 03f747ae147ae147br	; 0.005
; Function compile flags: /Odt /ZI
CONST	ENDS
;	COMDAT ?FireWorkMove@@YAXPAUobject_def@@@Z
_TEXT	SEGMENT
tv333 = -116						; size = 4
_firework$ = -48					; size = 4
_offset$ = -44						; size = 12
_imp$ = -32						; size = 12
_dR$ = -20						; size = 12
_impMod$ = -8						; size = 4
_dRLen$ = -4						; size = 4
_obj$ = 8						; size = 4
?FireWorkMove@@YAXPAUobject_def@@@Z PROC NEAR		; FireWorkMove, COMDAT

; 1290 : {

	push	ebp
	mov	ebp, esp
	sub	esp, 116				; 00000074H
	push	ebx
	push	esi
	push	edi

; 1291 : 	REAL dRLen, impMod;
; 1292 : 	VEC dR, imp, offset;
; 1293 : 	// VEC angImp;
; 1294 : 	FIREWORK_OBJ *firework = (FIREWORK_OBJ *)obj->Data;

	mov	eax, DWORD PTR _obj$[ebp]
	mov	ecx, DWORD PTR [eax+684]
	mov	DWORD PTR _firework$[ebp], ecx

; 1295 : 
; 1296 : 	// Get the target relative position
; 1297 : 	if (firework->Target != NULL) {

	mov	eax, DWORD PTR _firework$[ebp]
	cmp	DWORD PTR [eax], 0
	je	$L83546

; 1298 : 		VecMinusVec(&firework->Target->body.Centre.Pos, &obj->body.Centre.Pos, &dR);

	mov	eax, DWORD PTR _firework$[ebp]
	mov	ecx, DWORD PTR [eax]
	mov	edx, DWORD PTR _obj$[ebp]
	fld	DWORD PTR [ecx+20]
	fsub	DWORD PTR [edx+20]
	fstp	DWORD PTR _dR$[ebp]
	mov	eax, DWORD PTR _firework$[ebp]
	mov	ecx, DWORD PTR [eax]
	mov	edx, DWORD PTR _obj$[ebp]
	fld	DWORD PTR [ecx+24]
	fsub	DWORD PTR [edx+24]
	fstp	DWORD PTR _dR$[ebp+4]
	mov	eax, DWORD PTR _firework$[ebp]
	mov	ecx, DWORD PTR [eax]
	mov	edx, DWORD PTR _obj$[ebp]
	fld	DWORD PTR [ecx+28]
	fsub	DWORD PTR [edx+28]
	fstp	DWORD PTR _dR$[ebp+8]

; 1299 : 		dRLen = VecLen(&dR);

	fld	DWORD PTR _dR$[ebp]
	fmul	DWORD PTR _dR$[ebp]
	fld	DWORD PTR _dR$[ebp+4]
	fmul	DWORD PTR _dR$[ebp+4]
	faddp	ST(1), ST(0)
	fld	DWORD PTR _dR$[ebp+8]
	fmul	DWORD PTR _dR$[ebp+8]
	faddp	ST(1), ST(0)
	push	ecx
	fstp	DWORD PTR [esp]
	call	?sqrt@@YAMM@Z				; sqrt
	add	esp, 4
	fstp	DWORD PTR _dRLen$[ebp]

; 1300 : 		if (dRLen > SMALL_REAL) {

	fld	DWORD PTR _dRLen$[ebp]
	fcomp	DWORD PTR __real@3727c5ac
	fnstsw	ax
	test	ah, 65					; 00000041H
	jne	SHORT $L83548

; 1301 : 			VecDivScalar(&dR, dRLen / 2.5f);

	fld	DWORD PTR _dRLen$[ebp]
	fdiv	DWORD PTR __real@40200000
	fdivr	DWORD PTR _dR$[ebp]
	fstp	DWORD PTR _dR$[ebp]
	fld	DWORD PTR _dRLen$[ebp]
	fdiv	DWORD PTR __real@40200000
	fdivr	DWORD PTR _dR$[ebp+4]
	fstp	DWORD PTR _dR$[ebp+4]
	fld	DWORD PTR _dRLen$[ebp]
	fdiv	DWORD PTR __real@40200000
	fdivr	DWORD PTR _dR$[ebp+8]
	fstp	DWORD PTR _dR$[ebp+8]

; 1302 : 		} else {

	jmp	SHORT $L83549
$L83548:

; 1303 : 			firework->Age = MAX_FIREWORK_AGE;

	mov	eax, DWORD PTR _firework$[ebp]
	mov	DWORD PTR [eax+8], 1067030938		; 3f99999aH

; 1304 : 			return;

	jmp	$L83538
$L83549:

; 1305 : 		}
; 1306 : 	} else {

	jmp	SHORT $L83551
$L83546:

; 1307 : 		CopyVec(&DownVec, &dR);

	mov	eax, DWORD PTR ?DownVec@@3UVectorStruct@@A
	mov	DWORD PTR _dR$[ebp], eax
	mov	eax, DWORD PTR ?DownVec@@3UVectorStruct@@A+4
	mov	DWORD PTR _dR$[ebp+4], eax
	mov	eax, DWORD PTR ?DownVec@@3UVectorStruct@@A+8
	mov	DWORD PTR _dR$[ebp+8], eax

; 1308 : 		dRLen = WEAPON_RANGE_MAX;

	mov	DWORD PTR _dRLen$[ebp], 1163575296	; 455ac000H
$L83551:

; 1309 : 	}
; 1310 : 
; 1311 : 	// Accelerate firework towards target, or forwards if no target
; 1312 : 	impMod = ONE;//0.2f + dRLen / WEAPON_RANGE_MAX;

	mov	DWORD PTR _impMod$[ebp], 1065353216	; 3f800000H

; 1313 : 	VecEqScalarVec(&imp, -0.5f * impMod * FLD_Gravity * TimeStep, &obj->body.Centre.WMatrix.mv[U]);

	fld	DWORD PTR __real@bf000000
	fmul	DWORD PTR _impMod$[ebp]
	fmul	DWORD PTR ?FLD_Gravity@@3MA		; FLD_Gravity
	fmul	DWORD PTR ?TimeStep@@3MA		; TimeStep
	mov	eax, DWORD PTR _obj$[ebp]
	fmul	DWORD PTR [eax+112]
	fstp	DWORD PTR _imp$[ebp]
	fld	DWORD PTR __real@bf000000
	fmul	DWORD PTR _impMod$[ebp]
	fmul	DWORD PTR ?FLD_Gravity@@3MA		; FLD_Gravity
	fmul	DWORD PTR ?TimeStep@@3MA		; TimeStep
	mov	eax, DWORD PTR _obj$[ebp]
	fmul	DWORD PTR [eax+116]
	fstp	DWORD PTR _imp$[ebp+4]
	fld	DWORD PTR __real@bf000000
	fmul	DWORD PTR _impMod$[ebp]
	fmul	DWORD PTR ?FLD_Gravity@@3MA		; FLD_Gravity
	fmul	DWORD PTR ?TimeStep@@3MA		; TimeStep
	mov	eax, DWORD PTR _obj$[ebp]
	fmul	DWORD PTR [eax+120]
	fstp	DWORD PTR _imp$[ebp+8]

; 1314 : 	ApplyParticleImpulse(&obj->body.Centre, &imp);

	lea	eax, DWORD PTR _imp$[ebp]
	push	eax
	mov	ecx, DWORD PTR _obj$[ebp]
	push	ecx
	call	?ApplyParticleImpulse@@YAXPAUParticleStruct@@PAUVectorStruct@@@Z ; ApplyParticleImpulse
	add	esp, 8

; 1315 : 
; 1316 : 	VecEqScalarVec(&imp, -0.005f * FLD_Gravity * TimeStep, &dR);

	fld	DWORD PTR __real@bba3d70a
	fmul	DWORD PTR ?FLD_Gravity@@3MA		; FLD_Gravity
	fmul	DWORD PTR ?TimeStep@@3MA		; TimeStep
	fmul	DWORD PTR _dR$[ebp]
	fstp	DWORD PTR _imp$[ebp]
	fld	DWORD PTR __real@bba3d70a
	fmul	DWORD PTR ?FLD_Gravity@@3MA		; FLD_Gravity
	fmul	DWORD PTR ?TimeStep@@3MA		; TimeStep
	fmul	DWORD PTR _dR$[ebp+4]
	fstp	DWORD PTR _imp$[ebp+4]
	fld	DWORD PTR __real@bba3d70a
	fmul	DWORD PTR ?FLD_Gravity@@3MA		; FLD_Gravity
	fmul	DWORD PTR ?TimeStep@@3MA		; TimeStep
	fmul	DWORD PTR _dR$[ebp+8]
	fstp	DWORD PTR _imp$[ebp+8]

; 1317 : 	VecEqScalarVec(&offset, 50, &obj->body.Centre.WMatrix.mv[U]);

	mov	eax, DWORD PTR _obj$[ebp]
	fld	DWORD PTR __real@42480000
	fmul	DWORD PTR [eax+112]
	fstp	DWORD PTR _offset$[ebp]
	mov	eax, DWORD PTR _obj$[ebp]
	fld	DWORD PTR __real@42480000
	fmul	DWORD PTR [eax+116]
	fstp	DWORD PTR _offset$[ebp+4]
	mov	eax, DWORD PTR _obj$[ebp]
	fld	DWORD PTR __real@42480000
	fmul	DWORD PTR [eax+120]
	fstp	DWORD PTR _offset$[ebp+8]

; 1318 : 	ApplyBodyImpulse(&obj->body, &imp, &offset);

	lea	eax, DWORD PTR _offset$[ebp]
	push	eax
	lea	ecx, DWORD PTR _imp$[ebp]
	push	ecx
	mov	edx, DWORD PTR _obj$[ebp]
	push	edx
	call	?ApplyBodyImpulse@@YAXPAUNewBodyStruct@@PAUVectorStruct@@1@Z ; ApplyBodyImpulse
	add	esp, 12					; 0000000cH

; 1319 : 
; 1320 : 	//VecPlusEqScalarVec(&offset, 500, &obj->body.Centre.WMatrix.mv[R]);
; 1321 : 	//VecEqScalarVec(&imp, -30 * TimeStep, &obj->body.Centre.WMatrix.mv[L]);
; 1322 : 	//ApplyBodyImpulse(&obj->body, &imp, &offset);
; 1323 : 
; 1324 : 
; 1325 : 
; 1326 : 	// Move the particle
; 1327 : 	UpdateBody(&obj->body, TimeStep);

	mov	eax, DWORD PTR ?TimeStep@@3MA
	push	eax
	mov	ecx, DWORD PTR _obj$[ebp]
	push	ecx
	call	?UpdateBody@@YAXPAUNewBodyStruct@@M@Z	; UpdateBody
	add	esp, 8

; 1328 : 
; 1329 : 	/*firework->SmokeTime += TimeStep;
; 1330 : 	if (firework->SmokeTime > 0.03) {
; 1331 : 		CreateSpark(SPARK_SMOKE1, &obj->body.Centre.Pos, &ZeroVector, ZERO, 0);
; 1332 : 		firework->SmokeTime = ZERO;
; 1333 : 	}*/
; 1334 : 	firework->SparkTime += TimeStep;

	mov	eax, DWORD PTR _firework$[ebp]
	fld	DWORD PTR ?TimeStep@@3MA		; TimeStep
	fadd	DWORD PTR [eax+16]
	mov	ecx, DWORD PTR _firework$[ebp]
	fstp	DWORD PTR [ecx+16]

; 1335 : 	if (firework->SparkTime > 0.005 && frand(ONE) < HALF) {

	mov	eax, DWORD PTR _firework$[ebp]
	fld	DWORD PTR [eax+16]
	fcomp	QWORD PTR __real@3f747ae147ae147b
	fnstsw	ax
	test	ah, 65					; 00000041H
	jne	SHORT $L83554
	call	_rand
	mov	DWORD PTR tv333[ebp], eax
	fild	DWORD PTR tv333[ebp]
	fdiv	DWORD PTR __real@46fffe00
	fmul	DWORD PTR __real@3f800000
	fcomp	DWORD PTR __real@3f000000
	fnstsw	ax
	test	ah, 5
	jp	SHORT $L83554

; 1336 : 		CreateSpark(SPARK_SPARK, &obj->body.Centre.Pos, &ZeroVector, 80, 0);

	push	0
	push	0
	push	1117782016				; 42a00000H
	push	OFFSET FLAT:?ZeroVector@@3UVectorStruct@@A ; ZeroVector
	mov	eax, DWORD PTR _obj$[ebp]
	add	eax, 20					; 00000014H
	push	eax
	push	0
	call	?CreateSpark@@YA_NW4SparkTypeEnum@@PAUVectorStruct@@1M_K@Z ; CreateSpark
	add	esp, 24					; 00000018H

; 1337 : 		firework->SparkTime = ZERO;

	mov	eax, DWORD PTR _firework$[ebp]
	mov	DWORD PTR [eax+16], 0
$L83554:

; 1338 : 	}
; 1339 : 
; 1340 : 	// Update the trail
; 1341 : 	if (firework->Trail != NULL) {

	mov	eax, DWORD PTR _firework$[ebp]
	cmp	DWORD PTR [eax+20], 0
	je	SHORT $L83538

; 1342 : 		firework->TrailTime += TimeStep;

	mov	eax, DWORD PTR _firework$[ebp]
	fld	DWORD PTR ?TimeStep@@3MA		; TimeStep
	fadd	DWORD PTR [eax+24]
	mov	ecx, DWORD PTR _firework$[ebp]
	fstp	DWORD PTR [ecx+24]

; 1343 : 		if (firework->TrailTime > firework->Trail->Data->LifeTime / firework->Trail->MaxTrails) {

	mov	eax, DWORD PTR _firework$[ebp]
	mov	ecx, DWORD PTR [eax+20]
	mov	edx, DWORD PTR [ecx+148]
	mov	eax, DWORD PTR _firework$[ebp]
	mov	ecx, DWORD PTR [eax+20]
	fild	DWORD PTR [ecx+156]
	fdivr	DWORD PTR [edx+44]
	mov	edx, DWORD PTR _firework$[ebp]
	fcomp	DWORD PTR [edx+24]
	fnstsw	ax
	test	ah, 5
	jp	SHORT $L83556

; 1344 : 			UpdateTrail(firework->Trail, &obj->body.Centre.Pos);

	mov	eax, DWORD PTR _obj$[ebp]
	add	eax, 20					; 00000014H
	push	eax
	mov	ecx, DWORD PTR _firework$[ebp]
	mov	edx, DWORD PTR [ecx+20]
	push	edx
	call	?UpdateTrail@@YAXPAUSparkTrailStruct@@PAUVectorStruct@@@Z ; UpdateTrail
	add	esp, 8

; 1345 : 			firework->TrailTime = ZERO;

	mov	eax, DWORD PTR _firework$[ebp]
	mov	DWORD PTR [eax+24], 0

; 1346 : 		} else {

	jmp	SHORT $L83538
$L83556:

; 1347 : 			ModifyFirstTrail(firework->Trail, &obj->body.Centre.Pos);

	mov	eax, DWORD PTR _obj$[ebp]
	add	eax, 20					; 00000014H
	push	eax
	mov	ecx, DWORD PTR _firework$[ebp]
	mov	edx, DWORD PTR [ecx+20]
	push	edx
	call	?ModifyFirstTrail@@YAXPAUSparkTrailStruct@@PAUVectorStruct@@@Z ; ModifyFirstTrail
	add	esp, 8
$L83538:

; 1348 : 		}
; 1349 : 
; 1350 : 	}
; 1351 : 
; 1352 : 
; 1353 : }

	pop	edi
	pop	esi
	pop	ebx
	mov	esp, ebp
	pop	ebp
	ret	0
?FireWorkMove@@YAXPAUobject_def@@@Z ENDP		; FireWorkMove
_TEXT	ENDS
PUBLIC	__real@42700000
PUBLIC	__real@43960000
EXTRN	?PlaySfx3D@@YAXJJJPAUVectorStruct@@@Z:NEAR	; PlaySfx3D
EXTRN	?FreeTrail@@YAXPAUSparkTrailStruct@@@Z:NEAR	; FreeTrail
;	COMDAT __real@42700000
CONST	SEGMENT
__real@42700000 DD 042700000r			; 60
CONST	ENDS
;	COMDAT __real@43960000
CONST	SEGMENT
__real@43960000 DD 043960000r			; 300
; Function compile flags: /Odt /ZI
CONST	ENDS
;	COMDAT ?FireworkExplode@@YAXPAUobject_def@@@Z
_TEXT	SEGMENT
_firework$ = -20					; size = 4
_vel$ = -16						; size = 12
_iFlash$ = -4						; size = 4
_obj$ = 8						; size = 4
?FireworkExplode@@YAXPAUobject_def@@@Z PROC NEAR	; FireworkExplode, COMDAT

; 1356 : {

	push	ebp
	mov	ebp, esp
	sub	esp, 84					; 00000054H
	push	ebx
	push	esi
	push	edi

; 1357 : 	int iFlash;
; 1358 : 	VEC vel;
; 1359 : 	FIREWORK_OBJ *firework = (FIREWORK_OBJ *)obj->Data;

	mov	eax, DWORD PTR _obj$[ebp]
	mov	ecx, DWORD PTR [eax+684]
	mov	DWORD PTR _firework$[ebp], ecx

; 1360 : 
; 1361 : 	// Free up the models and sound effects
; 1362 : #ifdef _PC
; 1363 : 	if (obj->Sfx3D)

	mov	eax, DWORD PTR _obj$[ebp]
	cmp	DWORD PTR [eax+680], 0
	je	SHORT $L83565

; 1364 : 	{
; 1365 : 		FreeSfx3D(obj->Sfx3D);

	mov	eax, DWORD PTR _obj$[ebp]
	mov	ecx, DWORD PTR [eax+680]
	push	ecx
	call	?FreeSfx3D@@YAXPAUSAMPLE_3D@@@Z		; FreeSfx3D
	add	esp, 4
$L83565:

; 1366 : 	}
; 1367 : #endif
; 1368 : 	obj->DefaultModel = -1;

	mov	eax, DWORD PTR _obj$[ebp]
	mov	DWORD PTR [eax+656], -1

; 1369 : 	obj->renderhandler = NULL;

	mov	eax, DWORD PTR _obj$[ebp]
	mov	DWORD PTR [eax+700], 0

; 1370 : 
; 1371 : 	// Get rid of the trail
; 1372 : 	if (firework->Trail != NULL) {

	mov	eax, DWORD PTR _firework$[ebp]
	cmp	DWORD PTR [eax+20], 0
	je	SHORT $L83566

; 1373 : 		FreeTrail(firework->Trail);

	mov	eax, DWORD PTR _firework$[ebp]
	mov	ecx, DWORD PTR [eax+20]
	push	ecx
	call	?FreeTrail@@YAXPAUSparkTrailStruct@@@Z	; FreeTrail
	add	esp, 4
$L83566:

; 1374 : 	}
; 1375 : 
; 1376 : 	// Oooaaahhhhh
; 1377 : 	PlaySfx3D(SFX_FIREWORK_BANG, SFX_MAX_VOL, 22050, &obj->body.Centre.Pos);

	mov	eax, DWORD PTR _obj$[ebp]
	add	eax, 20					; 00000014H
	push	eax
	push	22050					; 00005622H
	push	127					; 0000007fH
	push	10					; 0000000aH
	call	?PlaySfx3D@@YAXJJJPAUVectorStruct@@@Z	; PlaySfx3D
	add	esp, 16					; 00000010H

; 1378 : 
; 1379 : 	// Create Explosion
; 1380 : 	CreateSpark(SPARK_EXPLOSION1, &obj->body.Centre.Pos, &ZeroVector, 0, 0);

	push	0
	push	0
	push	0
	push	OFFSET FLAT:?ZeroVector@@3UVectorStruct@@A ; ZeroVector
	mov	eax, DWORD PTR _obj$[ebp]
	add	eax, 20					; 00000014H
	push	eax
	push	17					; 00000011H
	call	?CreateSpark@@YA_NW4SparkTypeEnum@@PAUVectorStruct@@1M_K@Z ; CreateSpark
	add	esp, 24					; 00000018H

; 1381 : 
; 1382 : 	// Create smoke
; 1383 : 	VecEqScalarVec(&vel, 60, &UpVec);

	fld	DWORD PTR __real@42700000
	fmul	DWORD PTR ?UpVec@@3UVectorStruct@@A
	fstp	DWORD PTR _vel$[ebp]
	fld	DWORD PTR __real@42700000
	fmul	DWORD PTR ?UpVec@@3UVectorStruct@@A+4
	fstp	DWORD PTR _vel$[ebp+4]
	fld	DWORD PTR __real@42700000
	fmul	DWORD PTR ?UpVec@@3UVectorStruct@@A+8
	fstp	DWORD PTR _vel$[ebp+8]

; 1384 : 	for (iFlash = 0; iFlash < 3; iFlash++) {

	mov	DWORD PTR _iFlash$[ebp], 0
	jmp	SHORT $L83567
$L83568:
	mov	eax, DWORD PTR _iFlash$[ebp]
	add	eax, 1
	mov	DWORD PTR _iFlash$[ebp], eax
$L83567:
	cmp	DWORD PTR _iFlash$[ebp], 3
	jge	SHORT $L83569

; 1385 : 		CreateSpark(SPARK_SMOKE2, &obj->body.Centre.Pos, &vel, 60, 0);

	push	0
	push	0
	push	1114636288				; 42700000H
	lea	eax, DWORD PTR _vel$[ebp]
	push	eax
	mov	ecx, DWORD PTR _obj$[ebp]
	add	ecx, 20					; 00000014H
	push	ecx
	push	11					; 0000000bH
	call	?CreateSpark@@YA_NW4SparkTypeEnum@@PAUVectorStruct@@1M_K@Z ; CreateSpark
	add	esp, 24					; 00000018H

; 1386 : 	}

	jmp	SHORT $L83568
$L83569:

; 1387 : 
; 1388 : 	//Create flashy bits
; 1389 : 	//VecPlusScalarVec(&obj->body.Centre.Vel, 300, &UpVec, &vel);
; 1390 : 	VecEqScalarVec(&vel, 300, &UpVec);

	fld	DWORD PTR __real@43960000
	fmul	DWORD PTR ?UpVec@@3UVectorStruct@@A
	fstp	DWORD PTR _vel$[ebp]
	fld	DWORD PTR __real@43960000
	fmul	DWORD PTR ?UpVec@@3UVectorStruct@@A+4
	fstp	DWORD PTR _vel$[ebp+4]
	fld	DWORD PTR __real@43960000
	fmul	DWORD PTR ?UpVec@@3UVectorStruct@@A+8
	fstp	DWORD PTR _vel$[ebp+8]

; 1391 : 	for (iFlash = 0; iFlash < 30; iFlash++) {

	mov	DWORD PTR _iFlash$[ebp], 0
	jmp	SHORT $L83570
$L83571:
	mov	eax, DWORD PTR _iFlash$[ebp]
	add	eax, 1
	mov	DWORD PTR _iFlash$[ebp], eax
$L83570:
	cmp	DWORD PTR _iFlash$[ebp], 30		; 0000001eH
	jge	SHORT $L83572

; 1392 : 		CreateSpark(SPARK_SMALLORANGE, &obj->body.Centre.Pos, &vel, 600, 0);

	push	0
	push	0
	push	1142292480				; 44160000H
	lea	eax, DWORD PTR _vel$[ebp]
	push	eax
	mov	ecx, DWORD PTR _obj$[ebp]
	add	ecx, 20					; 00000014H
	push	ecx
	push	15					; 0000000fH
	call	?CreateSpark@@YA_NW4SparkTypeEnum@@PAUVectorStruct@@1M_K@Z ; CreateSpark
	add	esp, 24					; 00000018H

; 1393 : 		CreateSpark(SPARK_SMALLRED, &obj->body.Centre.Pos, &vel, 800, 0);

	push	0
	push	0
	push	1145569280				; 44480000H
	lea	eax, DWORD PTR _vel$[ebp]
	push	eax
	mov	ecx, DWORD PTR _obj$[ebp]
	add	ecx, 20					; 00000014H
	push	ecx
	push	16					; 00000010H
	call	?CreateSpark@@YA_NW4SparkTypeEnum@@PAUVectorStruct@@1M_K@Z ; CreateSpark
	add	esp, 24					; 00000018H

; 1394 : 	}

	jmp	SHORT $L83571
$L83572:

; 1395 : 
; 1396 : 	// setup light
; 1397 : 	obj->Light = AllocLight();

	call	?AllocLight@@YAPAULIGHT@@XZ		; AllocLight
	mov	ecx, DWORD PTR _obj$[ebp]
	mov	DWORD PTR [ecx+672], eax

; 1398 : 	if (obj->Light)

	mov	eax, DWORD PTR _obj$[ebp]
	cmp	DWORD PTR [eax+672], 0
	je	$L83573

; 1399 : 	{
; 1400 : 		obj->Light->Reach = 1024;

	mov	eax, DWORD PTR _obj$[ebp]
	mov	ecx, DWORD PTR [eax+672]
	mov	DWORD PTR [ecx+12], 1149239296		; 44800000H

; 1401 : 		obj->Light->Flag = LIGHT_FIXED;

	mov	eax, DWORD PTR _obj$[ebp]
	mov	ecx, DWORD PTR [eax+672]
	mov	BYTE PTR [ecx+100], 1

; 1402 : 		obj->Light->Type = LIGHT_OMNI;

	mov	eax, DWORD PTR _obj$[ebp]
	mov	ecx, DWORD PTR [eax+672]
	mov	BYTE PTR [ecx+101], 0

; 1403 : 		obj->Light->r = 128;

	mov	eax, DWORD PTR _obj$[ebp]
	mov	ecx, DWORD PTR [eax+672]
	mov	DWORD PTR [ecx+88], 128			; 00000080H

; 1404 : 		obj->Light->g = 32;

	mov	eax, DWORD PTR _obj$[ebp]
	mov	ecx, DWORD PTR [eax+672]
	mov	DWORD PTR [ecx+92], 32			; 00000020H

; 1405 : 		obj->Light->b = 64;

	mov	eax, DWORD PTR _obj$[ebp]
	mov	ecx, DWORD PTR [eax+672]
	mov	DWORD PTR [ecx+96], 64			; 00000040H

; 1406 : 		obj->Light->x = obj->body.Centre.Pos.v[X];

	mov	eax, DWORD PTR _obj$[ebp]
	mov	ecx, DWORD PTR [eax+672]
	mov	edx, DWORD PTR _obj$[ebp]
	mov	eax, DWORD PTR [edx+20]
	mov	DWORD PTR [ecx], eax

; 1407 : 		obj->Light->y = obj->body.Centre.Pos.v[Y];

	mov	eax, DWORD PTR _obj$[ebp]
	mov	ecx, DWORD PTR [eax+672]
	mov	edx, DWORD PTR _obj$[ebp]
	mov	eax, DWORD PTR [edx+24]
	mov	DWORD PTR [ecx+4], eax

; 1408 : 		obj->Light->z = obj->body.Centre.Pos.v[Z];

	mov	eax, DWORD PTR _obj$[ebp]
	mov	ecx, DWORD PTR [eax+672]
	mov	edx, DWORD PTR _obj$[ebp]
	mov	eax, DWORD PTR [edx+28]
	mov	DWORD PTR [ecx+8], eax
$L83573:

; 1409 : 	}
; 1410 : 
; 1411 : 	firework->Exploded = TRUE;

	mov	eax, DWORD PTR _firework$[ebp]
	mov	BYTE PTR [eax+4], 1

; 1412 : }

	pop	edi
	pop	esi
	pop	ebx
	mov	esp, ebp
	pop	ebp
	ret	0
?FireworkExplode@@YAXPAUobject_def@@@Z ENDP		; FireworkExplode
_TEXT	ENDS
PUBLIC	?cos@@YAMM@Z					; cos
PUBLIC	?sin@@YAMM@Z					; sin
PUBLIC	__real@41200000
PUBLIC	__real@45000000
PUBLIC	__real@3fc00000
PUBLIC	__real@43800000
PUBLIC	__real@3e4ccccd
PUBLIC	__real@3ecccccd
PUBLIC	__real@41a00000
PUBLIC	?PuttyBombBang@@YAXPAUobject_def@@@Z		; PuttyBombBang
PUBLIC	?RenderPuttyBombBang@@YAXPAUobject_def@@@Z	; RenderPuttyBombBang
EXTRN	?CAM_MainCamera@@3PAUCameraStruct@@A:DWORD	; CAM_MainCamera
EXTRN	?World@@3UWORLD@@A:BYTE				; World
EXTRN	?RotMatrixZYX@@YAXPATMatrixUnion@@MMM@Z:NEAR	; RotMatrixZYX
EXTRN	?PosToCollGrid@@YAPAUCOLLGRID@@PAUVectorStruct@@@Z:NEAR ; PosToCollGrid
EXTRN	?CreateObject@@YAPAUobject_def@@PAUVectorStruct@@PATMatrixUnion@@JPAJ@Z:NEAR ; CreateObject
;	COMDAT __real@41200000
CONST	SEGMENT
__real@41200000 DD 041200000r			; 10
CONST	ENDS
;	COMDAT __real@45000000
CONST	SEGMENT
__real@45000000 DD 045000000r			; 2048
CONST	ENDS
;	COMDAT __real@3fc00000
CONST	SEGMENT
__real@3fc00000 DD 03fc00000r			; 1.5
CONST	ENDS
;	COMDAT __real@43800000
CONST	SEGMENT
__real@43800000 DD 043800000r			; 256
CONST	ENDS
;	COMDAT __real@3e4ccccd
CONST	SEGMENT
__real@3e4ccccd DD 03e4ccccdr			; 0.2
CONST	ENDS
;	COMDAT __real@3ecccccd
CONST	SEGMENT
__real@3ecccccd DD 03ecccccdr			; 0.4
CONST	ENDS
;	COMDAT __real@41a00000
CONST	SEGMENT
__real@41a00000 DD 041a00000r			; 20
; Function compile flags: /Odt /ZI
CONST	ENDS
;	COMDAT ?PuttyBombHandler@@YAXPAUobject_def@@@Z
_TEXT	SEGMENT
tv940 = -268						; size = 4
tv1137 = -264						; size = 4
tv1135 = -264						; size = 4
tv938 = -264						; size = 4
tv928 = -264						; size = 4
tv912 = -264						; size = 4
__temp$83653 = -196					; size = 4
_header$ = -192						; size = 4
_p$ = -188						; size = 4
_mrgb$ = -184						; size = 4
_wrgb$ = -180						; size = 4
_wv$ = -176						; size = 4
_wp$ = -172						; size = 4
_cube$ = -168						; size = 4
_box$ = -164						; size = 24
_mass$ = -140						; size = 4
_mul$ = -136						; size = 4
_rot$ = -132						; size = 4
_len$ = -128						; size = 4
_dist$ = -124						; size = 4
_dz$ = -120						; size = 4
_dy$ = -116						; size = 4
_dx$ = -112						; size = 4
_mat$ = -108						; size = 36
_pos$ = -72						; size = 4
_imp$ = -68						; size = 12
_off$ = -56						; size = 12
_vec$ = -44						; size = 12
_flag$ = -32						; size = 4
_sides$ = -28						; size = 4
_per$ = -24						; size = 4
_vcount$ = -20						; size = 4
_k$ = -16						; size = 4
_j$ = -12						; size = 4
_i$ = -8						; size = 4
_bomb$ = -4						; size = 4
_obj$ = 8						; size = 4
?PuttyBombHandler@@YAXPAUobject_def@@@Z PROC NEAR	; PuttyBombHandler, COMDAT

; 1419 : {

	push	ebp
	mov	ebp, esp
	sub	esp, 268				; 0000010cH
	push	ebx
	push	esi
	push	edi

; 1420 : 	PUTTYBOMB_OBJ *bomb = (PUTTYBOMB_OBJ*)obj->Data;

	mov	eax, DWORD PTR _obj$[ebp]
	mov	ecx, DWORD PTR [eax+684]
	mov	DWORD PTR _bomb$[ebp], ecx

; 1421 : 	long i, j, k, vcount, per, sides, flag;
; 1422 : 	VEC vec, off, imp, *pos;
; 1423 : 	MAT mat;
; 1424 : 	REAL dx, dy, dz, dist, len, rot, mul, mass;
; 1425 : 	BBOX box;
; 1426 : 	CUBE_HEADER *cube;
; 1427 : 	WORLD_POLY *wp;
; 1428 : 	WORLD_VERTEX **wv;
; 1429 : 	long *wrgb;
; 1430 : 	MODEL_RGB *mrgb;
; 1431 : 	NEWCOLLPOLY *p;
; 1432 : 	COLLGRID *header;
; 1433 : 
; 1434 : // darken car
; 1435 : 
; 1436 : 	obj->player->car.AddLit -= (long)(TimeStep * 2000);

	mov	eax, DWORD PTR _obj$[ebp]
	mov	esi, DWORD PTR [eax+588]
	fld	DWORD PTR ?TimeStep@@3MA		; TimeStep
	fmul	DWORD PTR __real@44fa0000
	call	__ftol2
	mov	ecx, DWORD PTR [esi+3560]
	sub	ecx, eax
	mov	edx, DWORD PTR _obj$[ebp]
	mov	eax, DWORD PTR [edx+588]
	mov	DWORD PTR [eax+3560], ecx

; 1437 : 	if (obj->player->car.AddLit < -1000) obj->player->car.AddLit = -1000;

	mov	eax, DWORD PTR _obj$[ebp]
	mov	ecx, DWORD PTR [eax+588]
	cmp	DWORD PTR [ecx+3560], -1000		; fffffc18H
	jge	SHORT $L83608
	mov	eax, DWORD PTR _obj$[ebp]
	mov	ecx, DWORD PTR [eax+588]
	mov	DWORD PTR [ecx+3560], -1000		; fffffc18H
$L83608:

; 1438 : 
; 1439 : // maintain sfx
; 1440 : 
; 1441 : 	if (obj->Sfx3D)

	mov	eax, DWORD PTR _obj$[ebp]
	cmp	DWORD PTR [eax+680], 0
	je	SHORT $L83609

; 1442 : 	{
; 1443 : 		CopyVec(&obj->player->car.Body->Centre.Pos, &obj->Sfx3D->Pos);

	mov	eax, DWORD PTR _obj$[ebp]
	mov	ecx, DWORD PTR [eax+588]
	mov	edx, DWORD PTR [ecx+900]
	mov	eax, DWORD PTR _obj$[ebp]
	mov	ecx, DWORD PTR [eax+680]
	mov	edx, DWORD PTR [edx+20]
	mov	DWORD PTR [ecx+28], edx
	mov	eax, DWORD PTR _obj$[ebp]
	mov	ecx, DWORD PTR [eax+588]
	mov	edx, DWORD PTR [ecx+900]
	mov	eax, DWORD PTR _obj$[ebp]
	mov	ecx, DWORD PTR [eax+680]
	mov	edx, DWORD PTR [edx+24]
	mov	DWORD PTR [ecx+32], edx
	mov	eax, DWORD PTR _obj$[ebp]
	mov	ecx, DWORD PTR [eax+588]
	mov	edx, DWORD PTR [ecx+900]
	mov	eax, DWORD PTR _obj$[ebp]
	mov	ecx, DWORD PTR [eax+680]
	mov	edx, DWORD PTR [edx+28]
	mov	DWORD PTR [ecx+36], edx
$L83609:

; 1444 : 	}
; 1445 : 
; 1446 : // dec countdown, bang?
; 1447 : 
; 1448 : 	bomb->Timer -= TimeStep;

	mov	eax, DWORD PTR _bomb$[ebp]
	fld	DWORD PTR [eax]
	fsub	DWORD PTR ?TimeStep@@3MA		; TimeStep
	mov	ecx, DWORD PTR _bomb$[ebp]
	fstp	DWORD PTR [ecx]

; 1449 : 	if (obj->player->car.WillDetonate == FALSE){

	mov	eax, DWORD PTR _obj$[ebp]
	mov	ecx, DWORD PTR [eax+588]
	cmp	DWORD PTR [ecx+3572], 0
	jne	$L83610

; 1450 : 
; 1451 : 		if (bomb->Timer < ZERO) 

	mov	eax, DWORD PTR _bomb$[ebp]
	fld	DWORD PTR [eax]
	fcomp	DWORD PTR __real@00000000
	fnstsw	ax
	test	ah, 5
	jp	$L83611

; 1452 : 		{
; 1453 : 			// Set bomb to explode
; 1454 : 			obj->player->car.WillDetonate = TRUE;

	mov	eax, DWORD PTR _obj$[ebp]
	mov	ecx, DWORD PTR [eax+588]
	mov	DWORD PTR [ecx+3572], 1

; 1455 : 			bomb->Timer = PUTTYBOMB_COUNTDOWN2;

	mov	eax, DWORD PTR _bomb$[ebp]
	mov	DWORD PTR [eax], 1065353216		; 3f800000H

; 1456 : 			if (obj->Sfx3D)

	mov	eax, DWORD PTR _obj$[ebp]
	cmp	DWORD PTR [eax+680], 0
	je	SHORT $L83612

; 1457 : 			{
; 1458 : 				FreeSfx3D(obj->Sfx3D);

	mov	eax, DWORD PTR _obj$[ebp]
	mov	ecx, DWORD PTR [eax+680]
	push	ecx
	call	?FreeSfx3D@@YAXPAUSAMPLE_3D@@@Z		; FreeSfx3D
	add	esp, 4

; 1459 : 				obj->Sfx3D = NULL;

	mov	eax, DWORD PTR _obj$[ebp]
	mov	DWORD PTR [eax+680], 0
$L83612:

; 1460 : 			}
; 1461 : 			flag = (long)obj->player;

	mov	eax, DWORD PTR _obj$[ebp]
	mov	ecx, DWORD PTR [eax+588]
	mov	DWORD PTR _flag$[ebp], ecx

; 1462 : 	 		CreateObject(&obj->player->car.Body->Centre.Pos, &obj->player->car.Body->Centre.WMatrix, OBJECT_TYPE_BOMBGLOW, &flag);

	lea	eax, DWORD PTR _flag$[ebp]
	push	eax
	push	35					; 00000023H
	mov	ecx, DWORD PTR _obj$[ebp]
	mov	edx, DWORD PTR [ecx+588]
	mov	eax, DWORD PTR [edx+900]
	add	eax, 100				; 00000064H
	push	eax
	mov	ecx, DWORD PTR _obj$[ebp]
	mov	edx, DWORD PTR [ecx+588]
	mov	eax, DWORD PTR [edx+900]
	add	eax, 20					; 00000014H
	push	eax
	call	?CreateObject@@YAPAUobject_def@@PAUVectorStruct@@PATMatrixUnion@@JPAJ@Z ; CreateObject
	add	esp, 16					; 00000010H

; 1463 : 		} 
; 1464 : 		else 

	jmp	$L83614
$L83611:

; 1465 : 		{
; 1466 : 			// shrink the fuse
; 1467 : 			obj->player->car.Aerial.Length = bomb->OrigAerialLen * bomb->Timer / PUTTYBOMB_COUNTDOWN;

	mov	eax, DWORD PTR _bomb$[ebp]
	mov	ecx, DWORD PTR _bomb$[ebp]
	fld	DWORD PTR [eax+8]
	fmul	DWORD PTR [ecx]
	fdiv	DWORD PTR __real@41200000
	mov	edx, DWORD PTR _obj$[ebp]
	mov	eax, DWORD PTR [edx+588]
	fstp	DWORD PTR [eax+916]

; 1468 : 
; 1469 : 			// create sparks at the end of fuse
; 1470 : 			CreateSpark(SPARK_SPARK2, &obj->player->car.Aerial.Section[AERIAL_LASTSECTION].Pos, &obj->player->car.Body->Centre.Vel, 50, 0);

	push	0
	push	0
	push	1112014848				; 42480000H
	mov	eax, DWORD PTR _obj$[ebp]
	mov	ecx, DWORD PTR [eax+588]
	mov	edx, DWORD PTR [ecx+900]
	add	edx, 32					; 00000020H
	push	edx
	mov	eax, DWORD PTR _obj$[ebp]
	mov	ecx, DWORD PTR [eax+588]
	add	ecx, 1400				; 00000578H
	push	ecx
	push	1
	call	?CreateSpark@@YA_NW4SparkTypeEnum@@PAUVectorStruct@@1M_K@Z ; CreateSpark
	add	esp, 24					; 00000018H

; 1471 : 			CreateSpark(SPARK_SPARK2, &obj->player->car.Aerial.Section[AERIAL_LASTSECTION].Pos, &obj->player->car.Body->Centre.Vel, 50, 0);

	push	0
	push	0
	push	1112014848				; 42480000H
	mov	eax, DWORD PTR _obj$[ebp]
	mov	ecx, DWORD PTR [eax+588]
	mov	edx, DWORD PTR [ecx+900]
	add	edx, 32					; 00000020H
	push	edx
	mov	eax, DWORD PTR _obj$[ebp]
	mov	ecx, DWORD PTR [eax+588]
	add	ecx, 1400				; 00000578H
	push	ecx
	push	1
	call	?CreateSpark@@YA_NW4SparkTypeEnum@@PAUVectorStruct@@1M_K@Z ; CreateSpark
	add	esp, 24					; 00000018H
$L83614:

; 1472 : 		}
; 1473 : 	} 
; 1474 : 	else if (bomb->Timer <= 0.0f)

	jmp	$L83576
$L83610:
	mov	eax, DWORD PTR _bomb$[ebp]
	fld	DWORD PTR [eax]
	fcomp	DWORD PTR __real@00000000
	fnstsw	ax
	test	ah, 65					; 00000041H
	jp	$L83576

; 1475 : 	{
; 1476 : 
; 1477 : // yep!
; 1478 : 
; 1479 : 		CopyVec(&obj->player->car.Body->Centre.Pos, &bomb->Pos);

	mov	eax, DWORD PTR _obj$[ebp]
	mov	ecx, DWORD PTR [eax+588]
	mov	edx, DWORD PTR [ecx+900]
	mov	eax, DWORD PTR _bomb$[ebp]
	mov	ecx, DWORD PTR [edx+20]
	mov	DWORD PTR [eax+12], ecx
	mov	eax, DWORD PTR _obj$[ebp]
	mov	ecx, DWORD PTR [eax+588]
	mov	edx, DWORD PTR [ecx+900]
	mov	eax, DWORD PTR _bomb$[ebp]
	mov	ecx, DWORD PTR [edx+24]
	mov	DWORD PTR [eax+16], ecx
	mov	eax, DWORD PTR _obj$[ebp]
	mov	ecx, DWORD PTR [eax+588]
	mov	edx, DWORD PTR [ecx+900]
	mov	eax, DWORD PTR _bomb$[ebp]
	mov	ecx, DWORD PTR [edx+28]
	mov	DWORD PTR [eax+20], ecx

; 1480 : 
; 1481 : 		bomb->Timer = 0.0f;

	mov	eax, DWORD PTR _bomb$[ebp]
	mov	DWORD PTR [eax], 0

; 1482 : 		bomb->SphereRadius = 80.0f;

	mov	eax, DWORD PTR _bomb$[ebp]
	mov	DWORD PTR [eax+4], 1117782016		; 42a00000H

; 1483 : 
; 1484 : 		SubVector(&bomb->Pos, &CAM_MainCamera->WPos, &vec);

	mov	eax, DWORD PTR _bomb$[ebp]
	mov	ecx, DWORD PTR ?CAM_MainCamera@@3PAUCameraStruct@@A ; CAM_MainCamera
	fld	DWORD PTR [eax+12]
	fsub	DWORD PTR [ecx+68]
	fstp	DWORD PTR _vec$[ebp]
	mov	eax, DWORD PTR _bomb$[ebp]
	mov	ecx, DWORD PTR ?CAM_MainCamera@@3PAUCameraStruct@@A ; CAM_MainCamera
	fld	DWORD PTR [eax+16]
	fsub	DWORD PTR [ecx+72]
	fstp	DWORD PTR _vec$[ebp+4]
	mov	eax, DWORD PTR _bomb$[ebp]
	mov	ecx, DWORD PTR ?CAM_MainCamera@@3PAUCameraStruct@@A ; CAM_MainCamera
	fld	DWORD PTR [eax+20]
	fsub	DWORD PTR [ecx+76]
	fstp	DWORD PTR _vec$[ebp+8]

; 1485 : 		CAM_MainCamera->Shake = 1.0f - (Length(&vec) / 2048.0f);

	fld	DWORD PTR _vec$[ebp]
	fmul	DWORD PTR _vec$[ebp]
	fld	DWORD PTR _vec$[ebp+4]
	fmul	DWORD PTR _vec$[ebp+4]
	faddp	ST(1), ST(0)
	fld	DWORD PTR _vec$[ebp+8]
	fmul	DWORD PTR _vec$[ebp+8]
	faddp	ST(1), ST(0)
	push	ecx
	fstp	DWORD PTR [esp]
	call	?sqrt@@YAMM@Z				; sqrt
	add	esp, 4
	fdiv	DWORD PTR __real@45000000
	fsubr	DWORD PTR __real@3f800000
	mov	eax, DWORD PTR ?CAM_MainCamera@@3PAUCameraStruct@@A ; CAM_MainCamera
	fstp	DWORD PTR [eax+188]

; 1486 : 		if (CAM_MainCamera->Shake < 0.0f) CAM_MainCamera->Shake = 0.0f;

	mov	eax, DWORD PTR ?CAM_MainCamera@@3PAUCameraStruct@@A ; CAM_MainCamera
	fld	DWORD PTR [eax+188]
	fcomp	DWORD PTR __real@00000000
	fnstsw	ax
	test	ah, 5
	jp	SHORT $L83618
	mov	eax, DWORD PTR ?CAM_MainCamera@@3PAUCameraStruct@@A ; CAM_MainCamera
	mov	DWORD PTR [eax+188], 0
$L83618:

; 1487 : 
; 1488 : 		obj->aihandler = (AI_HANDLER)PuttyBombBang;

	mov	eax, DWORD PTR _obj$[ebp]
	mov	DWORD PTR [eax+696], OFFSET FLAT:?PuttyBombBang@@YAXPAUobject_def@@@Z ; PuttyBombBang

; 1489 : 		obj->renderhandler = (RENDER_HANDLER)RenderPuttyBombBang;

	mov	eax, DWORD PTR _obj$[ebp]
	mov	DWORD PTR [eax+700], OFFSET FLAT:?RenderPuttyBombBang@@YAXPAUobject_def@@@Z ; RenderPuttyBombBang

; 1490 : 
; 1491 : // play bang sfx
; 1492 : 
; 1493 : 		PlaySfx3D(SFX_PUTTYBOMB_BANG, SFX_MAX_VOL, 22050, &bomb->Pos);

	mov	eax, DWORD PTR _bomb$[ebp]
	add	eax, 12					; 0000000cH
	push	eax
	push	22050					; 00005622H
	push	127					; 0000007fH
	push	15					; 0000000fH
	call	?PlaySfx3D@@YAXJJJPAUVectorStruct@@@Z	; PlaySfx3D
	add	esp, 16					; 00000010H

; 1494 : 
; 1495 : // light
; 1496 : 
; 1497 : 		obj->Light = AllocLight();

	call	?AllocLight@@YAPAULIGHT@@XZ		; AllocLight
	mov	ecx, DWORD PTR _obj$[ebp]
	mov	DWORD PTR [ecx+672], eax

; 1498 : 		if (obj->Light)

	mov	eax, DWORD PTR _obj$[ebp]
	cmp	DWORD PTR [eax+672], 0
	je	$L83621

; 1499 : 		{
; 1500 : 			CopyVec(&bomb->Pos, (VEC*)&obj->Light->x);

	mov	eax, DWORD PTR _obj$[ebp]
	mov	ecx, DWORD PTR [eax+672]
	mov	edx, DWORD PTR _bomb$[ebp]
	mov	eax, DWORD PTR [edx+12]
	mov	DWORD PTR [ecx], eax
	mov	eax, DWORD PTR _obj$[ebp]
	mov	ecx, DWORD PTR [eax+672]
	mov	edx, DWORD PTR _bomb$[ebp]
	mov	eax, DWORD PTR [edx+16]
	mov	DWORD PTR [ecx+4], eax
	mov	eax, DWORD PTR _obj$[ebp]
	mov	ecx, DWORD PTR [eax+672]
	mov	edx, DWORD PTR _bomb$[ebp]
	mov	eax, DWORD PTR [edx+20]
	mov	DWORD PTR [ecx+8], eax

; 1501 : 			obj->Light->Reach = 1024;

	mov	eax, DWORD PTR _obj$[ebp]
	mov	ecx, DWORD PTR [eax+672]
	mov	DWORD PTR [ecx+12], 1149239296		; 44800000H

; 1502 : 			obj->Light->Flag = LIGHT_FIXED | LIGHT_MOVING;

	mov	eax, DWORD PTR _obj$[ebp]
	mov	ecx, DWORD PTR [eax+672]
	mov	BYTE PTR [ecx+100], 3

; 1503 : 			obj->Light->Type = LIGHT_OMNI;

	mov	eax, DWORD PTR _obj$[ebp]
	mov	ecx, DWORD PTR [eax+672]
	mov	BYTE PTR [ecx+101], 0

; 1504 : 			obj->Light->r = 0;

	mov	eax, DWORD PTR _obj$[ebp]
	mov	ecx, DWORD PTR [eax+672]
	mov	DWORD PTR [ecx+88], 0

; 1505 : 			obj->Light->g = 0;

	mov	eax, DWORD PTR _obj$[ebp]
	mov	ecx, DWORD PTR [eax+672]
	mov	DWORD PTR [ecx+92], 0

; 1506 : 			obj->Light->b = 0;

	mov	eax, DWORD PTR _obj$[ebp]
	mov	ecx, DWORD PTR [eax+672]
	mov	DWORD PTR [ecx+96], 0
$L83621:

; 1507 : 		}
; 1508 : 
; 1509 : // setup bang pieces
; 1510 : 
; 1511 : 		for (i = 0 ; i < PUTTYBOMB_BANG_NUM ; i++)

	mov	DWORD PTR _i$[ebp], 0
	jmp	SHORT $L83625
$L83626:
	mov	eax, DWORD PTR _i$[ebp]
	add	eax, 1
	mov	DWORD PTR _i$[ebp], eax
$L83625:
	cmp	DWORD PTR _i$[ebp], 64			; 00000040H
	jge	$L83627

; 1512 : 		{
; 1513 : 			bomb->Bang[i].Age = -frand(PUTTYBOMB_BANG_STAGGER);

	call	_rand
	mov	DWORD PTR tv912[ebp], eax
	fild	DWORD PTR tv912[ebp]
	fdiv	DWORD PTR __real@46fffe00
	fmul	DWORD PTR __real@3f000000
	fchs
	mov	eax, DWORD PTR _i$[ebp]
	imul	eax, 36					; 00000024H
	mov	ecx, DWORD PTR _bomb$[ebp]
	fstp	DWORD PTR [ecx+eax+72]

; 1514 : 			bomb->Bang[i].Size = 64.0f - bomb->Bang[i].Age * 64.0f;

	mov	eax, DWORD PTR _i$[ebp]
	imul	eax, 36					; 00000024H
	mov	ecx, DWORD PTR _bomb$[ebp]
	fld	DWORD PTR [ecx+eax+72]
	fmul	DWORD PTR __real@42800000
	fsubr	DWORD PTR __real@42800000
	mov	edx, DWORD PTR _i$[ebp]
	imul	edx, 36					; 00000024H
	mov	eax, DWORD PTR _bomb$[ebp]
	fstp	DWORD PTR [eax+edx+76]

; 1515 : 			bomb->Bang[i].Life = PUTTYBOMB_ONE_BANG_TIME - PUTTYBOMB_BANG_STAGGER - bomb->Bang[i].Age;

	mov	eax, DWORD PTR _i$[ebp]
	imul	eax, 36					; 00000024H
	mov	ecx, DWORD PTR _bomb$[ebp]
	fld	DWORD PTR __real@3fc00000
	fsub	DWORD PTR [ecx+eax+72]
	mov	edx, DWORD PTR _i$[ebp]
	imul	edx, 36					; 00000024H
	mov	eax, DWORD PTR _bomb$[ebp]
	fstp	DWORD PTR [eax+edx+80]

; 1516 : 			SetVector(&bomb->Bang[i].Vel, 0.0f, -frand(64.0f) - 64.0f, 0.0f);

	mov	eax, DWORD PTR _i$[ebp]
	imul	eax, 36					; 00000024H
	mov	ecx, DWORD PTR _bomb$[ebp]
	mov	DWORD PTR [ecx+eax+60], 0
	call	_rand
	mov	DWORD PTR tv928[ebp], eax
	fild	DWORD PTR tv928[ebp]
	fdiv	DWORD PTR __real@46fffe00
	fmul	DWORD PTR __real@42800000
	fchs
	fsub	DWORD PTR __real@42800000
	mov	eax, DWORD PTR _i$[ebp]
	imul	eax, 36					; 00000024H
	mov	ecx, DWORD PTR _bomb$[ebp]
	fstp	DWORD PTR [ecx+eax+64]
	mov	eax, DWORD PTR _i$[ebp]
	imul	eax, 36					; 00000024H
	mov	ecx, DWORD PTR _bomb$[ebp]
	mov	DWORD PTR [ecx+eax+68], 0

; 1517 : 
; 1518 : 			SetVector(&vec, 0, 0, PUTTYBOMB_BANG_RADIUS * (-bomb->Bang[i].Age / PUTTYBOMB_BANG_STAGGER));

	mov	DWORD PTR _vec$[ebp], 0
	mov	DWORD PTR _vec$[ebp+4], 0
	mov	eax, DWORD PTR _i$[ebp]
	imul	eax, 36					; 00000024H
	mov	ecx, DWORD PTR _bomb$[ebp]
	fld	DWORD PTR [ecx+eax+72]
	fchs
	fdiv	DWORD PTR __real@3f000000
	fmul	DWORD PTR __real@43000000
	fstp	DWORD PTR _vec$[ebp+8]

; 1519 : 			RotMatrixZYX(&mat, frand(0.25f) - 0.25f, frand(1.0f), 0.0f);

	push	0
	call	_rand
	mov	DWORD PTR tv938[ebp], eax
	fild	DWORD PTR tv938[ebp]
	fdiv	DWORD PTR __real@46fffe00
	fmul	DWORD PTR __real@3f800000
	push	ecx
	fstp	DWORD PTR [esp]
	call	_rand
	mov	DWORD PTR tv940[ebp], eax
	fild	DWORD PTR tv940[ebp]
	fdiv	DWORD PTR __real@46fffe00
	fmul	DWORD PTR __real@3e800000
	fsub	DWORD PTR __real@3e800000
	push	ecx
	fstp	DWORD PTR [esp]
	lea	eax, DWORD PTR _mat$[ebp]
	push	eax
	call	?RotMatrixZYX@@YAXPATMatrixUnion@@MMM@Z	; RotMatrixZYX
	add	esp, 16					; 00000010H

; 1520 : 			RotTransVector(&mat, &bomb->Pos, &vec, &bomb->Bang[i].Pos);

	mov	eax, DWORD PTR _i$[ebp]
	imul	eax, 36					; 00000024H
	mov	ecx, DWORD PTR _bomb$[ebp]
	lea	edx, DWORD PTR [ecx+eax+48]
	push	edx
	lea	eax, DWORD PTR _vec$[ebp]
	push	eax
	mov	ecx, DWORD PTR _bomb$[ebp]
	add	ecx, 12					; 0000000cH
	push	ecx
	lea	edx, DWORD PTR _mat$[ebp]
	push	edx
	call	?RotTransVector@@YAXPATMatrixUnion@@PAUVectorStruct@@11@Z ; RotTransVector
	add	esp, 16					; 00000010H

; 1521 : 		}

	jmp	$L83626
$L83627:

; 1522 : 
; 1523 : // setup smoke verts
; 1524 : 
; 1525 : 		bomb->SmokeTime = 0.0f;

	mov	eax, DWORD PTR _bomb$[ebp]
	mov	DWORD PTR [eax+2384], 0

; 1526 : 
; 1527 : 		for (i = 0 ; i < PUTTYBOMB_SMOKE_NUM ; i++)

	mov	DWORD PTR _i$[ebp], 0
	jmp	SHORT $L83632
$L83633:
	mov	eax, DWORD PTR _i$[ebp]
	add	eax, 1
	mov	DWORD PTR _i$[ebp], eax
$L83632:
	cmp	DWORD PTR _i$[ebp], 8
	jge	SHORT $L83634

; 1528 : 		{
; 1529 : 			bomb->SmokeVert[i] = rand() % obj->player->car.Models->Body->VertNum;

	call	_rand
	mov	ecx, DWORD PTR _obj$[ebp]
	mov	edx, DWORD PTR [ecx+588]
	mov	ecx, DWORD PTR [edx+864]
	mov	edx, DWORD PTR [ecx+6064]
	movsx	ecx, WORD PTR [edx+34]
	cdq
	idiv	ecx
	mov	eax, DWORD PTR _i$[ebp]
	mov	ecx, DWORD PTR _bomb$[ebp]
	mov	DWORD PTR [ecx+eax*4+2352], edx

; 1530 : 		}

	jmp	SHORT $L83633
$L83634:

; 1531 : 
; 1532 : // scorch
; 1533 : 
; 1534 : 		SetBBox(&box,
; 1535 : 			bomb->Pos.v[X] - PUTTYBOMB_SCORCH_RADIUS,
; 1536 : 			bomb->Pos.v[X] + PUTTYBOMB_SCORCH_RADIUS,
; 1537 : 			bomb->Pos.v[Y] - PUTTYBOMB_SCORCH_RADIUS,
; 1538 : 			bomb->Pos.v[Y] + PUTTYBOMB_SCORCH_RADIUS,
; 1539 : 			bomb->Pos.v[Z] - PUTTYBOMB_SCORCH_RADIUS,
; 1540 : 			bomb->Pos.v[Z] + PUTTYBOMB_SCORCH_RADIUS);

	mov	eax, DWORD PTR _bomb$[ebp]
	fld	DWORD PTR [eax+12]
	fsub	DWORD PTR __real@43800000
	fstp	DWORD PTR _box$[ebp]
	mov	eax, DWORD PTR _bomb$[ebp]
	fld	DWORD PTR [eax+12]
	fadd	DWORD PTR __real@43800000
	fstp	DWORD PTR _box$[ebp+4]
	mov	eax, DWORD PTR _bomb$[ebp]
	fld	DWORD PTR [eax+16]
	fsub	DWORD PTR __real@43800000
	fstp	DWORD PTR _box$[ebp+8]
	mov	eax, DWORD PTR _bomb$[ebp]
	fld	DWORD PTR [eax+16]
	fadd	DWORD PTR __real@43800000
	fstp	DWORD PTR _box$[ebp+12]
	mov	eax, DWORD PTR _bomb$[ebp]
	fld	DWORD PTR [eax+20]
	fsub	DWORD PTR __real@43800000
	fstp	DWORD PTR _box$[ebp+16]
	mov	eax, DWORD PTR _bomb$[ebp]
	fld	DWORD PTR [eax+20]
	fadd	DWORD PTR __real@43800000
	fstp	DWORD PTR _box$[ebp+20]

; 1541 : 
; 1542 : 		cube = World.Cube;

	mov	eax, DWORD PTR ?World@@3UWORLD@@A+8
	mov	DWORD PTR _cube$[ebp], eax

; 1543 : 		for (i = 0 ; i < World.CubeNum ; i++, cube++)

	mov	DWORD PTR _i$[ebp], 0
	jmp	SHORT $L83635
$L83636:
	mov	eax, DWORD PTR _i$[ebp]
	add	eax, 1
	mov	DWORD PTR _i$[ebp], eax
	mov	ecx, DWORD PTR _cube$[ebp]
	add	ecx, 128				; 00000080H
	mov	DWORD PTR _cube$[ebp], ecx
$L83635:
	mov	eax, DWORD PTR _i$[ebp]
	cmp	eax, DWORD PTR ?World@@3UWORLD@@A
	jge	$L83637

; 1544 : 		{
; 1545 : 			if (cube->Xmin > box.XMax || cube->Xmax < box.XMin || cube->Ymin > box.YMax || cube->Ymax < box.YMin || cube->Zmin > box.ZMax || cube->Zmax < box.ZMin) continue;

	mov	eax, DWORD PTR _cube$[ebp]
	fld	DWORD PTR [eax+16]
	fcomp	DWORD PTR _box$[ebp+4]
	fnstsw	ax
	test	ah, 65					; 00000041H
	je	SHORT $L83639
	mov	eax, DWORD PTR _cube$[ebp]
	fld	DWORD PTR [eax+20]
	fcomp	DWORD PTR _box$[ebp]
	fnstsw	ax
	test	ah, 5
	jnp	SHORT $L83639
	mov	eax, DWORD PTR _cube$[ebp]
	fld	DWORD PTR [eax+24]
	fcomp	DWORD PTR _box$[ebp+12]
	fnstsw	ax
	test	ah, 65					; 00000041H
	je	SHORT $L83639
	mov	eax, DWORD PTR _cube$[ebp]
	fld	DWORD PTR [eax+28]
	fcomp	DWORD PTR _box$[ebp+8]
	fnstsw	ax
	test	ah, 5
	jnp	SHORT $L83639
	mov	eax, DWORD PTR _cube$[ebp]
	fld	DWORD PTR [eax+32]
	fcomp	DWORD PTR _box$[ebp+20]
	fnstsw	ax
	test	ah, 65					; 00000041H
	je	SHORT $L83639
	mov	eax, DWORD PTR _cube$[ebp]
	fld	DWORD PTR [eax+36]
	fcomp	DWORD PTR _box$[ebp+16]
	fnstsw	ax
	test	ah, 5
	jp	SHORT $L83638
$L83639:
	jmp	$L83636
$L83638:

; 1546 : 
; 1547 : 			dx = cube->CentreX - bomb->Pos.v[X];

	mov	eax, DWORD PTR _cube$[ebp]
	mov	ecx, DWORD PTR _bomb$[ebp]
	fld	DWORD PTR [eax]
	fsub	DWORD PTR [ecx+12]
	fstp	DWORD PTR _dx$[ebp]

; 1548 : 			dy = cube->CentreY - bomb->Pos.v[Y];

	mov	eax, DWORD PTR _cube$[ebp]
	mov	ecx, DWORD PTR _bomb$[ebp]
	fld	DWORD PTR [eax+4]
	fsub	DWORD PTR [ecx+16]
	fstp	DWORD PTR _dy$[ebp]

; 1549 : 			dz = cube->CentreZ - bomb->Pos.v[Z];

	mov	eax, DWORD PTR _cube$[ebp]
	mov	ecx, DWORD PTR _bomb$[ebp]
	fld	DWORD PTR [eax+8]
	fsub	DWORD PTR [ecx+20]
	fstp	DWORD PTR _dz$[ebp]

; 1550 : 			if ((float)sqrt(dx * dx + dy * dy + dz * dz) > PUTTYBOMB_SCORCH_RADIUS + cube->Radius) continue;

	fld	DWORD PTR _dx$[ebp]
	fmul	DWORD PTR _dx$[ebp]
	fld	DWORD PTR _dy$[ebp]
	fmul	DWORD PTR _dy$[ebp]
	faddp	ST(1), ST(0)
	fld	DWORD PTR _dz$[ebp]
	fmul	DWORD PTR _dz$[ebp]
	faddp	ST(1), ST(0)
	push	ecx
	fstp	DWORD PTR [esp]
	call	?sqrt@@YAMM@Z				; sqrt
	add	esp, 4
	mov	eax, DWORD PTR _cube$[ebp]
	fld	DWORD PTR __real@43800000
	fadd	DWORD PTR [eax+12]
	fcompp
	fnstsw	ax
	test	ah, 5
	jp	SHORT $L83641
	jmp	$L83636
$L83641:

; 1551 : 
; 1552 : 			wp = cube->Model.PolyPtr;

	mov	eax, DWORD PTR _cube$[ebp]
	mov	ecx, DWORD PTR [eax+100]
	mov	DWORD PTR _wp$[ebp], ecx

; 1553 : 			for (j = cube->Model.PolyNum ; j ; j--, wp++)

	mov	eax, DWORD PTR _cube$[ebp]
	movsx	ecx, WORD PTR [eax+72]
	mov	DWORD PTR _j$[ebp], ecx
	jmp	SHORT $L83642
$L83643:
	mov	eax, DWORD PTR _j$[ebp]
	sub	eax, 1
	mov	DWORD PTR _j$[ebp], eax
	mov	ecx, DWORD PTR _wp$[ebp]
	add	ecx, 80					; 00000050H
	mov	DWORD PTR _wp$[ebp], ecx
$L83642:
	cmp	DWORD PTR _j$[ebp], 0
	je	$L83644

; 1554 : 			{
; 1555 : 				wv = &wp->v0;

	mov	eax, DWORD PTR _wp$[ebp]
	add	eax, 64					; 00000040H
	mov	DWORD PTR _wv$[ebp], eax

; 1556 : 				wrgb = &wp->rgb0;

	mov	eax, DWORD PTR _wp$[ebp]
	add	eax, 16					; 00000010H
	mov	DWORD PTR _wrgb$[ebp], eax

; 1557 : 				vcount = 3 + (wp->Type & 1);

	mov	eax, DWORD PTR _wp$[ebp]
	movsx	ecx, WORD PTR [eax]
	and	ecx, 1
	add	ecx, 3
	mov	DWORD PTR _vcount$[ebp], ecx

; 1558 : 				for (k = 0 ; k < vcount ; k++)

	mov	DWORD PTR _k$[ebp], 0
	jmp	SHORT $L83645
$L83646:
	mov	eax, DWORD PTR _k$[ebp]
	add	eax, 1
	mov	DWORD PTR _k$[ebp], eax
$L83645:
	mov	eax, DWORD PTR _k$[ebp]
	cmp	eax, DWORD PTR _vcount$[ebp]
	jge	$L83647

; 1559 : 				{
; 1560 : 					SubVector(&bomb->Pos, (VEC*)&wv[k]->x, &vec);

	mov	eax, DWORD PTR _k$[ebp]
	mov	ecx, DWORD PTR _wv$[ebp]
	mov	edx, DWORD PTR [ecx+eax*4]
	mov	eax, DWORD PTR _bomb$[ebp]
	fld	DWORD PTR [eax+12]
	fsub	DWORD PTR [edx]
	fstp	DWORD PTR _vec$[ebp]
	mov	eax, DWORD PTR _k$[ebp]
	mov	ecx, DWORD PTR _wv$[ebp]
	mov	edx, DWORD PTR [ecx+eax*4]
	mov	eax, DWORD PTR _bomb$[ebp]
	fld	DWORD PTR [eax+16]
	fsub	DWORD PTR [edx+4]
	fstp	DWORD PTR _vec$[ebp+4]
	mov	eax, DWORD PTR _k$[ebp]
	mov	ecx, DWORD PTR _wv$[ebp]
	mov	edx, DWORD PTR [ecx+eax*4]
	mov	eax, DWORD PTR _bomb$[ebp]
	fld	DWORD PTR [eax+20]
	fsub	DWORD PTR [edx+8]
	fstp	DWORD PTR _vec$[ebp+8]

; 1561 : 					len = Length(&vec);

	fld	DWORD PTR _vec$[ebp]
	fmul	DWORD PTR _vec$[ebp]
	fld	DWORD PTR _vec$[ebp+4]
	fmul	DWORD PTR _vec$[ebp+4]
	faddp	ST(1), ST(0)
	fld	DWORD PTR _vec$[ebp+8]
	fmul	DWORD PTR _vec$[ebp+8]
	faddp	ST(1), ST(0)
	push	ecx
	fstp	DWORD PTR [esp]
	call	?sqrt@@YAMM@Z				; sqrt
	add	esp, 4
	fstp	DWORD PTR _len$[ebp]

; 1562 : 					if (len < PUTTYBOMB_SCORCH_RADIUS)

	fld	DWORD PTR _len$[ebp]
	fcomp	DWORD PTR __real@43800000
	fnstsw	ax
	test	ah, 5
	jp	$L83652

; 1563 : 					{
; 1564 : 						FTOL((1.0f - len / PUTTYBOMB_SCORCH_RADIUS) * 512.0f, per);

	fld	DWORD PTR _len$[ebp]
	fdiv	DWORD PTR __real@43800000
	fsubr	DWORD PTR __real@3f800000
	fmul	DWORD PTR __real@44000000
	fadd	DWORD PTR __real@4b000000
	fstp	DWORD PTR __temp$83653[ebp]
	mov	eax, DWORD PTR __temp$83653[ebp]
	and	eax, 16777215				; 00ffffffH
	mov	DWORD PTR _per$[ebp], eax

; 1565 : 						if (per > 256) per = 256;

	cmp	DWORD PTR _per$[ebp], 256		; 00000100H
	jle	SHORT $L83656
	mov	DWORD PTR _per$[ebp], 256		; 00000100H
$L83656:

; 1566 : 
; 1567 : 						mrgb = (MODEL_RGB*)&wrgb[k];

	mov	eax, DWORD PTR _k$[ebp]
	mov	ecx, DWORD PTR _wrgb$[ebp]
	lea	edx, DWORD PTR [ecx+eax*4]
	mov	DWORD PTR _mrgb$[ebp], edx

; 1568 : 						mrgb->r += (unsigned char)(((48 - mrgb->r) * per) >> 8);

	mov	eax, DWORD PTR _mrgb$[ebp]
	movzx	ecx, BYTE PTR [eax+2]
	mov	edx, 48					; 00000030H
	sub	edx, ecx
	imul	edx, DWORD PTR _per$[ebp]
	sar	edx, 8
	movzx	eax, dl
	mov	ecx, DWORD PTR _mrgb$[ebp]
	movzx	edx, BYTE PTR [ecx+2]
	add	edx, eax
	mov	eax, DWORD PTR _mrgb$[ebp]
	mov	BYTE PTR [eax+2], dl

; 1569 : 						mrgb->g += (unsigned char)(((24 - mrgb->g) * per) >> 8);

	mov	eax, DWORD PTR _mrgb$[ebp]
	movzx	ecx, BYTE PTR [eax+1]
	mov	edx, 24					; 00000018H
	sub	edx, ecx
	imul	edx, DWORD PTR _per$[ebp]
	sar	edx, 8
	movzx	eax, dl
	mov	ecx, DWORD PTR _mrgb$[ebp]
	movzx	edx, BYTE PTR [ecx+1]
	add	edx, eax
	mov	eax, DWORD PTR _mrgb$[ebp]
	mov	BYTE PTR [eax+1], dl

; 1570 : 						mrgb->b += (unsigned char)(((0 - mrgb->b) * per) >> 8);

	mov	eax, DWORD PTR _mrgb$[ebp]
	movzx	ecx, BYTE PTR [eax]
	xor	edx, edx
	sub	edx, ecx
	imul	edx, DWORD PTR _per$[ebp]
	sar	edx, 8
	movzx	eax, dl
	mov	ecx, DWORD PTR _mrgb$[ebp]
	movzx	edx, BYTE PTR [ecx]
	add	edx, eax
	mov	eax, DWORD PTR _mrgb$[ebp]
	mov	BYTE PTR [eax], dl

; 1571 : 						mrgb->a += (unsigned char)(((255 - mrgb->a) * per) >> 8);

	mov	eax, DWORD PTR _mrgb$[ebp]
	movzx	ecx, BYTE PTR [eax+3]
	mov	edx, 255				; 000000ffH
	sub	edx, ecx
	imul	edx, DWORD PTR _per$[ebp]
	sar	edx, 8
	movzx	eax, dl
	mov	ecx, DWORD PTR _mrgb$[ebp]
	movzx	edx, BYTE PTR [ecx+3]
	add	edx, eax
	mov	eax, DWORD PTR _mrgb$[ebp]
	mov	BYTE PTR [eax+3], dl
$L83652:

; 1572 : 					}
; 1573 : 				}

	jmp	$L83646
$L83647:

; 1574 : 			}

	jmp	$L83643
$L83644:

; 1575 : 		}

	jmp	$L83636
$L83637:

; 1576 : 
; 1577 : // calc bang impulse
; 1578 : 
; 1579 : 		SetVector(&imp, 0.0f, 0.0f, 0.0f);

	mov	DWORD PTR _imp$[ebp], 0
	mov	DWORD PTR _imp$[ebp+4], 0
	mov	DWORD PTR _imp$[ebp+8], 0

; 1580 : 		pos = &obj->player->car.Body->Centre.Pos;

	mov	eax, DWORD PTR _obj$[ebp]
	mov	ecx, DWORD PTR [eax+588]
	mov	edx, DWORD PTR [ecx+900]
	add	edx, 20					; 00000014H
	mov	DWORD PTR _pos$[ebp], edx

; 1581 : 		mass = obj->player->car.Body->Centre.Mass * 0.2f + 0.4f;

	mov	eax, DWORD PTR _obj$[ebp]
	mov	ecx, DWORD PTR [eax+588]
	mov	edx, DWORD PTR [ecx+900]
	fld	DWORD PTR [edx]
	fmul	DWORD PTR __real@3e4ccccd
	fadd	DWORD PTR __real@3ecccccd
	fstp	DWORD PTR _mass$[ebp]

; 1582 : 
; 1583 : 		header = PosToCollGrid(pos);

	mov	eax, DWORD PTR _pos$[ebp]
	push	eax
	call	?PosToCollGrid@@YAPAUCOLLGRID@@PAUVectorStruct@@@Z ; PosToCollGrid
	add	esp, 4
	mov	DWORD PTR _header$[ebp], eax

; 1584 : 		if (header)

	cmp	DWORD PTR _header$[ebp], 0
	je	$L83662

; 1585 : 		{
; 1586 : 			for (i = 0 ; i < header->NCollPolys ; i++)

	mov	DWORD PTR _i$[ebp], 0
	jmp	SHORT $L83663
$L83664:
	mov	eax, DWORD PTR _i$[ebp]
	add	eax, 1
	mov	DWORD PTR _i$[ebp], eax
$L83663:
	mov	eax, DWORD PTR _header$[ebp]
	mov	ecx, DWORD PTR _i$[ebp]
	cmp	ecx, DWORD PTR [eax]
	jge	$L83662

; 1587 : 			{
; 1588 : 				p = header->CollPolyPtr[i];

	mov	eax, DWORD PTR _header$[ebp]
	mov	ecx, DWORD PTR [eax+8]
	mov	edx, DWORD PTR _i$[ebp]
	mov	eax, DWORD PTR [ecx+edx*4]
	mov	DWORD PTR _p$[ebp], eax

; 1589 : 				sides = IsPolyQuad(p) ? 4 : 3;

	mov	eax, DWORD PTR _p$[ebp]
	mov	ecx, DWORD PTR [eax]
	and	ecx, 1
	neg	ecx
	sbb	ecx, ecx
	neg	ecx
	add	ecx, 3
	mov	DWORD PTR _sides$[ebp], ecx

; 1590 : 
; 1591 : 				for (j = 0 ; j < sides ; j++)

	mov	DWORD PTR _j$[ebp], 0
	jmp	SHORT $L83666
$L83667:
	mov	eax, DWORD PTR _j$[ebp]
	add	eax, 1
	mov	DWORD PTR _j$[ebp], eax
$L83666:
	mov	eax, DWORD PTR _j$[ebp]
	cmp	eax, DWORD PTR _sides$[ebp]
	jge	SHORT $L83668

; 1592 : 				{
; 1593 : 					if (PlaneDist(&p->EdgePlane[j], pos) > 0.0f)

	mov	eax, DWORD PTR _j$[ebp]
	shl	eax, 4
	mov	ecx, DWORD PTR _pos$[ebp]
	mov	edx, DWORD PTR _p$[ebp]
	fld	DWORD PTR [ecx]
	fmul	DWORD PTR [edx+eax+24]
	mov	eax, DWORD PTR _j$[ebp]
	shl	eax, 4
	mov	ecx, DWORD PTR _pos$[ebp]
	mov	edx, DWORD PTR _p$[ebp]
	fld	DWORD PTR [ecx+4]
	fmul	DWORD PTR [edx+eax+28]
	faddp	ST(1), ST(0)
	mov	eax, DWORD PTR _j$[ebp]
	shl	eax, 4
	mov	ecx, DWORD PTR _pos$[ebp]
	mov	edx, DWORD PTR _p$[ebp]
	fld	DWORD PTR [ecx+8]
	fmul	DWORD PTR [edx+eax+32]
	faddp	ST(1), ST(0)
	mov	eax, DWORD PTR _j$[ebp]
	shl	eax, 4
	mov	ecx, DWORD PTR _p$[ebp]
	fadd	DWORD PTR [ecx+eax+36]
	fcomp	DWORD PTR __real@00000000
	fnstsw	ax
	test	ah, 65					; 00000041H
	jne	SHORT $L83669

; 1594 : 						break;

	jmp	SHORT $L83668
$L83669:

; 1595 : 				}

	jmp	SHORT $L83667
$L83668:

; 1596 : 
; 1597 : 				if (j == sides)

	mov	eax, DWORD PTR _j$[ebp]
	cmp	eax, DWORD PTR _sides$[ebp]
	jne	$L83670

; 1598 : 				{
; 1599 : 					dist = PlaneDist(&p->Plane, pos);

	mov	eax, DWORD PTR _pos$[ebp]
	mov	ecx, DWORD PTR _p$[ebp]
	fld	DWORD PTR [eax]
	fmul	DWORD PTR [ecx+8]
	mov	edx, DWORD PTR _pos$[ebp]
	mov	eax, DWORD PTR _p$[ebp]
	fld	DWORD PTR [edx+4]
	fmul	DWORD PTR [eax+12]
	faddp	ST(1), ST(0)
	mov	ecx, DWORD PTR _pos$[ebp]
	mov	edx, DWORD PTR _p$[ebp]
	fld	DWORD PTR [ecx+8]
	fmul	DWORD PTR [edx+16]
	faddp	ST(1), ST(0)
	mov	eax, DWORD PTR _p$[ebp]
	fadd	DWORD PTR [eax+20]
	fstp	DWORD PTR _dist$[ebp]

; 1600 : 					if (dist > 0.0f && dist < PUTTYBOMB_BANG_IMPULSE_RANGE)

	fld	DWORD PTR _dist$[ebp]
	fcomp	DWORD PTR __real@00000000
	fnstsw	ax
	test	ah, 65					; 00000041H
	jne	SHORT $L83670
	fld	DWORD PTR _dist$[ebp]
	fcomp	DWORD PTR __real@43000000
	fnstsw	ax
	test	ah, 5
	jp	SHORT $L83670

; 1601 : 					{
; 1602 : 						mul = (PUTTYBOMB_BANG_IMPULSE_RANGE - dist) * 20.0f * mass;

	fld	DWORD PTR __real@43000000
	fsub	DWORD PTR _dist$[ebp]
	fmul	DWORD PTR __real@41a00000
	fmul	DWORD PTR _mass$[ebp]
	fstp	DWORD PTR _mul$[ebp]

; 1603 : 						VecPlusEqScalarVec(&imp, mul, (VEC*)&p->Plane);

	mov	eax, DWORD PTR _p$[ebp]
	fld	DWORD PTR _mul$[ebp]
	fmul	DWORD PTR [eax+8]
	fadd	DWORD PTR _imp$[ebp]
	fstp	DWORD PTR _imp$[ebp]
	mov	eax, DWORD PTR _p$[ebp]
	fld	DWORD PTR _mul$[ebp]
	fmul	DWORD PTR [eax+12]
	fadd	DWORD PTR _imp$[ebp+4]
	fstp	DWORD PTR _imp$[ebp+4]
	mov	eax, DWORD PTR _p$[ebp]
	fld	DWORD PTR _mul$[ebp]
	fmul	DWORD PTR [eax+16]
	fadd	DWORD PTR _imp$[ebp+8]
	fstp	DWORD PTR _imp$[ebp+8]
$L83670:

; 1604 : 					}
; 1605 : 				}
; 1606 : 			}

	jmp	$L83664
$L83662:

; 1607 : 		}
; 1608 : 	
; 1609 : 		rot = frand(RAD);

	call	_rand
	mov	DWORD PTR tv1135[ebp], eax
	fild	DWORD PTR tv1135[ebp]
	fdiv	DWORD PTR __real@46fffe00
	fmul	DWORD PTR __real@40c90fdb
	fstp	DWORD PTR _rot$[ebp]

; 1610 : 		mul = frand(20.0f);

	call	_rand
	mov	DWORD PTR tv1137[ebp], eax
	fild	DWORD PTR tv1137[ebp]
	fdiv	DWORD PTR __real@46fffe00
	fmul	DWORD PTR __real@41a00000
	fstp	DWORD PTR _mul$[ebp]

; 1611 : 		SetVector(&off, (float)sin(rot) * mul, 0.0f, (float)cos(rot) * mul);

	mov	eax, DWORD PTR _rot$[ebp]
	push	eax
	call	?sin@@YAMM@Z				; sin
	add	esp, 4
	fmul	DWORD PTR _mul$[ebp]
	fstp	DWORD PTR _off$[ebp]
	mov	DWORD PTR _off$[ebp+4], 0
	mov	eax, DWORD PTR _rot$[ebp]
	push	eax
	call	?cos@@YAMM@Z				; cos
	add	esp, 4
	fmul	DWORD PTR _mul$[ebp]
	fstp	DWORD PTR _off$[ebp+8]

; 1612 : 		ApplyBodyImpulse(obj->player->car.Body, &imp, &off);

	lea	eax, DWORD PTR _off$[ebp]
	push	eax
	lea	ecx, DWORD PTR _imp$[ebp]
	push	ecx
	mov	edx, DWORD PTR _obj$[ebp]
	mov	eax, DWORD PTR [edx+588]
	mov	ecx, DWORD PTR [eax+900]
	push	ecx
	call	?ApplyBodyImpulse@@YAXPAUNewBodyStruct@@PAUVectorStruct@@1@Z ; ApplyBodyImpulse
	add	esp, 12					; 0000000cH

; 1613 : 
; 1614 : // give its aerial back
; 1615 : 
; 1616 : 		obj->player->car.Aerial.Length = bomb->OrigAerialLen;

	mov	eax, DWORD PTR _obj$[ebp]
	mov	ecx, DWORD PTR [eax+588]
	mov	edx, DWORD PTR _bomb$[ebp]
	mov	eax, DWORD PTR [edx+8]
	mov	DWORD PTR [ecx+916], eax
$L83576:

; 1617 : 	}
; 1618 : }

	pop	edi
	pop	esi
	pop	ebx
	mov	esp, ebp
	pop	ebp
	ret	0
?PuttyBombHandler@@YAXPAUobject_def@@@Z ENDP		; PuttyBombHandler
_TEXT	ENDS
PUBLIC	_cosf
; Function compile flags: /Odt /ZI
; File c:\program files\microsoft visual studio .net 2003\vc7\include\math.h
;	COMDAT ?cos@@YAMM@Z
_TEXT	SEGMENT
__X$ = 8						; size = 4
?cos@@YAMM@Z PROC NEAR					; cos, COMDAT

; 549  :         {return (cosf(_X)); }

	push	ebp
	mov	ebp, esp
	sub	esp, 64					; 00000040H
	push	ebx
	push	esi
	push	edi
	mov	eax, DWORD PTR __X$[ebp]
	push	eax
	call	_cosf
	add	esp, 4
	pop	edi
	pop	esi
	pop	ebx
	mov	esp, ebp
	pop	ebp
	ret	0
?cos@@YAMM@Z ENDP					; cos
_TEXT	ENDS
EXTRN	_cos:NEAR
; Function compile flags: /Odt /ZI
;	COMDAT _cosf
_TEXT	SEGMENT
tv70 = -68						; size = 4
__X$ = 8						; size = 4
_cosf	PROC NEAR					; COMDAT

; 444  :         {return ((float)cos((double)_X)); }

	push	ebp
	mov	ebp, esp
	sub	esp, 68					; 00000044H
	push	ebx
	push	esi
	push	edi
	fld	DWORD PTR __X$[ebp]
	sub	esp, 8
	fstp	QWORD PTR [esp]
	call	_cos
	add	esp, 8
	fst	DWORD PTR tv70[ebp]
	pop	edi
	pop	esi
	pop	ebx
	mov	esp, ebp
	pop	ebp
	ret	0
_cosf	ENDP
_TEXT	ENDS
PUBLIC	_sinf
; Function compile flags: /Odt /ZI
;	COMDAT ?sin@@YAMM@Z
_TEXT	SEGMENT
__X$ = 8						; size = 4
?sin@@YAMM@Z PROC NEAR					; sin, COMDAT

; 575  :         {return (sinf(_X)); }

	push	ebp
	mov	ebp, esp
	sub	esp, 64					; 00000040H
	push	ebx
	push	esi
	push	edi
	mov	eax, DWORD PTR __X$[ebp]
	push	eax
	call	_sinf
	add	esp, 4
	pop	edi
	pop	esi
	pop	ebx
	mov	esp, ebp
	pop	ebp
	ret	0
?sin@@YAMM@Z ENDP					; sin
_TEXT	ENDS
EXTRN	_sin:NEAR
; Function compile flags: /Odt /ZI
;	COMDAT _sinf
_TEXT	SEGMENT
tv70 = -68						; size = 4
__X$ = 8						; size = 4
_sinf	PROC NEAR					; COMDAT

; 466  :         {return ((float)sin((double)_X)); }

	push	ebp
	mov	ebp, esp
	sub	esp, 68					; 00000044H
	push	ebx
	push	esi
	push	edi
	fld	DWORD PTR __X$[ebp]
	sub	esp, 8
	fstp	QWORD PTR [esp]
	call	_sin
	add	esp, 8
	fst	DWORD PTR tv70[ebp]
	pop	edi
	pop	esi
	pop	ebx
	mov	esp, ebp
	pop	ebp
	ret	0
_sinf	ENDP
_TEXT	ENDS
PUBLIC	__real@40490fdb
PUBLIC	__real@43700000
PUBLIC	__real@41700000
PUBLIC	__real@3d400000
PUBLIC	__real@3e100000
PUBLIC	__real@3e880000
PUBLIC	__real@3d8f5c29
PUBLIC	?PuttyBombWorldMeshFxChecker@@YAXPAX@Z		; PuttyBombWorldMeshFxChecker
PUBLIC	?PuttyBombModelMeshFxChecker@@YAXPAX@Z		; PuttyBombModelMeshFxChecker
EXTRN	?TimeFactor@@3MA:DWORD				; TimeFactor
;	COMDAT __real@40490fdb
; File c:\documents and settings\jarhead\desktop\shit to display my love for xbox revolt and fuck you borman-ness\revolt source\source\weapon.cpp
CONST	SEGMENT
__real@40490fdb DD 040490fdbr			; 3.14159
CONST	ENDS
;	COMDAT __real@43700000
CONST	SEGMENT
__real@43700000 DD 043700000r			; 240
CONST	ENDS
;	COMDAT __real@41700000
CONST	SEGMENT
__real@41700000 DD 041700000r			; 15
CONST	ENDS
;	COMDAT __real@3d400000
CONST	SEGMENT
__real@3d400000 DD 03d400000r			; 0.046875
CONST	ENDS
;	COMDAT __real@3e100000
CONST	SEGMENT
__real@3e100000 DD 03e100000r			; 0.140625
CONST	ENDS
;	COMDAT __real@3e880000
CONST	SEGMENT
__real@3e880000 DD 03e880000r			; 0.265625
CONST	ENDS
;	COMDAT __real@3d8f5c29
CONST	SEGMENT
__real@3d8f5c29 DD 03d8f5c29r			; 0.07
; Function compile flags: /Odt /ZI
CONST	ENDS
;	COMDAT ?PuttyBombBang@@YAXPAUobject_def@@@Z
_TEXT	SEGMENT
tv476 = -108						; size = 4
tv475 = -104						; size = 4
__temp$83693 = -36					; size = 4
_i$ = -32						; size = 4
_vec$ = -28						; size = 12
_mv$ = -16						; size = 4
_model$ = -12						; size = 4
_vert$ = -8						; size = 4
_bomb$ = -4						; size = 4
_obj$ = 8						; size = 4
?PuttyBombBang@@YAXPAUobject_def@@@Z PROC NEAR		; PuttyBombBang, COMDAT

; 1625 : {

	push	ebp
	mov	ebp, esp
	sub	esp, 108				; 0000006cH
	push	ebx
	push	esi
	push	edi

; 1626 : 	PUTTYBOMB_OBJ *bomb = (PUTTYBOMB_OBJ*)obj->Data;

	mov	eax, DWORD PTR _obj$[ebp]
	mov	ecx, DWORD PTR [eax+684]
	mov	DWORD PTR _bomb$[ebp], ecx

; 1627 : 	PUTTYBOMB_VERT *vert;
; 1628 : 	MODEL *model = &LevelModel[obj->DefaultModel].Model;

	mov	eax, DWORD PTR _obj$[ebp]
	mov	ecx, DWORD PTR [eax+656]
	imul	ecx, 168				; 000000a8H
	add	ecx, OFFSET FLAT:?LevelModel@@3PAULEVEL_MODEL@@A+8
	mov	DWORD PTR _model$[ebp], ecx

; 1629 : 	MODEL_VERTEX *mv;
; 1630 : 	VEC vec;
; 1631 : 	long i;
; 1632 : 
; 1633 : // darken car
; 1634 : 
; 1635 : 	if (bomb->Timer < PUTTYBOMB_SPHERE_TIME)

	mov	eax, DWORD PTR _bomb$[ebp]
	fld	DWORD PTR [eax]
	fcomp	DWORD PTR __real@3f000000
	fnstsw	ax
	test	ah, 5
	jp	SHORT $L83689

; 1636 : 	{
; 1637 : 		obj->player->car.AddLit -= (long)(TimeStep * 2000);

	mov	eax, DWORD PTR _obj$[ebp]
	mov	esi, DWORD PTR [eax+588]
	fld	DWORD PTR ?TimeStep@@3MA		; TimeStep
	fmul	DWORD PTR __real@44fa0000
	call	__ftol2
	mov	ecx, DWORD PTR [esi+3560]
	sub	ecx, eax
	mov	edx, DWORD PTR _obj$[ebp]
	mov	eax, DWORD PTR [edx+588]
	mov	DWORD PTR [eax+3560], ecx

; 1638 : 		if (obj->player->car.AddLit < -1000) obj->player->car.AddLit = -1000;

	mov	eax, DWORD PTR _obj$[ebp]
	mov	ecx, DWORD PTR [eax+588]
	cmp	DWORD PTR [ecx+3560], -1000		; fffffc18H
	jge	SHORT $L83689
	mov	eax, DWORD PTR _obj$[ebp]
	mov	ecx, DWORD PTR [eax+588]
	mov	DWORD PTR [ecx+3560], -1000		; fffffc18H
$L83689:

; 1639 : 	}
; 1640 : 
; 1641 : // maintain light?
; 1642 : 
; 1643 : 	if (obj->Light)

	mov	eax, DWORD PTR _obj$[ebp]
	cmp	DWORD PTR [eax+672], 0
	je	SHORT $L83692

; 1644 : 	{
; 1645 : 		FTOL((float)sin(bomb->Timer / PUTTYBOMB_BANG_TIME * (RAD / 2.0f)) * 240.0f + frand(15.0f), obj->Light->r);

	mov	eax, DWORD PTR _bomb$[ebp]
	fld	DWORD PTR [eax]
	fdiv	DWORD PTR __real@40200000
	fmul	DWORD PTR __real@40490fdb
	push	ecx
	fstp	DWORD PTR [esp]
	call	?sin@@YAMM@Z				; sin
	add	esp, 4
	fmul	DWORD PTR __real@43700000
	fstp	DWORD PTR tv475[ebp]
	call	_rand
	mov	DWORD PTR tv476[ebp], eax
	fild	DWORD PTR tv476[ebp]
	fdiv	DWORD PTR __real@46fffe00
	fmul	DWORD PTR __real@41700000
	fadd	DWORD PTR tv475[ebp]
	fadd	DWORD PTR __real@4b000000
	fstp	DWORD PTR __temp$83693[ebp]
	mov	eax, DWORD PTR __temp$83693[ebp]
	and	eax, 16777215				; 00ffffffH
	mov	ecx, DWORD PTR _obj$[ebp]
	mov	edx, DWORD PTR [ecx+672]
	mov	DWORD PTR [edx+88], eax

; 1646 : 		obj->Light->g = obj->Light->r >> 1;

	mov	eax, DWORD PTR _obj$[ebp]
	mov	ecx, DWORD PTR [eax+672]
	mov	edx, DWORD PTR [ecx+88]
	sar	edx, 1
	mov	eax, DWORD PTR _obj$[ebp]
	mov	ecx, DWORD PTR [eax+672]
	mov	DWORD PTR [ecx+92], edx
$L83692:

; 1647 : 	}
; 1648 : 
; 1649 : // maintain pieces
; 1650 : 
; 1651 : 	for (i = 0 ; i < PUTTYBOMB_BANG_NUM ; i++)

	mov	DWORD PTR _i$[ebp], 0
	jmp	SHORT $L83698
$L83699:
	mov	eax, DWORD PTR _i$[ebp]
	add	eax, 1
	mov	DWORD PTR _i$[ebp], eax
$L83698:
	cmp	DWORD PTR _i$[ebp], 64			; 00000040H
	jge	$L83700

; 1652 : 	{
; 1653 : 		if (bomb->Bang[i].Age < 0.0f)

	mov	eax, DWORD PTR _i$[ebp]
	imul	eax, 36					; 00000024H
	mov	ecx, DWORD PTR _bomb$[ebp]
	fld	DWORD PTR [ecx+eax+72]
	fcomp	DWORD PTR __real@00000000
	fnstsw	ax
	test	ah, 5
	jp	$L83701

; 1654 : 		{
; 1655 : 			VecPlusEqScalarVec(&bomb->Bang[i].Pos, TimeStep, &obj->player->car.Body->Centre.Vel);

	mov	eax, DWORD PTR _i$[ebp]
	imul	eax, 36					; 00000024H
	mov	ecx, DWORD PTR _obj$[ebp]
	mov	edx, DWORD PTR [ecx+588]
	mov	ecx, DWORD PTR [edx+900]
	fld	DWORD PTR ?TimeStep@@3MA		; TimeStep
	fmul	DWORD PTR [ecx+32]
	mov	edx, DWORD PTR _bomb$[ebp]
	fadd	DWORD PTR [edx+eax+48]
	mov	eax, DWORD PTR _i$[ebp]
	imul	eax, 36					; 00000024H
	mov	ecx, DWORD PTR _bomb$[ebp]
	fstp	DWORD PTR [ecx+eax+48]
	mov	eax, DWORD PTR _i$[ebp]
	imul	eax, 36					; 00000024H
	mov	ecx, DWORD PTR _obj$[ebp]
	mov	edx, DWORD PTR [ecx+588]
	mov	ecx, DWORD PTR [edx+900]
	fld	DWORD PTR ?TimeStep@@3MA		; TimeStep
	fmul	DWORD PTR [ecx+36]
	mov	edx, DWORD PTR _bomb$[ebp]
	fadd	DWORD PTR [edx+eax+52]
	mov	eax, DWORD PTR _i$[ebp]
	imul	eax, 36					; 00000024H
	mov	ecx, DWORD PTR _bomb$[ebp]
	fstp	DWORD PTR [ecx+eax+52]
	mov	eax, DWORD PTR _i$[ebp]
	imul	eax, 36					; 00000024H
	mov	ecx, DWORD PTR _obj$[ebp]
	mov	edx, DWORD PTR [ecx+588]
	mov	ecx, DWORD PTR [edx+900]
	fld	DWORD PTR ?TimeStep@@3MA		; TimeStep
	fmul	DWORD PTR [ecx+40]
	mov	edx, DWORD PTR _bomb$[ebp]
	fadd	DWORD PTR [edx+eax+56]
	mov	eax, DWORD PTR _i$[ebp]
	imul	eax, 36					; 00000024H
	mov	ecx, DWORD PTR _bomb$[ebp]
	fstp	DWORD PTR [ecx+eax+56]

; 1656 : 
; 1657 : 			bomb->Bang[i].Vel.v[X] = obj->player->car.Body->Centre.Vel.v[X];

	mov	eax, DWORD PTR _obj$[ebp]
	mov	ecx, DWORD PTR [eax+588]
	mov	edx, DWORD PTR [ecx+900]
	mov	eax, DWORD PTR _i$[ebp]
	imul	eax, 36					; 00000024H
	mov	ecx, DWORD PTR _bomb$[ebp]
	mov	edx, DWORD PTR [edx+32]
	mov	DWORD PTR [ecx+eax+60], edx

; 1658 : 			bomb->Bang[i].Vel.v[Z] = obj->player->car.Body->Centre.Vel.v[Z];

	mov	eax, DWORD PTR _obj$[ebp]
	mov	ecx, DWORD PTR [eax+588]
	mov	edx, DWORD PTR [ecx+900]
	mov	eax, DWORD PTR _i$[ebp]
	imul	eax, 36					; 00000024H
	mov	ecx, DWORD PTR _bomb$[ebp]
	mov	edx, DWORD PTR [edx+40]
	mov	DWORD PTR [ecx+eax+68], edx

; 1659 : 		}
; 1660 : 		else

	jmp	$L83702
$L83701:

; 1661 : 		{
; 1662 : 			VecPlusEqScalarVec(&bomb->Bang[i].Pos, TimeStep, &bomb->Bang[i].Vel);

	mov	eax, DWORD PTR _i$[ebp]
	imul	eax, 36					; 00000024H
	mov	ecx, DWORD PTR _i$[ebp]
	imul	ecx, 36					; 00000024H
	mov	edx, DWORD PTR _bomb$[ebp]
	fld	DWORD PTR ?TimeStep@@3MA		; TimeStep
	fmul	DWORD PTR [edx+ecx+60]
	mov	ecx, DWORD PTR _bomb$[ebp]
	fadd	DWORD PTR [ecx+eax+48]
	mov	edx, DWORD PTR _i$[ebp]
	imul	edx, 36					; 00000024H
	mov	eax, DWORD PTR _bomb$[ebp]
	fstp	DWORD PTR [eax+edx+48]
	mov	eax, DWORD PTR _i$[ebp]
	imul	eax, 36					; 00000024H
	mov	ecx, DWORD PTR _i$[ebp]
	imul	ecx, 36					; 00000024H
	mov	edx, DWORD PTR _bomb$[ebp]
	fld	DWORD PTR ?TimeStep@@3MA		; TimeStep
	fmul	DWORD PTR [edx+ecx+64]
	mov	ecx, DWORD PTR _bomb$[ebp]
	fadd	DWORD PTR [ecx+eax+52]
	mov	edx, DWORD PTR _i$[ebp]
	imul	edx, 36					; 00000024H
	mov	eax, DWORD PTR _bomb$[ebp]
	fstp	DWORD PTR [eax+edx+52]
	mov	eax, DWORD PTR _i$[ebp]
	imul	eax, 36					; 00000024H
	mov	ecx, DWORD PTR _i$[ebp]
	imul	ecx, 36					; 00000024H
	mov	edx, DWORD PTR _bomb$[ebp]
	fld	DWORD PTR ?TimeStep@@3MA		; TimeStep
	fmul	DWORD PTR [edx+ecx+68]
	mov	ecx, DWORD PTR _bomb$[ebp]
	fadd	DWORD PTR [ecx+eax+56]
	mov	edx, DWORD PTR _i$[ebp]
	imul	edx, 36					; 00000024H
	mov	eax, DWORD PTR _bomb$[ebp]
	fstp	DWORD PTR [eax+edx+56]

; 1663 : 
; 1664 : 			bomb->Bang[i].Vel.v[X] *= (1.0f - 1.5f * TimeStep);

	mov	eax, DWORD PTR _i$[ebp]
	imul	eax, 36					; 00000024H
	fld	DWORD PTR __real@3fc00000
	fmul	DWORD PTR ?TimeStep@@3MA		; TimeStep
	fsubr	DWORD PTR __real@3f800000
	mov	ecx, DWORD PTR _bomb$[ebp]
	fmul	DWORD PTR [ecx+eax+60]
	mov	edx, DWORD PTR _i$[ebp]
	imul	edx, 36					; 00000024H
	mov	eax, DWORD PTR _bomb$[ebp]
	fstp	DWORD PTR [eax+edx+60]

; 1665 : 			bomb->Bang[i].Vel.v[Z] *= (1.0f - 1.5f * TimeStep);

	mov	eax, DWORD PTR _i$[ebp]
	imul	eax, 36					; 00000024H
	fld	DWORD PTR __real@3fc00000
	fmul	DWORD PTR ?TimeStep@@3MA		; TimeStep
	fsubr	DWORD PTR __real@3f800000
	mov	ecx, DWORD PTR _bomb$[ebp]
	fmul	DWORD PTR [ecx+eax+68]
	mov	edx, DWORD PTR _i$[ebp]
	imul	edx, 36					; 00000024H
	mov	eax, DWORD PTR _bomb$[ebp]
	fstp	DWORD PTR [eax+edx+68]
$L83702:

; 1666 : 		}
; 1667 : 
; 1668 : 		bomb->Bang[i].Age += TimeStep;

	mov	eax, DWORD PTR _i$[ebp]
	imul	eax, 36					; 00000024H
	mov	ecx, DWORD PTR _bomb$[ebp]
	fld	DWORD PTR ?TimeStep@@3MA		; TimeStep
	fadd	DWORD PTR [ecx+eax+72]
	mov	edx, DWORD PTR _i$[ebp]
	imul	edx, 36					; 00000024H
	mov	eax, DWORD PTR _bomb$[ebp]
	fstp	DWORD PTR [eax+edx+72]

; 1669 : 	}

	jmp	$L83699
$L83700:

; 1670 : 
; 1671 : // release smoke
; 1672 : 
; 1673 : 	if (bomb->Timer > PUTTYBOMB_SPHERE_TIME)

	mov	eax, DWORD PTR _bomb$[ebp]
	fld	DWORD PTR [eax]
	fcomp	DWORD PTR __real@3f000000
	fnstsw	ax
	test	ah, 65					; 00000041H
	jne	$L83703

; 1674 : 	{
; 1675 : 		bomb->SmokeTime += TimeStep;

	mov	eax, DWORD PTR _bomb$[ebp]
	fld	DWORD PTR ?TimeStep@@3MA		; TimeStep
	fadd	DWORD PTR [eax+2384]
	mov	ecx, DWORD PTR _bomb$[ebp]
	fstp	DWORD PTR [ecx+2384]

; 1676 : 		if (bomb->SmokeTime >= 0.1f)

	mov	eax, DWORD PTR _bomb$[ebp]
	fld	DWORD PTR [eax+2384]
	fcomp	DWORD PTR __real@3dcccccd
	fnstsw	ax
	test	ah, 1
	jne	$L83703

; 1677 : 		{
; 1678 : 			for (i = 0 ; i < PUTTYBOMB_SMOKE_NUM ; i++)

	mov	DWORD PTR _i$[ebp], 0
	jmp	SHORT $L83705
$L83706:
	mov	eax, DWORD PTR _i$[ebp]
	add	eax, 1
	mov	DWORD PTR _i$[ebp], eax
$L83705:
	cmp	DWORD PTR _i$[ebp], 8
	jge	SHORT $L83707

; 1679 : 			{
; 1680 : 				RotTransVector(&obj->player->car.Body->Centre.WMatrix, &obj->player->car.BodyWorldPos, (VEC*)&obj->player->car.Models->Body->VertPtr[bomb->SmokeVert[i]].x, &vec);

	lea	eax, DWORD PTR _vec$[ebp]
	push	eax
	mov	ecx, DWORD PTR _obj$[ebp]
	mov	edx, DWORD PTR [ecx+588]
	mov	eax, DWORD PTR [edx+864]
	mov	ecx, DWORD PTR [eax+6064]
	mov	edx, DWORD PTR _i$[ebp]
	mov	eax, DWORD PTR _bomb$[ebp]
	mov	edx, DWORD PTR [eax+edx*4+2352]
	imul	edx, 88					; 00000058H
	add	edx, DWORD PTR [ecx+52]
	push	edx
	mov	eax, DWORD PTR _obj$[ebp]
	mov	ecx, DWORD PTR [eax+588]
	add	ecx, 816				; 00000330H
	push	ecx
	mov	edx, DWORD PTR _obj$[ebp]
	mov	eax, DWORD PTR [edx+588]
	mov	ecx, DWORD PTR [eax+900]
	add	ecx, 100				; 00000064H
	push	ecx
	call	?RotTransVector@@YAXPATMatrixUnion@@PAUVectorStruct@@11@Z ; RotTransVector
	add	esp, 16					; 00000010H

; 1681 : 				CreateSpark(SPARK_SMOKE3, &vec, &BombSmokeVel, 16.0f, 0);

	push	0
	push	0
	push	1098907648				; 41800000H
	push	OFFSET FLAT:_BombSmokeVel
	lea	eax, DWORD PTR _vec$[ebp]
	push	eax
	push	12					; 0000000cH
	call	?CreateSpark@@YA_NW4SparkTypeEnum@@PAUVectorStruct@@1M_K@Z ; CreateSpark
	add	esp, 24					; 00000018H

; 1682 : 			}

	jmp	$L83706
$L83707:

; 1683 : 			bomb->SmokeTime -= 0.1f;

	mov	eax, DWORD PTR _bomb$[ebp]
	fld	DWORD PTR [eax+2384]
	fsub	DWORD PTR __real@3dcccccd
	mov	ecx, DWORD PTR _bomb$[ebp]
	fstp	DWORD PTR [ecx+2384]
$L83703:

; 1684 : 		}
; 1685 : 	}
; 1686 : 
; 1687 : // set vert UV's
; 1688 : 
; 1689 : 	vert = (PUTTYBOMB_VERT*)(bomb + 1);

	mov	eax, DWORD PTR _bomb$[ebp]
	add	eax, 2388				; 00000954H
	mov	DWORD PTR _vert$[ebp], eax

; 1690 : 	mv = model->VertPtr;

	mov	eax, DWORD PTR _model$[ebp]
	mov	ecx, DWORD PTR [eax+52]
	mov	DWORD PTR _mv$[ebp], ecx

; 1691 : 
; 1692 : 	for (i = model->VertNum ; i ; i--, mv++, vert++)

	mov	eax, DWORD PTR _model$[ebp]
	movsx	ecx, WORD PTR [eax+34]
	mov	DWORD PTR _i$[ebp], ecx
	jmp	SHORT $L83710
$L83711:
	mov	eax, DWORD PTR _i$[ebp]
	sub	eax, 1
	mov	DWORD PTR _i$[ebp], eax
	mov	ecx, DWORD PTR _mv$[ebp]
	add	ecx, 88					; 00000058H
	mov	DWORD PTR _mv$[ebp], ecx
	mov	edx, DWORD PTR _vert$[ebp]
	add	edx, 8
	mov	DWORD PTR _vert$[ebp], edx
$L83710:
	cmp	DWORD PTR _i$[ebp], 0
	je	SHORT $L83712

; 1693 : 	{
; 1694 : 		vert->Time += vert->TimeAdd * TimeStep;

	mov	eax, DWORD PTR _vert$[ebp]
	fld	DWORD PTR ?TimeStep@@3MA		; TimeStep
	fmul	DWORD PTR [eax+4]
	mov	ecx, DWORD PTR _vert$[ebp]
	fadd	DWORD PTR [ecx]
	mov	edx, DWORD PTR _vert$[ebp]
	fstp	DWORD PTR [edx]

; 1695 : 
; 1696 : 		mv->tu = (float)sin(vert->Time) * (12.0f / 256.0f) + (36.0f / 256.0f);

	mov	eax, DWORD PTR _vert$[ebp]
	mov	ecx, DWORD PTR [eax]
	push	ecx
	call	?sin@@YAMM@Z				; sin
	add	esp, 4
	fmul	DWORD PTR __real@3d400000
	fadd	DWORD PTR __real@3e100000
	mov	edx, DWORD PTR _mv$[ebp]
	fstp	DWORD PTR [edx+60]

; 1697 : 		mv->tv = (float)cos(vert->Time) * (12.0f / 256.0f) + (68.0f / 256.0f);

	mov	eax, DWORD PTR _vert$[ebp]
	mov	ecx, DWORD PTR [eax]
	push	ecx
	call	?cos@@YAMM@Z				; cos
	add	esp, 4
	fmul	DWORD PTR __real@3d400000
	fadd	DWORD PTR __real@3e880000
	mov	edx, DWORD PTR _mv$[ebp]
	fstp	DWORD PTR [edx+64]

; 1698 : 	}

	jmp	SHORT $L83711
$L83712:

; 1699 : 
; 1700 : // set sphere size
; 1701 : 
; 1702 : 	if (bomb->SphereRadius < 512.0f)

	mov	eax, DWORD PTR _bomb$[ebp]
	fld	DWORD PTR [eax+4]
	fcomp	DWORD PTR __real@44000000
	fnstsw	ax
	test	ah, 5
	jp	SHORT $L83715

; 1703 : 	bomb->SphereRadius += (512.0f - bomb->SphereRadius) * 0.07f * TimeFactor;

	mov	eax, DWORD PTR _bomb$[ebp]
	fld	DWORD PTR __real@44000000
	fsub	DWORD PTR [eax+4]
	fmul	DWORD PTR __real@3d8f5c29
	fmul	DWORD PTR ?TimeFactor@@3MA		; TimeFactor
	mov	ecx, DWORD PTR _bomb$[ebp]
	fadd	DWORD PTR [ecx+4]
	mov	edx, DWORD PTR _bomb$[ebp]
	fstp	DWORD PTR [edx+4]
$L83715:

; 1704 : 
; 1705 : // inc timer, kill?
; 1706 : 
; 1707 : 	bomb->Timer += TimeStep;

	mov	eax, DWORD PTR _bomb$[ebp]
	fld	DWORD PTR ?TimeStep@@3MA		; TimeStep
	fadd	DWORD PTR [eax]
	mov	ecx, DWORD PTR _bomb$[ebp]
	fstp	DWORD PTR [ecx]

; 1708 : 	if (bomb->Timer >= PUTTYBOMB_BANG_TIME)

	mov	eax, DWORD PTR _bomb$[ebp]
	fld	DWORD PTR [eax]
	fcomp	DWORD PTR __real@40200000
	fnstsw	ax
	test	ah, 1
	jne	SHORT $L83716

; 1709 : 	{
; 1710 : 		obj->player->car.IsBomb = FALSE;

	mov	eax, DWORD PTR _obj$[ebp]
	mov	ecx, DWORD PTR [eax+588]
	mov	DWORD PTR [ecx+3568], 0

; 1711 : 		OBJ_FreeObject(obj);

	mov	eax, DWORD PTR _obj$[ebp]
	push	eax
	call	?OBJ_FreeObject@@YAJPAUobject_def@@@Z	; OBJ_FreeObject
	add	esp, 4

; 1712 : 		return;

	jmp	$L83681
$L83716:

; 1713 : 	}
; 1714 : 
; 1715 : // set bounding box + add to mesh fx lists
; 1716 : 
; 1717 : 	if (bomb->Timer < PUTTYBOMB_SPHERE_TIME)

	mov	eax, DWORD PTR _bomb$[ebp]
	fld	DWORD PTR [eax]
	fcomp	DWORD PTR __real@3f000000
	fnstsw	ax
	test	ah, 5
	jp	$L83681

; 1718 : 	{
; 1719 : 		SetBBox(&bomb->Box,
; 1720 : 			bomb->Pos.v[X] - bomb->SphereRadius - PUTTYBOMB_PUSH_RANGE,
; 1721 : 			bomb->Pos.v[X] + bomb->SphereRadius + PUTTYBOMB_PUSH_RANGE,
; 1722 : 			bomb->Pos.v[Y] - bomb->SphereRadius - PUTTYBOMB_PUSH_RANGE,
; 1723 : 			bomb->Pos.v[Y] + bomb->SphereRadius + PUTTYBOMB_PUSH_RANGE,
; 1724 : 			bomb->Pos.v[Z] - bomb->SphereRadius - PUTTYBOMB_PUSH_RANGE,
; 1725 : 			bomb->Pos.v[Z] + bomb->SphereRadius + PUTTYBOMB_PUSH_RANGE);

	mov	eax, DWORD PTR _bomb$[ebp]
	mov	ecx, DWORD PTR _bomb$[ebp]
	fld	DWORD PTR [eax+12]
	fsub	DWORD PTR [ecx+4]
	fsub	DWORD PTR __real@42800000
	mov	edx, DWORD PTR _bomb$[ebp]
	fstp	DWORD PTR [edx+24]
	mov	eax, DWORD PTR _bomb$[ebp]
	mov	ecx, DWORD PTR _bomb$[ebp]
	fld	DWORD PTR [eax+12]
	fadd	DWORD PTR [ecx+4]
	fadd	DWORD PTR __real@42800000
	mov	edx, DWORD PTR _bomb$[ebp]
	fstp	DWORD PTR [edx+28]
	mov	eax, DWORD PTR _bomb$[ebp]
	mov	ecx, DWORD PTR _bomb$[ebp]
	fld	DWORD PTR [eax+16]
	fsub	DWORD PTR [ecx+4]
	fsub	DWORD PTR __real@42800000
	mov	edx, DWORD PTR _bomb$[ebp]
	fstp	DWORD PTR [edx+32]
	mov	eax, DWORD PTR _bomb$[ebp]
	mov	ecx, DWORD PTR _bomb$[ebp]
	fld	DWORD PTR [eax+16]
	fadd	DWORD PTR [ecx+4]
	fadd	DWORD PTR __real@42800000
	mov	edx, DWORD PTR _bomb$[ebp]
	fstp	DWORD PTR [edx+36]
	mov	eax, DWORD PTR _bomb$[ebp]
	mov	ecx, DWORD PTR _bomb$[ebp]
	fld	DWORD PTR [eax+20]
	fsub	DWORD PTR [ecx+4]
	fsub	DWORD PTR __real@42800000
	mov	edx, DWORD PTR _bomb$[ebp]
	fstp	DWORD PTR [edx+40]
	mov	eax, DWORD PTR _bomb$[ebp]
	mov	ecx, DWORD PTR _bomb$[ebp]
	fld	DWORD PTR [eax+20]
	fadd	DWORD PTR [ecx+4]
	fadd	DWORD PTR __real@42800000
	mov	edx, DWORD PTR _bomb$[ebp]
	fstp	DWORD PTR [edx+44]

; 1726 : 
; 1727 : 		AddWorldMeshFx(PuttyBombWorldMeshFxChecker, obj);

	mov	eax, DWORD PTR _obj$[ebp]
	push	eax
	push	OFFSET FLAT:?PuttyBombWorldMeshFxChecker@@YAXPAX@Z ; PuttyBombWorldMeshFxChecker
	call	?AddWorldMeshFx@@YAXP6AXPAX@Z0@Z	; AddWorldMeshFx
	add	esp, 8

; 1728 : 		AddModelMeshFx(PuttyBombModelMeshFxChecker, obj);

	mov	eax, DWORD PTR _obj$[ebp]
	push	eax
	push	OFFSET FLAT:?PuttyBombModelMeshFxChecker@@YAXPAX@Z ; PuttyBombModelMeshFxChecker
	call	?AddModelMeshFx@@YAXP6AXPAX@Z0@Z	; AddModelMeshFx
	add	esp, 8
$L83681:

; 1729 : 	}
; 1730 : }

	pop	edi
	pop	esi
	pop	ebx
	mov	esp, ebp
	pop	ebp
	ret	0
?PuttyBombBang@@YAXPAUobject_def@@@Z ENDP		; PuttyBombBang
_TEXT	ENDS
EXTRN	?PLR_PlayerHead@@3PAUPlayerStruct@@A:DWORD	; PLR_PlayerHead
EXTRN	?OBJ_PairCollInfo@@3PAY0IA@UPairCollInfoStruct@@A:BYTE ; OBJ_PairCollInfo
; Function compile flags: /Odt /ZI
;	COMDAT ?PuttyBombMove@@YAXPAUobject_def@@@Z
_TEXT	SEGMENT
_bomb$ = -8						; size = 4
_player$ = -4						; size = 4
_obj$ = 8						; size = 4
?PuttyBombMove@@YAXPAUobject_def@@@Z PROC NEAR		; PuttyBombMove, COMDAT

; 1733 : {

	push	ebp
	mov	ebp, esp
	sub	esp, 72					; 00000048H
	push	ebx
	push	esi
	push	edi

; 1734 : 	PLAYER *player;
; 1735 : 	PUTTYBOMB_OBJ *bomb = (PUTTYBOMB_OBJ*)obj->Data;

	mov	eax, DWORD PTR _obj$[ebp]
	mov	ecx, DWORD PTR [eax+684]
	mov	DWORD PTR _bomb$[ebp], ecx

; 1736 : 
; 1737 : 	// Make sure it isn't too late
; 1738 : 	if (obj->player->car.WillDetonate) return;

	mov	eax, DWORD PTR _obj$[ebp]
	mov	ecx, DWORD PTR [eax+588]
	cmp	DWORD PTR [ecx+3572], 0
	je	SHORT $L83724
	jmp	$L83720
$L83724:

; 1739 : 
; 1740 : 	// Loop over all other players
; 1741 : 	for (player = PLR_PlayerHead; player != NULL; player = player ->next) {

	mov	eax, DWORD PTR ?PLR_PlayerHead@@3PAUPlayerStruct@@A ; PLR_PlayerHead
	mov	DWORD PTR _player$[ebp], eax
	jmp	SHORT $L83725
$L83726:
	mov	eax, DWORD PTR _player$[ebp]
	mov	ecx, DWORD PTR [eax+12]
	mov	DWORD PTR _player$[ebp], ecx
$L83725:
	cmp	DWORD PTR _player$[ebp], 0
	je	$L83720

; 1742 : 		if (player == obj->player) continue;

	mov	eax, DWORD PTR _obj$[ebp]
	mov	ecx, DWORD PTR _player$[ebp]
	cmp	ecx, DWORD PTR [eax+588]
	jne	SHORT $L83728
	jmp	SHORT $L83726
$L83728:

; 1743 : 
; 1744 : 		// Have the players collided?
; 1745 : 		if (!IsPairCollided(obj->player->ownobj, player->ownobj)) continue;

	mov	eax, DWORD PTR _obj$[ebp]
	mov	ecx, DWORD PTR [eax+588]
	mov	edx, DWORD PTR [ecx+40]
	mov	eax, DWORD PTR [edx+576]
	shl	eax, 9
	mov	ecx, DWORD PTR _player$[ebp]
	mov	edx, DWORD PTR [ecx+40]
	mov	ecx, DWORD PTR [edx+576]
	mov	edx, DWORD PTR ?OBJ_PairCollInfo@@3PAY0IA@UPairCollInfoStruct@@A[eax+ecx*4]
	shr	edx, 1
	and	edx, 1
	jne	SHORT $L83729
	jmp	SHORT $L83726
$L83729:

; 1746 : 
; 1747 : 		// Can the bomb be tranferred?
; 1748 : 		if (player->car.NoReturnTimer > ZERO) continue;

	mov	eax, DWORD PTR _player$[ebp]
	fld	DWORD PTR [eax+3576]
	fcomp	DWORD PTR __real@00000000
	fnstsw	ax
	test	ah, 65					; 00000041H
	jne	SHORT $L83730
	jmp	SHORT $L83726
$L83730:

; 1749 : 
; 1750 : 		// Transfer the bomb
; 1751 : 		obj->player->car.NoReturnTimer = PUTTYBOMB_NORETURN_TIME;

	mov	eax, DWORD PTR _obj$[ebp]
	mov	ecx, DWORD PTR [eax+588]
	mov	DWORD PTR [ecx+3576], 1065353216	; 3f800000H

; 1752 : 		obj->player->car.Aerial.Length = bomb->OrigAerialLen;

	mov	eax, DWORD PTR _obj$[ebp]
	mov	ecx, DWORD PTR [eax+588]
	mov	edx, DWORD PTR _bomb$[ebp]
	mov	eax, DWORD PTR [edx+8]
	mov	DWORD PTR [ecx+916], eax

; 1753 : 		obj->player->car.IsBomb = FALSE;

	mov	eax, DWORD PTR _obj$[ebp]
	mov	ecx, DWORD PTR [eax+588]
	mov	DWORD PTR [ecx+3568], 0

; 1754 : 		obj->player->car.WillDetonate = FALSE;

	mov	eax, DWORD PTR _obj$[ebp]
	mov	ecx, DWORD PTR [eax+588]
	mov	DWORD PTR [ecx+3572], 0

; 1755 : 
; 1756 : 		player->car.IsBomb = TRUE;

	mov	eax, DWORD PTR _player$[ebp]
	mov	DWORD PTR [eax+3568], 1

; 1757 : 		player->car.WillDetonate = FALSE;

	mov	eax, DWORD PTR _player$[ebp]
	mov	DWORD PTR [eax+3572], 0

; 1758 : 		bomb->OrigAerialLen = player->car.Aerial.Length;

	mov	eax, DWORD PTR _bomb$[ebp]
	mov	ecx, DWORD PTR _player$[ebp]
	mov	edx, DWORD PTR [ecx+916]
	mov	DWORD PTR [eax+8], edx

; 1759 : 		obj->player->car.NoReturnTimer = PUTTYBOMB_NORETURN_TIME;

	mov	eax, DWORD PTR _obj$[ebp]
	mov	ecx, DWORD PTR [eax+588]
	mov	DWORD PTR [ecx+3576], 1065353216	; 3f800000H

; 1760 : 		obj->player = player;

	mov	eax, DWORD PTR _obj$[ebp]
	mov	ecx, DWORD PTR _player$[ebp]
	mov	DWORD PTR [eax+588], ecx

; 1761 : 
; 1762 : 	}

	jmp	$L83726
$L83720:

; 1763 : }

	pop	edi
	pop	esi
	pop	ebx
	mov	esp, ebp
	pop	ebp
	ret	0
?PuttyBombMove@@YAXPAUobject_def@@@Z ENDP		; PuttyBombMove
_TEXT	ENDS
PUBLIC	__real@bf333333
PUBLIC	__real@41f00000
EXTRN	?TimerCurrent@@3KA:DWORD			; TimerCurrent
EXTRN	?TimerFreq@@3KA:DWORD				; TimerFreq
;	COMDAT __real@bf333333
CONST	SEGMENT
__real@bf333333 DD 0bf333333r			; -0.7
CONST	ENDS
;	COMDAT __real@41f00000
CONST	SEGMENT
__real@41f00000 DD 041f00000r			; 30
; Function compile flags: /Odt /ZI
CONST	ENDS
;	COMDAT ?WaterBombHandler@@YAXPAUobject_def@@@Z
_TEXT	SEGMENT
tv362 = -140						; size = 8
tv355 = -132						; size = 8
_dist$ = -60						; size = 4
_pos$ = -56						; size = 12
_mat$ = -44						; size = 36
_bomb$ = -8						; size = 4
_flag$ = -4						; size = 4
_obj$ = 8						; size = 4
?WaterBombHandler@@YAXPAUobject_def@@@Z PROC NEAR	; WaterBombHandler, COMDAT

; 1771 : {

	push	ebp
	mov	ebp, esp
	sub	esp, 140				; 0000008cH
	push	ebx
	push	esi
	push	edi

; 1772 : 	long flag;
; 1773 : 	WATERBOMB_OBJ *bomb = (WATERBOMB_OBJ*)obj->Data;

	mov	eax, DWORD PTR _obj$[ebp]
	mov	ecx, DWORD PTR [eax+684]
	mov	DWORD PTR _bomb$[ebp], ecx

; 1774 : 	MAT mat;
; 1775 : 	VEC pos;
; 1776 : 	REAL dist;
; 1777 : 
; 1778 : // inc age
; 1779 : 
; 1780 : 	bomb->Age += TimeStep;

	mov	eax, DWORD PTR _bomb$[ebp]
	fld	DWORD PTR ?TimeStep@@3MA		; TimeStep
	fadd	DWORD PTR [eax]
	mov	ecx, DWORD PTR _bomb$[ebp]
	fstp	DWORD PTR [ecx]

; 1781 : 
; 1782 : // maintain sfx
; 1783 : 
; 1784 : 	if (obj->Sfx3D)

	mov	eax, DWORD PTR _obj$[ebp]
	cmp	DWORD PTR [eax+680], 0
	je	SHORT $L83740

; 1785 : 	{
; 1786 : 		CopyVec(&obj->body.Centre.Pos, &obj->Sfx3D->Pos);

	mov	eax, DWORD PTR _obj$[ebp]
	mov	ecx, DWORD PTR [eax+680]
	mov	edx, DWORD PTR _obj$[ebp]
	mov	eax, DWORD PTR [edx+20]
	mov	DWORD PTR [ecx+28], eax
	mov	eax, DWORD PTR _obj$[ebp]
	mov	ecx, DWORD PTR [eax+680]
	mov	edx, DWORD PTR _obj$[ebp]
	mov	eax, DWORD PTR [edx+24]
	mov	DWORD PTR [ecx+32], eax
	mov	eax, DWORD PTR _obj$[ebp]
	mov	ecx, DWORD PTR [eax+680]
	mov	edx, DWORD PTR _obj$[ebp]
	mov	eax, DWORD PTR [edx+28]
	mov	DWORD PTR [ecx+36], eax
$L83740:

; 1787 : 	}
; 1788 : 
; 1789 : // set wobble scalars
; 1790 : 
; 1791 : 	bomb->ScalarHoriz = (float)sin((float)TIME2MS(TimerCurrent) / 100.0f) / 10.0f + 1.0f;

	mov	eax, DWORD PTR ?TimerCurrent@@3KA	; TimerCurrent
	mov	DWORD PTR tv355[ebp], eax
	mov	DWORD PTR tv355[ebp+4], 0
	fild	QWORD PTR tv355[ebp]
	mov	eax, DWORD PTR ?TimerFreq@@3KA		; TimerFreq
	xor	edx, edx
	mov	ecx, 1000				; 000003e8H
	div	ecx
	mov	DWORD PTR tv362[ebp], eax
	mov	DWORD PTR tv362[ebp+4], 0
	fild	QWORD PTR tv362[ebp]
	fdivp	ST(1), ST(0)
	fdiv	DWORD PTR __real@42c80000
	push	ecx
	fstp	DWORD PTR [esp]
	call	?sin@@YAMM@Z				; sin
	add	esp, 4
	fdiv	DWORD PTR __real@41200000
	fadd	DWORD PTR __real@3f800000
	mov	edx, DWORD PTR _bomb$[ebp]
	fstp	DWORD PTR [edx+8]

; 1792 : 	bomb->ScalarVert = 2.0f - bomb->ScalarHoriz;

	mov	eax, DWORD PTR _bomb$[ebp]
	fld	DWORD PTR __real@40000000
	fsub	DWORD PTR [eax+8]
	mov	ecx, DWORD PTR _bomb$[ebp]
	fstp	DWORD PTR [ecx+12]

; 1793 : 
; 1794 : // sub hit mag
; 1795 : 
; 1796 : 	if (obj->body.BangMag)

	mov	eax, DWORD PTR _obj$[ebp]
	fld	DWORD PTR __real@00000000
	fld	DWORD PTR [eax+548]
	fucompp
	fnstsw	ax
	test	ah, 68					; 00000044H
	jnp	SHORT $L83743

; 1797 : 	{
; 1798 : 		bomb->BangTol -= obj->body.BangMag;

	mov	eax, DWORD PTR _bomb$[ebp]
	mov	ecx, DWORD PTR _obj$[ebp]
	fld	DWORD PTR [eax+4]
	fsub	DWORD PTR [ecx+548]
	mov	edx, DWORD PTR _bomb$[ebp]
	fstp	DWORD PTR [edx+4]

; 1799 : 		if (obj->body.BangPlane.v[Y] > -0.7f && bomb->BangTol < 0.0f)

	mov	eax, DWORD PTR _obj$[ebp]
	fld	DWORD PTR [eax+556]
	fcomp	DWORD PTR __real@bf333333
	fnstsw	ax
	test	ah, 65					; 00000041H
	jne	SHORT $L83744
	mov	eax, DWORD PTR _bomb$[ebp]
	fld	DWORD PTR [eax+4]
	fcomp	DWORD PTR __real@00000000
	fnstsw	ax
	test	ah, 5
	jp	SHORT $L83744

; 1800 : 			bomb->BangTol = 0.0f;

	mov	eax, DWORD PTR _bomb$[ebp]
	mov	DWORD PTR [eax+4], 0
$L83744:

; 1801 : 
; 1802 : 		obj->body.BangMag = 0.0f;

	mov	eax, DWORD PTR _obj$[ebp]
	mov	DWORD PTR [eax+548], 0
$L83743:

; 1803 : 	}
; 1804 : 
; 1805 : // bang?
; 1806 : 
; 1807 : 	if (bomb->BangTol < 0.0f || bomb->Age > WATERBOMB_MAX_AGE)

	mov	eax, DWORD PTR _bomb$[ebp]
	fld	DWORD PTR [eax+4]
	fcomp	DWORD PTR __real@00000000
	fnstsw	ax
	test	ah, 5
	jnp	SHORT $L83746
	mov	eax, DWORD PTR _bomb$[ebp]
	fld	DWORD PTR [eax]
	fcomp	DWORD PTR __real@41f00000
	fnstsw	ax
	test	ah, 65					; 00000041H
	jne	$L83733
$L83746:

; 1808 : 	{
; 1809 : 		PlaySfx3D(SFX_WATERBOMB_HIT, SFX_MAX_VOL, 22050, &obj->body.Centre.Pos);

	mov	eax, DWORD PTR _obj$[ebp]
	add	eax, 20					; 00000014H
	push	eax
	push	22050					; 00005622H
	push	127					; 0000007fH
	push	14					; 0000000eH
	call	?PlaySfx3D@@YAXJJJPAUVectorStruct@@@Z	; PlaySfx3D
	add	esp, 16					; 00000010H

; 1810 : 
; 1811 : //		flag = (long)&LevelModel[obj->DefaultModel].Model;
; 1812 : //		CreateObject(&obj->body.Centre.Pos, &obj->body.Centre.WMatrix, OBJECT_TYPE_DISSOLVEMODEL, &flag);
; 1813 : 
; 1814 : 		dist = -PlaneDist(&obj->body.BangPlane, &obj->body.Centre.Pos);

	mov	eax, DWORD PTR _obj$[ebp]
	mov	ecx, DWORD PTR _obj$[ebp]
	fld	DWORD PTR [eax+20]
	fmul	DWORD PTR [ecx+552]
	mov	edx, DWORD PTR _obj$[ebp]
	mov	eax, DWORD PTR _obj$[ebp]
	fld	DWORD PTR [edx+24]
	fmul	DWORD PTR [eax+556]
	faddp	ST(1), ST(0)
	mov	ecx, DWORD PTR _obj$[ebp]
	mov	edx, DWORD PTR _obj$[ebp]
	fld	DWORD PTR [ecx+28]
	fmul	DWORD PTR [edx+560]
	faddp	ST(1), ST(0)
	mov	eax, DWORD PTR _obj$[ebp]
	fadd	DWORD PTR [eax+564]
	fchs
	fstp	DWORD PTR _dist$[ebp]

; 1815 : 		VecPlusScalarVec(&obj->body.Centre.Pos, dist, (VEC*)&obj->body.BangPlane, &pos);

	mov	eax, DWORD PTR _obj$[ebp]
	fld	DWORD PTR _dist$[ebp]
	fmul	DWORD PTR [eax+552]
	mov	ecx, DWORD PTR _obj$[ebp]
	fadd	DWORD PTR [ecx+20]
	fstp	DWORD PTR _pos$[ebp]
	mov	eax, DWORD PTR _obj$[ebp]
	fld	DWORD PTR _dist$[ebp]
	fmul	DWORD PTR [eax+556]
	mov	ecx, DWORD PTR _obj$[ebp]
	fadd	DWORD PTR [ecx+24]
	fstp	DWORD PTR _pos$[ebp+4]
	mov	eax, DWORD PTR _obj$[ebp]
	fld	DWORD PTR _dist$[ebp]
	fmul	DWORD PTR [eax+560]
	mov	ecx, DWORD PTR _obj$[ebp]
	fadd	DWORD PTR [ecx+28]
	fstp	DWORD PTR _pos$[ebp+8]

; 1816 : 
; 1817 : 		SetVec(&mat.mv[U], -obj->body.BangPlane.v[A], -obj->body.BangPlane.v[B], -obj->body.BangPlane.v[C]);

	mov	eax, DWORD PTR _obj$[ebp]
	fld	DWORD PTR [eax+552]
	fchs
	fstp	DWORD PTR _mat$[ebp+12]
	mov	eax, DWORD PTR _obj$[ebp]
	fld	DWORD PTR [eax+556]
	fchs
	fstp	DWORD PTR _mat$[ebp+16]
	mov	eax, DWORD PTR _obj$[ebp]
	fld	DWORD PTR [eax+560]
	fchs
	fstp	DWORD PTR _mat$[ebp+20]

; 1818 : 		SetVec(&mat.mv[L], mat.m[UY], mat.m[UZ], mat.m[UX]);

	mov	eax, DWORD PTR _mat$[ebp+16]
	mov	DWORD PTR _mat$[ebp+24], eax
	mov	eax, DWORD PTR _mat$[ebp+20]
	mov	DWORD PTR _mat$[ebp+28], eax
	mov	eax, DWORD PTR _mat$[ebp+12]
	mov	DWORD PTR _mat$[ebp+32], eax

; 1819 : 		CrossProduct(&mat.mv[U], &mat.mv[L], &mat.mv[R]);

	fld	DWORD PTR _mat$[ebp+16]
	fmul	DWORD PTR _mat$[ebp+32]
	fld	DWORD PTR _mat$[ebp+20]
	fmul	DWORD PTR _mat$[ebp+28]
	fsubp	ST(1), ST(0)
	fstp	DWORD PTR _mat$[ebp]
	fld	DWORD PTR _mat$[ebp+20]
	fmul	DWORD PTR _mat$[ebp+24]
	fld	DWORD PTR _mat$[ebp+12]
	fmul	DWORD PTR _mat$[ebp+32]
	fsubp	ST(1), ST(0)
	fstp	DWORD PTR _mat$[ebp+4]
	fld	DWORD PTR _mat$[ebp+12]
	fmul	DWORD PTR _mat$[ebp+28]
	fld	DWORD PTR _mat$[ebp+16]
	fmul	DWORD PTR _mat$[ebp+24]
	fsubp	ST(1), ST(0)
	fstp	DWORD PTR _mat$[ebp+8]

; 1820 : 		CrossProduct(&mat.mv[R], &mat.mv[U], &mat.mv[L]);

	fld	DWORD PTR _mat$[ebp+4]
	fmul	DWORD PTR _mat$[ebp+20]
	fld	DWORD PTR _mat$[ebp+8]
	fmul	DWORD PTR _mat$[ebp+16]
	fsubp	ST(1), ST(0)
	fstp	DWORD PTR _mat$[ebp+24]
	fld	DWORD PTR _mat$[ebp+8]
	fmul	DWORD PTR _mat$[ebp+12]
	fld	DWORD PTR _mat$[ebp]
	fmul	DWORD PTR _mat$[ebp+20]
	fsubp	ST(1), ST(0)
	fstp	DWORD PTR _mat$[ebp+28]
	fld	DWORD PTR _mat$[ebp]
	fmul	DWORD PTR _mat$[ebp+16]
	fld	DWORD PTR _mat$[ebp+4]
	fmul	DWORD PTR _mat$[ebp+12]
	fsubp	ST(1), ST(0)
	fstp	DWORD PTR _mat$[ebp+32]

; 1821 : 
; 1822 : 		CreateObject(&pos, &mat, OBJECT_TYPE_SPLASH, &flag);

	lea	eax, DWORD PTR _flag$[ebp]
	push	eax
	push	34					; 00000022H
	lea	ecx, DWORD PTR _mat$[ebp]
	push	ecx
	lea	edx, DWORD PTR _pos$[ebp]
	push	edx
	call	?CreateObject@@YAPAUobject_def@@PAUVectorStruct@@PATMatrixUnion@@JPAJ@Z ; CreateObject
	add	esp, 16					; 00000010H

; 1823 : 
; 1824 : 		OBJ_FreeObject(obj);

	mov	eax, DWORD PTR _obj$[ebp]
	push	eax
	call	?OBJ_FreeObject@@YAJPAUobject_def@@@Z	; OBJ_FreeObject
	add	esp, 4
$L83733:

; 1825 : 	}
; 1826 : }

	pop	edi
	pop	esi
	pop	ebx
	mov	esp, ebp
	pop	ebp
	ret	0
?WaterBombHandler@@YAXPAUobject_def@@@Z ENDP		; WaterBombHandler
_TEXT	ENDS
PUBLIC	__real@3dc00000
PUBLIC	__real@3ec00000
PUBLIC	__real@43ff8000
PUBLIC	__real@41180000
PUBLIC	__real@47100000
EXTRN	?TransposeRotVector@@YAXPATMatrixUnion@@PAUVectorStruct@@1@Z:NEAR ; TransposeRotVector
;	COMDAT __real@3dc00000
CONST	SEGMENT
__real@3dc00000 DD 03dc00000r			; 0.09375
CONST	ENDS
;	COMDAT __real@3ec00000
CONST	SEGMENT
__real@3ec00000 DD 03ec00000r			; 0.375
CONST	ENDS
;	COMDAT __real@43ff8000
CONST	SEGMENT
__real@43ff8000 DD 043ff8000r			; 511
CONST	ENDS
;	COMDAT __real@41180000
CONST	SEGMENT
__real@41180000 DD 041180000r			; 9.5
CONST	ENDS
;	COMDAT __real@47100000
CONST	SEGMENT
__real@47100000 DD 047100000r			; 36864
; Function compile flags: /Odt /ZI
CONST	ENDS
;	COMDAT ?ElectroPulseHandler@@YAXPAUobject_def@@@Z
_TEXT	SEGMENT
__temp$83830 = -140					; size = 4
__temp$83789 = -136					; size = 4
__temp$83784 = -132					; size = 4
_ndist$ = -128						; size = 4
_dist$ = -124						; size = 4
_v2$ = -120						; size = 12
_v1$ = -108						; size = 12
_rotpos$ = -96						; size = 12
_pos$ = -84						; size = 4
_nvec2$ = -80						; size = 4
_nvec1$ = -76						; size = 4
_vec$ = -72						; size = 12
_delta$ = -60						; size = 12
_player$ = -48						; size = 4
_evert$ = -44						; size = 4
_mv$ = -40						; size = 4
_mrgb$ = -36						; size = 4
_mp$ = -32						; size = 4
_model$ = -28						; size = 4
_dmodel$ = -24						; size = 4
_electro$ = -20						; size = 4
_flag$ = -16						; size = 4
_lmul$ = -12						; size = 4
_rgb$ = -8						; size = 4
_i$ = -4						; size = 4
_obj$ = 8						; size = 4
?ElectroPulseHandler@@YAXPAUobject_def@@@Z PROC NEAR	; ElectroPulseHandler, COMDAT

; 1833 : {

	push	ebp
	mov	ebp, esp
	sub	esp, 204				; 000000ccH
	push	ebx
	push	esi
	push	edi

; 1834 : 	long i, rgb, lmul, flag;
